 audio_visualizer

 Timestamp is 62c2fd03 (Mon Jul  4 08:45:23 2022)

 Preferred load address is 0000000140000000

 Start         Length     Name                   Class
 0001:00000000 00000100H .text$di                CODE
 0001:00000100 000a97a0H .text$mn                CODE
 0001:000a98a0 00000040H .text$mn$00             CODE
 0001:000a98e0 000008ddH .text$x                 CODE
 0002:00000000 00000430H .idata$5                DATA
 0002:00000430 00000030H .00cfg                  DATA
 0002:00000460 00000008H .CRT$XCA                DATA
 0002:00000468 00000008H .CRT$XCAA               DATA
 0002:00000470 00000038H .CRT$XCU                DATA
 0002:000004a8 00000008H .CRT$XCZ                DATA
 0002:000004b0 00000008H .CRT$XIA                DATA
 0002:000004b8 00000008H .CRT$XIAA               DATA
 0002:000004c0 00000008H .CRT$XIAC               DATA
 0002:000004c8 00000020H .CRT$XIC                DATA
 0002:000004e8 00000008H .CRT$XIZ                DATA
 0002:000004f0 00000008H .CRT$XLA                DATA
 0002:000004f8 00000008H .CRT$XLZ                DATA
 0002:00000500 00000008H .CRT$XPA                DATA
 0002:00000508 00000010H .CRT$XPX                DATA
 0002:00000518 00000008H .CRT$XPXA               DATA
 0002:00000520 00000008H .CRT$XPZ                DATA
 0002:00000528 00000008H .CRT$XTA                DATA
 0002:00000530 00000010H .CRT$XTZ                DATA
 0002:00000538 00000000H .gehcont$y              DATA
 0002:00000538 00000000H .gfids$y                DATA
 0002:00000540 00025440H .rdata                  DATA
 0002:00025980 00000000H .rdata$CastGuardVftablesA DATA
 0002:00025980 00000000H .rdata$CastGuardVftablesC DATA
 0002:00025980 00000028H .rdata$T                DATA
 0002:000259a8 0000016cH .rdata$r                DATA
 0002:00025b14 00000278H .rdata$voltmd           DATA
 0002:00025d8c 000003fcH .rdata$zzzdbg           DATA
 0002:00026188 00000008H .rtc$IAA                DATA
 0002:00026190 00000008H .rtc$IZZ                DATA
 0002:00026198 00000008H .rtc$TAA                DATA
 0002:000261a0 00000008H .rtc$TZZ                DATA
 0002:000261a8 00000008H .tls                    DATA
 0002:000261b0 00000020H .tls$                   DATA
 0002:000261d0 00000010H .tls$ZZZ                DATA
 0002:000261e0 00002bd8H .xdata                  DATA
 0002:00028db8 00000084H .xdata$x                DATA
 0002:00028e3c 00000000H .edata                  DATA
 0002:00028e3c 00000064H .idata$2                DATA
 0002:00028ea0 00000018H .idata$3                DATA
 0002:00028eb8 00000430H .idata$4                DATA
 0002:000292e8 00000966H .idata$6                DATA
 0003:00000000 000013e0H .data                   DATA
 0003:000013e0 00000050H .data$r                 DATA
 0003:00001430 00000020H .data$rs                DATA
 0003:00001450 000a13c0H .bss                    DATA
 0004:00000000 000060ccH .pdata                  DATA
 0005:00000000 000000f4H _RDATA                  DATA

  Address         Publics by Value              Rva+Base               Lib:Object

 0000:00000000       __arm64x_redirection_metadata 0000000000000000     <absolute>
 0000:00000000       __guard_longjmp_count      0000000000000000     <absolute>
 0000:00000000       __x64_code_ranges_to_entry_points_count 0000000000000000     <absolute>
 0000:00000000       __dynamic_value_reloc_table 0000000000000000     <absolute>
 0000:00000000       ___safe_se_handler_table   0000000000000000     <absolute>
 0000:00000000       __hybrid_auxiliary_iat     0000000000000000     <absolute>
 0000:00000000       __hybrid_auxiliary_iat_copy 0000000000000000     <absolute>
 0000:00000000       __guard_iat_table          0000000000000000     <absolute>
 0000:00000000       __guard_longjmp_table      0000000000000000     <absolute>
 0000:00000000       __x64_code_ranges_to_entry_points 0000000000000000     <absolute>
 0000:00000000       __AbsoluteZero             0000000000000000     <absolute>
 0000:00000000       __guard_iat_count          0000000000000000     <absolute>
 0000:00000000       __guard_fids_count         0000000000000000     <absolute>
 0000:00000000       __guard_check_icall_a64n_fptr 0000000000000000     <absolute>
 0000:00000000       __arm64x_extra_rfe_table   0000000000000000     <absolute>
 0000:00000000       __guard_fids_table         0000000000000000     <absolute>
 0000:00000000       __hybrid_code_map          0000000000000000     <absolute>
 0000:00000000       __arm64x_extra_rfe_table_size 0000000000000000     <absolute>
 0000:00000000       ___safe_se_handler_count   0000000000000000     <absolute>
 0000:00000000       __arm64x_redirection_metadata_count 0000000000000000     <absolute>
 0000:00000000       __enclave_config           0000000000000000     <absolute>
 0000:00000000       __guard_eh_cont_count      0000000000000000     <absolute>
 0000:00000000       __guard_eh_cont_table      0000000000000000     <absolute>
 0000:00000000       __arm64x_native_entrypoint 0000000000000000     <absolute>
 0000:00000000       __hybrid_code_map_count    0000000000000000     <absolute>
 0000:00000100       __guard_flags              0000000000000100     <absolute>
 0000:00000000       __ImageBase                0000000140000000     <linker-defined>
 0001:00000100       gladLoadGL                 0000000140001100 f   audio_visualizer.obj
 0001:00000140       gladLoadGLLoader           0000000140001140 f   audio_visualizer.obj
 0001:00000310       WinMain                    0000000140001310 f   audio_visualizer.obj
 0001:000055d0       ?ThreadProc@@YAKPEAX@Z     00000001400065d0 f   audio_visualizer.obj
 0001:00005620       main                       0000000140006620 f   audio_visualizer.obj
 0001:00005820       ?ReadEntireFile@@YA?AUentire_file@@PEBD@Z 0000000140006820 f   audio_visualizer.obj
 0001:00005910       ?Concat@@YAPEADPEAD0@Z     0000000140006910 f   audio_visualizer.obj
 0001:000059d0       ?Insert@@YAPEBDPEBDH0@Z    00000001400069d0 f   audio_visualizer.obj
 0001:00005b10       ?RemoveAt@@YAPEBDPEBDH@Z   0000000140006b10 f   audio_visualizer.obj
 0001:00005bf0       ?NewStrinq@@YA?AUstrinq@@PEBD@Z 0000000140006bf0 f   audio_visualizer.obj
 0001:00005cc0       ?NewStrinq@@YA?AUstrinq@@PEAUentire_file@@@Z 0000000140006cc0 f   audio_visualizer.obj
 0001:00005da0       ?IntToStrinq@@YA?AUstrinq@@H@Z 0000000140006da0 f   audio_visualizer.obj
 0001:00005ed0       ??H@YA?AUstrinq@@AEBU0@0@Z 0000000140006ed0 f   audio_visualizer.obj
 0001:00006030       ??8@YA_NAEBUstrinq@@0@Z    0000000140007030 f   audio_visualizer.obj
 0001:000060e0       ?PrintqDebug@@YA_NUstrinq@@@Z 00000001400070e0 f   audio_visualizer.obj
 0001:000061f0       ?PrintqDebug@@YAXPEBD@Z    00000001400071f0 f   audio_visualizer.obj
 0001:00006280       ?StrinqFind@@YAHAEBUstrinq@@D@Z 0000000140007280 f   audio_visualizer.obj
 0001:000062e0       ?CopyBuffer@@YAXPEADPEBDH@Z 00000001400072e0 f   audio_visualizer.obj
 0001:00006340       ?StrinqErase@@YAHAEAUstrinq@@H@Z 0000000140007340 f   audio_visualizer.obj
 0001:000063a0       ?GetLength@@YAHAEAUstrinq@@@Z 00000001400073a0 f   audio_visualizer.obj
 0001:000063e0       ?Init@Map@@QEAAXXZ         00000001400073e0 f   audio_visualizer.obj
 0001:00006410       ??AMap@@QEAAAEAHPEAD@Z     0000000140007410 f   audio_visualizer.obj
 0001:000064f0       ??AMap@@QEAAAEAHAEAUstrinq@@@Z 00000001400074f0 f   audio_visualizer.obj
 0001:000065d0       ?MapFind@Map@@QEAAIAEBUstrinq@@@Z 00000001400075d0 f   audio_visualizer.obj
 0001:000066c0       ?MapFind@Map@@QEAAIPEBD@Z  00000001400076c0 f   audio_visualizer.obj
 0001:00006940       ?GetInt@@YAHPEAUpair_int_string@@HPEBD@Z 0000000140007940 f   audio_visualizer.obj
 0001:000069c0       stbi_load_from_memory      00000001400079c0 f   audio_visualizer.obj
 0001:00006a60       stbi_load_from_callbacks   0000000140007a60 f   audio_visualizer.obj
 0001:00006b00       stbi_load                  0000000140007b00 f   audio_visualizer.obj
 0001:00006bb0       stbi_load_from_file        0000000140007bb0 f   audio_visualizer.obj
 0001:00006c80       stbi_load_gif_from_memory  0000000140007c80 f   audio_visualizer.obj
 0001:00006dd0       stbi_load_16_from_memory   0000000140007dd0 f   audio_visualizer.obj
 0001:00006e70       stbi_load_16_from_callbacks 0000000140007e70 f   audio_visualizer.obj
 0001:00006f10       stbi_load_16               0000000140007f10 f   audio_visualizer.obj
 0001:00006fc0       stbi_load_from_file_16     0000000140007fc0 f   audio_visualizer.obj
 0001:00007090       stbi_loadf_from_memory     0000000140008090 f   audio_visualizer.obj
 0001:00007130       stbi_loadf_from_callbacks  0000000140008130 f   audio_visualizer.obj
 0001:000071d0       stbi_loadf                 00000001400081d0 f   audio_visualizer.obj
 0001:00007280       stbi_loadf_from_file       0000000140008280 f   audio_visualizer.obj
 0001:00007310       stbi_hdr_to_ldr_gamma      0000000140008310 f   audio_visualizer.obj
 0001:00007340       stbi_hdr_to_ldr_scale      0000000140008340 f   audio_visualizer.obj
 0001:00007370       stbi_ldr_to_hdr_gamma      0000000140008370 f   audio_visualizer.obj
 0001:00007390       stbi_ldr_to_hdr_scale      0000000140008390 f   audio_visualizer.obj
 0001:000073b0       stbi_is_hdr_from_callbacks 00000001400083b0 f   audio_visualizer.obj
 0001:00007420       stbi_is_hdr_from_memory    0000000140008420 f   audio_visualizer.obj
 0001:00007490       stbi_is_hdr                0000000140008490 f   audio_visualizer.obj
 0001:000074f0       stbi_is_hdr_from_file      00000001400084f0 f   audio_visualizer.obj
 0001:00007580       stbi_failure_reason        0000000140008580 f   audio_visualizer.obj
 0001:000075b0       stbi_image_free            00000001400085b0 f   audio_visualizer.obj
 0001:000075d0       stbi_info_from_memory      00000001400085d0 f   audio_visualizer.obj
 0001:00007660       stbi_info_from_callbacks   0000000140008660 f   audio_visualizer.obj
 0001:000076f0       stbi_is_16_bit_from_memory 00000001400086f0 f   audio_visualizer.obj
 0001:00007760       stbi_is_16_bit_from_callbacks 0000000140008760 f   audio_visualizer.obj
 0001:000077d0       stbi_info                  00000001400087d0 f   audio_visualizer.obj
 0001:00007850       stbi_info_from_file        0000000140008850 f   audio_visualizer.obj
 0001:00007900       stbi_is_16_bit             0000000140008900 f   audio_visualizer.obj
 0001:00007960       stbi_is_16_bit_from_file   0000000140008960 f   audio_visualizer.obj
 0001:000079f0       stbi_set_unpremultiply_on_load 00000001400089f0 f   audio_visualizer.obj
 0001:00007a10       stbi_convert_iphone_png_to_rgb 0000000140008a10 f   audio_visualizer.obj
 0001:00007a30       stbi_set_flip_vertically_on_load 0000000140008a30 f   audio_visualizer.obj
 0001:00007a50       stbi_convert_iphone_png_to_rgb_thread 0000000140008a50 f   audio_visualizer.obj
 0001:00007aa0       stbi_set_flip_vertically_on_load_thread 0000000140008aa0 f   audio_visualizer.obj
 0001:00007af0       stbi_zlib_decode_malloc_guesssize 0000000140008af0 f   audio_visualizer.obj
 0001:00007bf0       stbi_zlib_decode_malloc_guesssize_headerflag 0000000140008bf0 f   audio_visualizer.obj
 0001:00007d00       stbi_zlib_decode_malloc    0000000140008d00 f   audio_visualizer.obj
 0001:00007d40       stbi_zlib_decode_buffer    0000000140008d40 f   audio_visualizer.obj
 0001:00007e00       stbi_zlib_decode_noheader_malloc 0000000140008e00 f   audio_visualizer.obj
 0001:00007f00       stbi_zlib_decode_noheader_buffer 0000000140008f00 f   audio_visualizer.obj
 0001:0001d570       ?stbi__unpremultiply_on_load_thread@@YAXH@Z 000000014001e570 f   audio_visualizer.obj
 0001:00021ae0       stbir_resize_uint8         0000000140022ae0 f   audio_visualizer.obj
 0001:00021c00       stbir_resize_float         0000000140022c00 f   audio_visualizer.obj
 0001:00021d20       stbir_resize_uint8_srgb    0000000140022d20 f   audio_visualizer.obj
 0001:00021e40       stbir_resize_uint8_srgb_edgemode 0000000140022e40 f   audio_visualizer.obj
 0001:00021f70       stbir_resize_uint8_generic 0000000140022f70 f   audio_visualizer.obj
 0001:000220b0       stbir_resize_uint16_generic 00000001400230b0 f   audio_visualizer.obj
 0001:000221f0       stbir_resize_float_generic 00000001400231f0 f   audio_visualizer.obj
 0001:00022330       stbir_resize               0000000140023330 f   audio_visualizer.obj
 0001:00022470       stbir_resize_subpixel      0000000140023470 f   audio_visualizer.obj
 0001:00022640       stbir_resize_region        0000000140023640 f   audio_visualizer.obj
 0001:00029180       ??8@YA_NAEBUmat4@@0@Z      000000014002a180 f   audio_visualizer.obj
 0001:000291f0       ??9@YA_NAEBUmat4@@0@Z      000000014002a1f0 f   audio_visualizer.obj
 0001:00029240       ??H@YA?AUmat4@@AEBU0@0@Z   000000014002a240 f   audio_visualizer.obj
 0001:00029540       ??D@YA?AUmat4@@AEBU0@M@Z   000000014002a540 f   audio_visualizer.obj
 0001:00029800       ??D@YA?AUmat4@@AEBU0@0@Z   000000014002a800 f   audio_visualizer.obj
 0001:0002a5a0       ??D@YA?AUv4@@AEBUmat4@@AEBU0@@Z 000000014002b5a0 f   audio_visualizer.obj
 0001:0002a7f0       ?TransformVector@@YA?AUv3@@AEBUmat4@@AEBU1@@Z 000000014002b7f0 f   audio_visualizer.obj
 0001:0002a9a0       ?TransformPoint@@YA?AUv3@@AEBUmat4@@AEBU1@@Z 000000014002b9a0 f   audio_visualizer.obj
 0001:0002ab60       ?TransformPoint@@YA?AUv3@@AEBUmat4@@AEBU1@AEAM@Z 000000014002bb60 f   audio_visualizer.obj
 0001:0002adb0       ?Transpose@@YAXAEAUmat4@@@Z 000000014002bdb0 f   audio_visualizer.obj
 0001:0002af00       ?Transposed@@YA?AUmat4@@AEBU1@@Z 000000014002bf00 f   audio_visualizer.obj
 0001:0002b060       ?Determinant@@YAMAEBUmat4@@@Z 000000014002c060 f   audio_visualizer.obj
 0001:0002b640       ?Adjugate@@YA?AUmat4@@AEBU1@@Z 000000014002c640 f   audio_visualizer.obj
 0001:0002ccc0       ?Inverse@@YA?AUmat4@@AEBU1@@Z 000000014002dcc0 f   audio_visualizer.obj
 0001:0002cd60       ?Invert@@YAXAEAUmat4@@@Z   000000014002dd60 f   audio_visualizer.obj
 0001:0002ce20       ?Frustum@@YA?AUmat4@@MMMMMM@Z 000000014002de20 f   audio_visualizer.obj
 0001:0002d040       ?Perspective@@YA?AUmat4@@MMMM@Z 000000014002e040 f   audio_visualizer.obj
 0001:0002d100       ?Ortho@@YA?AUmat4@@MMMMMM@Z 000000014002e100 f   audio_visualizer.obj
 0001:0002d320       ?LookAt@@YA?AUmat4@@AEBUv3@@00@Z 000000014002e320 f   audio_visualizer.obj
 0001:0002d5a0       ?Identity@@YA?AUmat4@@XZ   000000014002e5a0 f   audio_visualizer.obj
 0001:0002d5d0       ?Translate@@YA?AUmat4@@AEAU1@Uv3@@@Z 000000014002e5d0 f   audio_visualizer.obj
 0001:0002d660       ?GetScale@@YA?AUmat4@@AEAU1@M@Z 000000014002e660 f   audio_visualizer.obj
 0001:0002d6a0       ?AngleAxis@@YA?AUquat@@MAEBUv3@@@Z 000000014002e6a0 f   audio_visualizer.obj
 0001:0002d750       ?FromTo@@YA?AUquat@@AEBUv3@@0@Z 000000014002e750 f   audio_visualizer.obj
 0001:0002d9d0       ?GetAxis@@YA?AUv3@@AEBUquat@@@Z 000000014002e9d0 f   audio_visualizer.obj
 0001:0002da30       ?GetAngle@@YAMAEBUquat@@@Z 000000014002ea30 f   audio_visualizer.obj
 0001:0002da70       ??H@YA?AUquat@@AEBU0@0@Z   000000014002ea70 f   audio_visualizer.obj
 0001:0002db10       ??G@YA?AUquat@@AEBU0@0@Z   000000014002eb10 f   audio_visualizer.obj
 0001:0002dbb0       ??D@YA?AUquat@@AEBU0@M@Z   000000014002ebb0 f   audio_visualizer.obj
 0001:0002dc40       ??G@YA?AUquat@@AEBU0@@Z    000000014002ec40 f   audio_visualizer.obj
 0001:0002dcd0       ??8@YA_NAEBUquat@@0@Z      000000014002ecd0 f   audio_visualizer.obj
 0001:0002dda0       ??9@YA_NAEBUquat@@0@Z      000000014002eda0 f   audio_visualizer.obj
 0001:0002ddf0       ?SameOrientation@@YA_NAEBUquat@@0@Z 000000014002edf0 f   audio_visualizer.obj
 0001:0002df50       ?Dot@@YAMAEBUquat@@0@Z     000000014002ef50 f   audio_visualizer.obj
 0001:0002dfc0       ?LenSq@@YAMAEBUquat@@@Z    000000014002efc0 f   audio_visualizer.obj
 0001:0002e030       ?GetLength@@YAMAEBUquat@@@Z 000000014002f030 f   audio_visualizer.obj
 0001:0002e080       ?Normalize@@YAXAEAUquat@@@Z 000000014002f080 f   audio_visualizer.obj
 0001:0002e140       ?Normalized@@YA?AUquat@@AEBU1@@Z 000000014002f140 f   audio_visualizer.obj
 0001:0002e220       ?Conjugate@@YA?AUquat@@AEBU1@@Z 000000014002f220 f   audio_visualizer.obj
 0001:0002e2a0       ?Inverse@@YA?AUquat@@AEBU1@@Z 000000014002f2a0 f   audio_visualizer.obj
 0001:0002e380       ??D@YA?AUquat@@AEBU0@0@Z   000000014002f380 f   audio_visualizer.obj
 0001:0002e540       ??D@YA?AUv3@@AEBUquat@@AEBU0@@Z 000000014002f540 f   audio_visualizer.obj
 0001:0002e6b0       ?Mix@@YA?AUquat@@AEBU1@0M@Z 000000014002f6b0 f   audio_visualizer.obj
 0001:0002e730       ?Nlerp@@YA?AUquat@@AEBU1@0M@Z 000000014002f730 f   audio_visualizer.obj
 0001:0002e7a0       ??T@YA?AUquat@@AEBU0@M@Z   000000014002f7a0 f   audio_visualizer.obj
 0001:0002e890       ?Slerp@@YA?AUquat@@AEBU1@0M@Z 000000014002f890 f   audio_visualizer.obj
 0001:0002e960       ?LookRotation@@YA?AUquat@@AEBUv3@@0@Z 000000014002f960 f   audio_visualizer.obj
 0001:0002ea90       ?QuatToMat4@@YA?AUmat4@@AEBUquat@@@Z 000000014002fa90 f   audio_visualizer.obj
 0001:0002ec20       ?Mat4ToQuat@@YA?AUquat@@AEBUmat4@@@Z 000000014002fc20 f   audio_visualizer.obj
 0001:0002ed20       ?Combine@@YA?AUTransform@@AEBU1@0@Z 000000014002fd20 f   audio_visualizer.obj
 0001:0002ee70       ?Inverse@@YA?AUTransform@@AEBU1@@Z 000000014002fe70 f   audio_visualizer.obj
 0001:0002f040       ?Mix@@YA?AUTransform@@AEBU1@0M@Z 0000000140030040 f   audio_visualizer.obj
 0001:0002f180       ?TransformToMat4@@YA?AUmat4@@AEBUTransform@@@Z 0000000140030180 f   audio_visualizer.obj
 0001:0002f400       ?Mat4ToTransform@@YA?AUTransform@@AEBUmat4@@@Z 0000000140030400 f   audio_visualizer.obj
 0001:0002f6d0       ?TransformPoint@@YA?AUv3@@AEBUTransform@@AEBU1@@Z 00000001400306d0 f   audio_visualizer.obj
 0001:0002f7a0       ?TransformVector@@YA?AUv3@@AEBUTransform@@AEBU1@@Z 00000001400307a0 f   audio_visualizer.obj
 0001:0002f830       ?Rotate@@YA?AUmat4@@AEAU1@M@Z 0000000140030830 f   audio_visualizer.obj
 0001:0002f8c0       ?ResizeEquivalentAmount@@YAMMM@Z 00000001400308c0 f   audio_visualizer.obj
 0001:0002f900       ?ResizeEquivalentAmount@@YAMMMM@Z 0000000140030900 f   audio_visualizer.obj
 0001:0002f950       ?ResizeEquivalentAmount@@YA?AUv2@@U1@0@Z 0000000140030950 f   audio_visualizer.obj
 0001:0002f9d0       ?Hex2Int@@YAHD@Z           00000001400309d0 f   audio_visualizer.obj
 0001:0002fa40       ?Pow@@YAIHH@Z              0000000140030a40 f   audio_visualizer.obj
 0001:0002faa0       ?StringHex2Int@@YAHPEAD@Z  0000000140030aa0 f   audio_visualizer.obj
 0001:0002fb20       ?DrawRect@@YAXHHHHI@Z      0000000140030b20 f   audio_visualizer.obj
 0001:0002fbc0       ?DrawRect@@YAXUv3@@Uv2@@IM@Z 0000000140030bc0 f   audio_visualizer.obj
 0001:000301e0       ?DrawRect@@YAXUv3@@Uv2@@11PEAUrender_texture@@MW4render_blend_mode@@@Z 00000001400311e0 f   audio_visualizer.obj
 0001:00030d00       stbtt_BakeFontBitmap       0000000140031d00 f   audio_visualizer.obj
 0001:00030d80       stbtt_GetBakedQuad         0000000140031d80 f   audio_visualizer.obj
 0001:00030fb0       stbtt_GetScaledFontVMetrics 0000000140031fb0 f   audio_visualizer.obj
 0001:000310c0       stbtt_PackBegin            00000001400320c0 f   audio_visualizer.obj
 0001:00031270       stbtt_PackEnd              0000000140032270 f   audio_visualizer.obj
 0001:000312a0       stbtt_PackFontRange        00000001400322a0 f   audio_visualizer.obj
 0001:00031330       stbtt_PackFontRanges       0000000140032330 f   audio_visualizer.obj
 0001:00031590       stbtt_PackSetOversampling  0000000140032590 f   audio_visualizer.obj
 0001:00031620       stbtt_PackSetSkipMissingCodepoints 0000000140032620 f   audio_visualizer.obj
 0001:00031640       stbtt_GetPackedQuad        0000000140032640 f   audio_visualizer.obj
 0001:000318c0       stbtt_PackFontRangesGatherRects 00000001400328c0 f   audio_visualizer.obj
 0001:00031c10       stbtt_PackFontRangesPackRects 0000000140032c10 f   audio_visualizer.obj
 0001:00031c50       stbtt_PackFontRangesRenderIntoRects 0000000140032c50 f   audio_visualizer.obj
 0001:00032450       stbtt_GetNumberOfFonts     0000000140033450 f   audio_visualizer.obj
 0001:00032470       stbtt_GetFontOffsetForIndex 0000000140033470 f   audio_visualizer.obj
 0001:000324a0       stbtt_InitFont             00000001400334a0 f   audio_visualizer.obj
 0001:000324e0       stbtt_FindGlyphIndex       00000001400334e0 f   audio_visualizer.obj
 0001:00032af0       stbtt_ScaleForPixelHeight  0000000140033af0 f   audio_visualizer.obj
 0001:00032b70       stbtt_ScaleForMappingEmToPixels 0000000140033b70 f   audio_visualizer.obj
 0001:00032bd0       stbtt_GetFontVMetrics      0000000140033bd0 f   audio_visualizer.obj
 0001:00032c80       stbtt_GetFontVMetricsOS2   0000000140033c80 f   audio_visualizer.obj
 0001:00032d60       stbtt_GetFontBoundingBox   0000000140033d60 f   audio_visualizer.obj
 0001:00032e20       stbtt_GetCodepointHMetrics 0000000140033e20 f   audio_visualizer.obj
 0001:00032e70       stbtt_GetCodepointKernAdvance 0000000140033e70 f   audio_visualizer.obj
 0001:00032ee0       stbtt_GetCodepointBox      0000000140033ee0 f   audio_visualizer.obj
 0001:00032f40       stbtt_GetGlyphHMetrics     0000000140033f40 f   audio_visualizer.obj
 0001:000330b0       stbtt_GetGlyphKernAdvance  00000001400340b0 f   audio_visualizer.obj
 0001:00033130       stbtt_GetGlyphBox          0000000140034130 f   audio_visualizer.obj
 0001:00033260       stbtt_GetKerningTableLength 0000000140034260 f   audio_visualizer.obj
 0001:000332f0       stbtt_GetKerningTable      00000001400342f0 f   audio_visualizer.obj
 0001:00033460       stbtt_IsGlyphEmpty         0000000140034460 f   audio_visualizer.obj
 0001:00033520       stbtt_GetCodepointShape    0000000140034520 f   audio_visualizer.obj
 0001:00033560       stbtt_GetGlyphShape        0000000140034560 f   audio_visualizer.obj
 0001:000335c0       stbtt_FreeShape            00000001400345c0 f   audio_visualizer.obj
 0001:000335f0       stbtt_FindSVGDoc           00000001400345f0 f   audio_visualizer.obj
 0001:000336c0       stbtt_GetCodepointSVG      00000001400346c0 f   audio_visualizer.obj
 0001:00033700       stbtt_GetGlyphSVG          0000000140034700 f   audio_visualizer.obj
 0001:000337b0       stbtt_FreeBitmap           00000001400347b0 f   audio_visualizer.obj
 0001:000337e0       stbtt_GetCodepointBitmap   00000001400347e0 f   audio_visualizer.obj
 0001:00033870       stbtt_GetCodepointBitmapSubpixel 0000000140034870 f   audio_visualizer.obj
 0001:00033910       stbtt_MakeCodepointBitmap  0000000140034910 f   audio_visualizer.obj
 0001:000339a0       stbtt_MakeCodepointBitmapSubpixel 00000001400349a0 f   audio_visualizer.obj
 0001:00033a40       stbtt_MakeCodepointBitmapSubpixelPrefilter 0000000140034a40 f   audio_visualizer.obj
 0001:00033b20       stbtt_GetCodepointBitmapBox 0000000140034b20 f   audio_visualizer.obj
 0001:00033bb0       stbtt_GetCodepointBitmapBoxSubpixel 0000000140034bb0 f   audio_visualizer.obj
 0001:00033c50       stbtt_GetGlyphBitmap       0000000140034c50 f   audio_visualizer.obj
 0001:00033ce0       stbtt_GetGlyphBitmapSubpixel 0000000140034ce0 f   audio_visualizer.obj
 0001:00033fa0       stbtt_MakeGlyphBitmap      0000000140034fa0 f   audio_visualizer.obj
 0001:00034030       stbtt_MakeGlyphBitmapSubpixel 0000000140035030 f   audio_visualizer.obj
 0001:000341c0       stbtt_MakeGlyphBitmapSubpixelPrefilter 00000001400351c0 f   audio_visualizer.obj
 0001:00034300       stbtt_GetGlyphBitmapBox    0000000140035300 f   audio_visualizer.obj
 0001:00034390       stbtt_GetGlyphBitmapBoxSubpixel 0000000140035390 f   audio_visualizer.obj
 0001:00034540       stbtt_Rasterize            0000000140035540 f   audio_visualizer.obj
 0001:000346b0       stbtt_FreeSDF              00000001400356b0 f   audio_visualizer.obj
 0001:000346e0       stbtt_GetGlyphSDF          00000001400356e0 f   audio_visualizer.obj
 0001:00036040       stbtt_GetCodepointSDF      0000000140037040 f   audio_visualizer.obj
 0001:000360e0       stbtt_FindMatchingFont     00000001400370e0 f   audio_visualizer.obj
 0001:00036120       stbtt_CompareUTF8toUTF16_bigendian 0000000140037120 f   audio_visualizer.obj
 0001:00036160       stbtt_GetFontNameString    0000000140037160 f   audio_visualizer.obj
 0001:00044170       ?UpdateRender@@YAXPEAUplatform@@@Z 0000000140045170 f   audio_visualizer.obj
 0001:00044830       ?XInputGetStateStub@@YAKKPEAU_XINPUT_STATE@@@Z 0000000140045830 f   audio_visualizer.obj
 0001:00044850       ?XInputSetStateStub@@YAKKPEAU_XINPUT_VIBRATION@@@Z 0000000140045850 f   audio_visualizer.obj
 0001:00046590       ?UniformSetint@@YAXIPEAHI@Z 0000000140047590 f   audio_visualizer.obj
 0001:000465e0       ?UniformSetiv4@@YAXIPEAUiv4@@I@Z 00000001400475e0 f   audio_visualizer.obj
 0001:00046630       ?UniformSetiv2@@YAXIPEAUiv2@@I@Z 0000000140047630 f   audio_visualizer.obj
 0001:00046680       ?UniformSetfloat@@YAXIPEAMI@Z 0000000140047680 f   audio_visualizer.obj
 0001:000466d0       ?UniformSetv2@@YAXIPEAUv2@@I@Z 00000001400476d0 f   audio_visualizer.obj
 0001:00046720       ?UniformSetv3@@YAXIPEAUv3@@I@Z 0000000140047720 f   audio_visualizer.obj
 0001:00046770       ?UniformSetv4@@YAXIPEAUv4@@I@Z 0000000140047770 f   audio_visualizer.obj
 0001:000467c0       ?UniformSetquat@@YAXIPEAUquat@@I@Z 00000001400477c0 f   audio_visualizer.obj
 0001:00046be0       ?BeginOpenGL@@YAXUiv2@@@Z  0000000140047be0 f   audio_visualizer.obj
 0001:00046c90       ?BeginMode@@YAXUrender_camera@@@Z 0000000140047c90 f   audio_visualizer.obj
 0001:00046e60       ?u32toV4@@YA?AUv4@@I@Z     0000000140047e60 f   audio_visualizer.obj
 0001:00046f40       ?u32toV3@@YA?AUv3@@I@Z     0000000140047f40 f   audio_visualizer.obj
 0001:0004bfc0       ??$_snprintf_s@$0DOI@@@YAHAEAY0DOI@D_KPEBDZZ 000000014004cfc0 f i audio_visualizer.obj
 0001:0004c010       ??0Map@@QEAA@XZ            000000014004d010 f i audio_visualizer.obj
 0001:0004c060       ??0MemoryManager@@QEAA@XZ  000000014004d060 f i audio_visualizer.obj
 0001:0004c080       ??0Transform@@QEAA@AEBUv3@@AEBUquat@@0@Z 000000014004d080 f i audio_visualizer.obj
 0001:0004c0e0       ??0Transform@@QEAA@XZ      000000014004d0e0 f i audio_visualizer.obj
 0001:0004c160       ??0iv2@@QEAA@Uv2@@@Z       000000014004d160 f i audio_visualizer.obj
 0001:0004c190       ??0iv2@@QEAA@XZ            000000014004d190 f i audio_visualizer.obj
 0001:0004c1c0       ??0mat4@@QEAA@MMMMMMMMMMMMMMMM@Z 000000014004d1c0 f i audio_visualizer.obj
 0001:0004c2f0       ??0mat4@@QEAA@XZ           000000014004d2f0 f i audio_visualizer.obj
 0001:0004c3e0       ??0menu_token_collection@@QEAA@XZ 000000014004d3e0 f i audio_visualizer.obj
 0001:0004c400       ??0open_gl_rect@@QEAA@XZ   000000014004d400 f i audio_visualizer.obj
 0001:0004c400       ??0open_gl_texture@@QEAA@XZ 000000014004d400 f i audio_visualizer.obj
 0001:0004c420       ??0playing_sound@@QEAA@XZ  000000014004d420 f i audio_visualizer.obj
 0001:0004c470       ??0quat@@QEAA@MMMM@Z       000000014004d470 f i audio_visualizer.obj
 0001:0004c470       ??0v4@@QEAA@MMMM@Z         000000014004d470 f i audio_visualizer.obj
 0001:0004c4d0       ??0quat@@QEAA@XZ           000000014004d4d0 f i audio_visualizer.obj
 0001:0004c520       ??0render_piece@@QEAA@W4render_piece_type@@Uv3@@Uv2@@MW4render_blend_mode@@22IPEAUrender_texture@@@Z 000000014004d520 f i audio_visualizer.obj
 0001:0004c5c0       ??0render_piece@@QEAA@XZ   000000014004d5c0 f i audio_visualizer.obj
 0001:0004c620       ??0render_shader@@QEAA@XZ  000000014004d620 f i audio_visualizer.obj
 0001:0004c660       ??0v2@@QEAA@H@Z            000000014004d660 f i audio_visualizer.obj
 0001:0004c690       ??0v2@@QEAA@HH@Z           000000014004d690 f i audio_visualizer.obj
 0001:0004c6d0       ??0v2@@QEAA@M@Z            000000014004d6d0 f i audio_visualizer.obj
 0001:0004c700       ??0v2@@QEAA@MM@Z           000000014004d700 f i audio_visualizer.obj
 0001:0004c740       ??0v2@@QEAA@XZ             000000014004d740 f i audio_visualizer.obj
 0001:0004c770       ??0v3@@QEAA@MMM@Z          000000014004d770 f i audio_visualizer.obj
 0001:0004c7c0       ??0v3@@QEAA@Uv2@@M@Z       000000014004d7c0 f i audio_visualizer.obj
 0001:0004c810       ??0v3@@QEAA@XZ             000000014004d810 f i audio_visualizer.obj
 0001:0004c850       ??8@YAHAEBUv3@@0@Z         000000014004d850 f i audio_visualizer.obj
 0001:0004c8b0       ??8@YA_NAEBUv2@@0@Z        000000014004d8b0 f i audio_visualizer.obj
 0001:0004c8f0       ??9@YA_NAEBUv2@@0@Z        000000014004d8f0 f i audio_visualizer.obj
 0001:0004c930       ??Arender_piece_group@@QEAAPEAUrender_piece@@H@Z 000000014004d930 f i audio_visualizer.obj
 0001:0004c950       ??D@YA?AUv2@@AEBU0@0@Z     000000014004d950 f i audio_visualizer.obj
 0001:0004c9a0       ??D@YA?AUv3@@AEBU0@0@Z     000000014004d9a0 f i audio_visualizer.obj
 0001:0004ca20       ??D@YA?AUv3@@AEBU0@M@Z     000000014004da20 f i audio_visualizer.obj
 0001:0004ca90       ??G@YA?AUv2@@AEBU0@0@Z     000000014004da90 f i audio_visualizer.obj
 0001:0004cae0       ??G@YA?AUv3@@AEBU0@0@Z     000000014004dae0 f i audio_visualizer.obj
 0001:0004cb60       ??H@YA?AUstrinq@@AEBU0@H@Z 000000014004db60 f i audio_visualizer.obj
 0001:0004cbf0       ??H@YA?AUstrinq@@AEBU0@PEBD@Z 000000014004dbf0 f i audio_visualizer.obj
 0001:0004cc80       ??H@YA?AUv2@@AEBU0@0@Z     000000014004dc80 f i audio_visualizer.obj
 0001:0004ccd0       ??H@YA?AUv3@@AEBU0@0@Z     000000014004dcd0 f i audio_visualizer.obj
 0001:0004cd50       ??K@YA?AUv2@@AEBU0@0@Z     000000014004dd50 f i audio_visualizer.obj
 0001:0004cda0       ??K@YA?AUv2@@AEBU0@M@Z     000000014004dda0 f i audio_visualizer.obj
 0001:0004cdf0       ??_H@YAXPEAX_K1P6APEAX0@Z@Z 000000014004ddf0 f i audio_visualizer.obj
 0001:0004ce50       ?AssetInitTag@@YAXPEAUasset@@PEBDI1@Z 000000014004de50 f i audio_visualizer.obj
 0001:0004cf20       ?AttribSetPointerv2@@YAXI@Z 000000014004df20 f i audio_visualizer.obj
 0001:0004cf60       ?AttribSetPointerv3@@YAXI@Z 000000014004df60 f i audio_visualizer.obj
 0001:0004cfa0       ?AttributeBindBuffer@@YAXPEAUrender_attribute@@I@Z 000000014004dfa0 f i audio_visualizer.obj
 0001:0004cfd0       ?IndexBufferInit@@YAXPEAUrender_index_buffer@@@Z 000000014004dfd0 f i audio_visualizer.obj
 0001:0004cfd0       ?AttributeInit@@YAXPEAUrender_attribute@@@Z 000000014004dfd0 f i audio_visualizer.obj
 0001:0004d000       ?AttributeUnBindFrom@@YAXPEAUrender_attribute@@I@Z 000000014004e000 f i audio_visualizer.obj
 0001:0004d040       ?Clear@@YAXPEAUstring_copy_buffer@@@Z 000000014004e040 f i audio_visualizer.obj
 0001:0004d070       ?ClearPieceGroup@@YAXPEAUrender_piece_group@@@Z 000000014004e070 f i audio_visualizer.obj
 0001:0004d0c0       ?CoordsInRect@@YA_NUv2@@00@Z 000000014004e0c0 f i audio_visualizer.obj
 0001:0004d120       ?Cross@@YA?AUv3@@AEBU1@0@Z 000000014004e120 f i audio_visualizer.obj
 0001:0004d1e0       ?DecrActive@@YAXPEAUmenu@@@Z 000000014004e1e0 f i audio_visualizer.obj
 0001:0004d250       ?DecrementCursorPosition@@YAXPEAUmenu_component_textbox@@@Z 000000014004e250 f i audio_visualizer.obj
 0001:0004d280       ?DestroyEntireFile@@YAXAEAUentire_file@@@Z 000000014004e280 f i audio_visualizer.obj
 0001:0004d2a0       ?DestroyStrinq@@YAXPEAUstrinq@@@Z 000000014004e2a0 f i audio_visualizer.obj
 0001:0004d2c0       ?Dot@@YAMAEBUv3@@0@Z       000000014004e2c0 f i audio_visualizer.obj
 0001:0004d310       ?Equal@@YA_NPEADPEBD@Z     000000014004e310 f i audio_visualizer.obj
 0001:0004d340       ?Equal@@YA_NPEBD0@Z        000000014004e340 f i audio_visualizer.obj
 0001:0004d3d0       ?FontStringPrint@@YAXPEAUfont_string@@Uv2@@@Z 000000014004e3d0 f i audio_visualizer.obj
 0001:0004d430       ?GetChunkData@@YAPEAXUriff_iterator@@@Z 000000014004e430 f i audio_visualizer.obj
 0001:0004d460       ?GetChunkDataSize@@YAIUriff_iterator@@@Z 000000014004e460 f i audio_visualizer.obj
 0001:0004d490       ?GetController@@YAPEAUplatform_controller_input@@PEAUplatform_input@@I@Z 000000014004e490 f i audio_visualizer.obj
 0001:0004d4e0       ?save_state@?$c_string_character_source@_W@__crt_strtox@@QEBAPEB_WXZ 000000014004e4e0 f i libucrtd:atox.obj
 0001:0004d4e0       ?get@?$__crt_unique_heap_ptr@DU__crt_public_free_policy@@@@QEBAPEADXZ 000000014004e4e0 f i libvcruntimed:std_exception.obj
 0001:0004d4e0       ?get@?$__crt_unique_heap_ptr@U__vcrt_ptd@@U__crt_internal_free_policy@@@@QEBAPEAU__vcrt_ptd@@XZ 000000014004e4e0 f i libvcruntimed:per_thread_data.obj
 0001:0004d4e0       ?get@?$__crt_unique_heap_ptr@PEADU__crt_internal_free_policy@@@@QEBAPEAPEADXZ 000000014004e4e0 f i libucrtd:argv_parsing.obj
 0001:0004d4e0       ?get@?$__crt_scoped_stack_ptr@_W@@QEBAPEA_WXZ 000000014004e4e0 f i libucrtd:getstringtypea.obj
 0001:0004d4e0       ?GetData@?$DynArray@Uv2@@@@QEAAPEAXXZ 000000014004e4e0 f i audio_visualizer.obj
 0001:0004d4e0       ?get@?$__crt_unique_heap_ptr@DU__crt_internal_free_policy@@@@QEBAPEADXZ 000000014004e4e0 f i libvcruntimed:std_type_info.obj
 0001:0004d4e0       ?get@?$__crt_unique_heap_ptr@U__crt_lowio_handle_data@@U__crt_internal_free_policy@@@@QEBAPEAU__crt_lowio_handle_data@@XZ 000000014004e4e0 f i libucrtd:osfinfo.obj
 0001:0004d4e0       ?GetData@?$DynArray@I@@QEAAPEAXXZ 000000014004e4e0 f i audio_visualizer.obj
 0001:0004d4e0       ?get@?$__crt_unique_heap_ptr@U__acrt_ptd@@U__crt_internal_free_policy@@@@QEBAPEAU__acrt_ptd@@XZ 000000014004e4e0 f i libucrtd:per_thread_data.obj
 0001:0004d4e0       ?get@?$__crt_unique_handle_t@U__crt_findfile_traits@@@@QEBAPEAXXZ 000000014004e4e0 f i libucrtd:argv_wildcards.obj
 0001:0004d4e0       ?get@?$__crt_unique_heap_ptr@EU__crt_internal_free_policy@@@@QEBAPEAEXZ 000000014004e4e0 f i libucrtd:input.obj
 0001:0004d4e0       ?get@?$__crt_unique_heap_ptr@U__crt_multibyte_data@@U__crt_internal_free_policy@@@@QEBAPEAU__crt_multibyte_data@@XZ 000000014004e4e0 f i libucrtd:wsetlocale.obj
 0001:0004d4e0       ?save_state@?$c_string_character_source@D@__crt_strtox@@QEBAPEBDXZ 000000014004e4e0 f i libucrtd:atox.obj
 0001:0004d4e0       ?GetData@?$DynArray@Uv3@@@@QEAAPEAXXZ 000000014004e4e0 f i audio_visualizer.obj
 0001:0004d4e0       ?get@?$__crt_unique_handle_t@U__crt_hmodule_traits@@@@QEBAPEAUHINSTANCE__@@XZ 000000014004e4e0 f i libucrtd:exit.obj
 0001:0004d4e0       ?public_stream@__crt_stdio_stream@@QEBAPEAU_iobuf@@XZ 000000014004e4e0 f i libucrtd:fopen.obj
 0001:0004d4e0       ??C__crt_stdio_stream@@QEBAPEAU__crt_stdio_stream_data@@XZ 000000014004e4e0 f i libucrtd:_file.obj
 0001:0004d4f0       ?GetDim@@YA?AUv2@@PEAUplatform@@@Z 000000014004e4f0 f i audio_visualizer.obj
 0001:0004d530       ?GetFont@@YAPEAUfont@@PEAUassets@@H@Z 000000014004e530 f i audio_visualizer.obj
 0001:0004d550       ?GetFont@@YAPEAUfont@@PEAUassets@@PEBD@Z 000000014004e550 f i audio_visualizer.obj
 0001:0004d5d0       ?GetLength@@YAHH@Z         000000014004e5d0 f i audio_visualizer.obj
 0001:0004d620       ?GetLength@@YAHPEBD@Z      000000014004e620 f i audio_visualizer.obj
 0001:0004d660       ?GetResizableBitmap@@YAPEAUresizable_bitmap@@PEAUassets@@H@Z 000000014004e660 f i audio_visualizer.obj
 0001:0004d680       ?GetResizeFactor@@YA?AUv2@@U1@0@Z 000000014004e680 f i audio_visualizer.obj
 0001:0004d6c0       ?GetSize@?$DynArray@Uv2@@@@QEAAIXZ 000000014004e6c0 f i audio_visualizer.obj
 0001:0004d6c0       ?GetSize@?$DynArray@I@@QEAAIXZ 000000014004e6c0 f i audio_visualizer.obj
 0001:0004d6c0       ?GetSize@?$DynArray@Uv3@@@@QEAAIXZ 000000014004e6c0 f i audio_visualizer.obj
 0001:0004d6d0       ?GetSound@@YAPEAUloaded_sound@@PEAUassets@@H@Z 000000014004e6d0 f i audio_visualizer.obj
 0001:0004d6f0       ?GetTopLeftCornerCoords@@YA?AUv2@@PEAUplatform@@@Z 000000014004e6f0 f i audio_visualizer.obj
 0001:0004d750       ?GetType@@YAIUriff_iterator@@@Z 000000014004e750 f i audio_visualizer.obj
 0001:0004d780       ?IncrActive@@YAXPEAUmenu@@@Z 000000014004e780 f i audio_visualizer.obj
 0001:0004d7f0       ?IncrementCursorPosition@@YAXPEAUmenu_component_textbox@@@Z 000000014004e7f0 f i audio_visualizer.obj
 0001:0004d830       ?IndexBufferSet@@YAXPEAUrender_index_buffer@@AEAU?$DynArray@I@@@Z 000000014004e830 f i audio_visualizer.obj
 0001:0004d870       ?IndexBufferSet@@YAXPEAUrender_index_buffer@@PEAII@Z 000000014004e870 f i audio_visualizer.obj
 0001:0004d8e0       ?IntToString@@YAPEADH@Z    000000014004e8e0 f i audio_visualizer.obj
 0001:0004d940       ?IsValid@@YAHUriff_iterator@@@Z 000000014004e940 f i audio_visualizer.obj
 0001:0004d980       ?KeyDown@@YA_NPEAUplatform_button_state@@@Z 000000014004e980 f i audio_visualizer.obj
 0001:0004d9b0       ?KeyPressed@@YA_NPEAUplatform_button_state@@PEAUplatform_input@@@Z 000000014004e9b0 f i audio_visualizer.obj
 0001:0004da40       ?LenSq@@YAMAEBUv3@@@Z      000000014004ea40 f i audio_visualizer.obj
 0001:0004da90       ?Lerp@@YA?AUv3@@AEBU1@0M@Z 000000014004ea90 f i audio_visualizer.obj
 0001:0004db50       ?MallocClear@@YAPEAXH@Z    000000014004eb50 f i audio_visualizer.obj
 0001:0004db90       ?MenuAddLogo@@YAPEAUmenu_component@@PEAUmenu@@Uv2@@1PEAUmenu_component_logo@@@Z 000000014004eb90 f i audio_visualizer.obj
 0001:0004dbd0       ?NextChar@@YAXPEAUstring_copy_buffer@@D@Z 000000014004ebd0 f i audio_visualizer.obj
 0001:0004dc00       ?NextChunk@@YA?AUriff_iterator@@U1@@Z 000000014004ec00 f i audio_visualizer.obj
 0001:0004dc70       ?Normalize@@YAXAEAUv3@@@Z  000000014004ec70 f i audio_visualizer.obj
 0001:0004dd10       ?Normalized@@YA?AUv3@@AEBU1@@Z 000000014004ed10 f i audio_visualizer.obj
 0001:0004dde0       ?OnKeyDown@@YA_NPEAUplatform_button_state@@@Z 000000014004ede0 f i audio_visualizer.obj
 0001:0004de10       ?ParseChunkAt@@YA?AUriff_iterator@@PEAX0@Z 000000014004ee10 f i audio_visualizer.obj
 0001:0004de60       ?PlatformSetCursorMode@@YAXPEAUplatform_mouse_input@@W4platform_cursor_mode@@@Z 000000014004ee60 f i audio_visualizer.obj
 0001:0004dea0       ?Push@@YAXUrender_piece@@@Z 000000014004eea0 f i audio_visualizer.obj
 0001:0004def0       ?Push@@YAXUv3@@Uv2@@11PEAUrender_texture@@MW4render_blend_mode@@@Z 000000014004eef0 f i audio_visualizer.obj
 0001:0004dfc0       ?Push@@YAXUv3@@Uv2@@IM@Z   000000014004efc0 f i audio_visualizer.obj
 0001:0004e0c0       ?Push@@YAXUv3@@Uv2@@PEAUrender_texture@@MW4render_blend_mode@@@Z 000000014004f0c0 f i audio_visualizer.obj
 0001:0004e1c0       ?Resize@?$DynArray@Uv3@@@@QEAAXHAEBUv3@@@Z 000000014004f1c0 f i audio_visualizer.obj
 0001:0004e210       ?S@@YA?AUstrinq@@XZ        000000014004f210 f i audio_visualizer.obj
 0001:0004e260       ?ShaderBind@@YAXPEAUrender_shader@@@Z 000000014004f260 f i audio_visualizer.obj
 0001:0004e280       ?ShaderGetAttribute@@YAIPEAUrender_shader@@PEBD@Z 000000014004f280 f i audio_visualizer.obj
 0001:0004e2b0       ?ShaderGetUniform@@YAIPEAUrender_shader@@PEBD@Z 000000014004f2b0 f i audio_visualizer.obj
 0001:0004e2e0       ?ShaderUnBind@@YAXPEAUrender_shader@@@Z 000000014004f2e0 f i audio_visualizer.obj
 0001:0004e300       ?TextureDestroy@@YAXPEAUrender_texture@@@Z 000000014004f300 f i audio_visualizer.obj
 0001:0004e330       ?TextureInit@@YAXPEAUrender_texture@@PEAUassets@@@Z 000000014004f330 f i audio_visualizer.obj
 0001:0004e360       ?TextureInit@@YAXPEAUrender_texture@@PEAUassets@@H@Z 000000014004f360 f i audio_visualizer.obj
 0001:0004e3a0       ?TextureInit@@YAXPEAUrender_texture@@PEAUloaded_bitmap@@@Z 000000014004f3a0 f i audio_visualizer.obj
 0001:0004e3d0       ?Toggle@@YAXPEAUqlib_bool@@@Z 000000014004f3d0 f i audio_visualizer.obj
 0001:0004e410       ?UniformSetmat4@@YAXIPEAUmat4@@I@Z 000000014004f410 f i audio_visualizer.obj
 0001:0004e450       ?UpdateActiveIndex@@YAXPEAUmenu@@@Z 000000014004f450 f i audio_visualizer.obj
 0001:0004e4c0       ?UpdateInputInfo@@YAXPEAUplatform_input@@@Z 000000014004f4c0 f i audio_visualizer.obj
 0001:0004e670       ?UpdateMenu@@YAXPEAUmenu@@Uv2@@PEAUassets@@@Z 000000014004f670 f i audio_visualizer.obj
 0001:0004e6b0       ?Win32GetSecondsElapsed@@YAMT_LARGE_INTEGER@@0@Z 000000014004f6b0 f i audio_visualizer.obj
 0001:0004e6f0       ?Win32GetWallClock@@YA?AT_LARGE_INTEGER@@XZ 000000014004f6f0 f i audio_visualizer.obj
 0001:0004e710       ?WorkQueueAddEntry@@YAXPEAUplatform_work_queue@@P6AX0PEAX@Z1@Z 000000014004f710 f i audio_visualizer.obj
 0001:0004e740       ?WorkQueueCompleteAllWork@@YAXPEAUplatform_work_queue@@@Z 000000014004f740 f i audio_visualizer.obj
 0001:0004e760       ?createRGBA@@YAKHHHH@Z     000000014004f760 f i audio_visualizer.obj
 0001:0004e7b0       ?glDraw@@YAXAEAUrender_index_buffer@@W4render_draw_mode@@@Z 000000014004f7b0 f i audio_visualizer.obj
 0001:0004e810       ?push_back@?$DynArray@I@@QEAAXAEBI@Z 000000014004f810 f i audio_visualizer.obj
 0001:0004e900       ?push_back@?$DynArray@Uv2@@@@QEAAXAEBUv2@@@Z 000000014004f900 f i audio_visualizer.obj
 0001:0004e9f0       ?push_back@?$DynArray@Uv3@@@@QEAAXAEBUv3@@@Z 000000014004f9f0 f i audio_visualizer.obj
 0001:0004eae0       __local_stdio_printf_options 000000014004fae0 f i audio_visualizer.obj
 0001:0004eaf0       __local_stdio_scanf_options 000000014004faf0 f i audio_visualizer.obj
 0001:0004eb00       _vfprintf_l                000000014004fb00 f i audio_visualizer.obj
 0001:0004eb50       _vsnprintf_l               000000014004fb50 f i audio_visualizer.obj
 0001:0004ebd0       _vsnprintf_s               000000014004fbd0 f i audio_visualizer.obj
 0001:0004ec20       _vsnprintf_s_l             000000014004fc20 f i audio_visualizer.obj
 0001:0004eca0       _vsprintf_l                000000014004fca0 f i audio_visualizer.obj
 0001:0004ecf0       _vsscanf_s_l               000000014004fcf0 f i audio_visualizer.obj
 0001:0004ed50       fabsf                      000000014004fd50 f i audio_visualizer.obj
 0001:0004ed70       fprintf                    000000014004fd70 f i audio_visualizer.obj
 0001:0004edc0       sprintf                    000000014004fdc0 f i audio_visualizer.obj
 0001:0004ee10       sscanf_s                   000000014004fe10 f i audio_visualizer.obj
 0001:0004ee60       vsscanf_s                  000000014004fe60 f i audio_visualizer.obj
 0001:0004ee90       __GSHandlerCheck           000000014004fe90 f   LIBCMTD:gshandler.obj
 0001:0004eed0       __GSHandlerCheckCommon     000000014004fed0 f   LIBCMTD:gshandler.obj
 0001:0004efd0       __GSHandlerCheck_SEH       000000014004ffd0 f   LIBCMTD:gshandlerseh.obj
 0001:0004f0a0       __chkstk                   00000001400500a0 f   LIBCMTD:chkstk.obj
 0001:0004f0a0       _alloca_probe              00000001400500a0 f   LIBCMTD:chkstk.obj
 0001:0004f100       __security_check_cookie    0000000140050100 f   LIBCMTD:amdsecgs.obj
 0001:0004f3d0       ?configure_argv@__scrt_narrow_argv_policy@@SAHXZ 00000001400503d0 f i LIBCMTD:exe_main.obj
 0001:0004f3f0       ?initialize_environment@__scrt_narrow_environment_policy@@SAHXZ 00000001400503f0 f i LIBCMTD:exe_main.obj
 0001:0004f440       ?set_app_type@__scrt_main_policy@@SAXXZ 0000000140050440 f i LIBCMTD:exe_main.obj
 0001:0004f460       ?set_commode@__scrt_file_policy@@SAXXZ 0000000140050460 f i LIBCMTD:exe_main.obj
 0001:0004f480       ?set_fmode@__scrt_file_policy@@SAXXZ 0000000140050480 f i LIBCMTD:exe_main.obj
 0001:0004f4a0       mainCRTStartup             00000001400504a0 f   LIBCMTD:exe_main.obj
 0001:0004f4c0       __raise_securityfailure    00000001400504c0 f   LIBCMTD:gs_report.obj
 0001:0004f500       __report_gsfailure         0000000140050500 f   LIBCMTD:gs_report.obj
 0001:0004f5e0       __report_rangecheckfailure 00000001400505e0 f   LIBCMTD:gs_report.obj
 0001:0004f600       __report_securityfailure   0000000140050600 f   LIBCMTD:gs_report.obj
 0001:0004f960       NtCurrentTeb               0000000140050960 f i LIBCMTD:utility.obj
 0001:0004f970       __scrt_acquire_startup_lock 0000000140050970 f   LIBCMTD:utility.obj
 0001:0004f9e0       __scrt_initialize_crt      00000001400509e0 f   LIBCMTD:utility.obj
 0001:0004fa30       __scrt_initialize_onexit_tables 0000000140050a30 f   LIBCMTD:utility.obj
 0001:0004fb40       __scrt_is_nonwritable_in_current_image 0000000140050b40 f   LIBCMTD:utility.obj
 0001:0004fbd0       __scrt_release_startup_lock 0000000140050bd0 f   LIBCMTD:utility.obj
 0001:0004fc00       __scrt_uninitialize_crt    0000000140050c00 f   LIBCMTD:utility.obj
 0001:0004fc40       _onexit                    0000000140050c40 f   LIBCMTD:utility.obj
 0001:0004fcc0       atexit                     0000000140050cc0 f   LIBCMTD:utility.obj
 0001:0004fdc0       __security_init_cookie     0000000140050dc0 f   LIBCMTD:gs_support.obj
 0001:0004fe40       ?get_current_state_index@__crt_state_management@@YA_KAEBV__crt_scoped_get_last_error_reset@@@Z 0000000140050e40 f   libucrtd:per_thread_data.obj
 0001:0004fe40       _matherr                   0000000140050e40 f   LIBCMTD:matherr.obj
 0001:0004fe50       _get_startup_argv_mode     0000000140050e50 f   LIBCMTD:argv_mode.obj
 0001:0004fe60       _get_startup_thread_locale_mode 0000000140050e60 f   LIBCMTD:thread_locale.obj
 0001:0004fe60       _get_startup_commit_mode   0000000140050e60 f   LIBCMTD:commit_mode.obj
 0001:0004fe60       __scrt_initialize_winrt    0000000140050e60 f   LIBCMTD:utility_desktop.obj
 0001:0004fe60       ?get_current_state_index@__crt_state_management@@YA_KXZ 0000000140050e60 f   libucrtd:matherr.obj
 0001:0004fe60       ?get_invalid_value@__crt_hmodule_traits@@SAPEAUHINSTANCE__@@XZ 0000000140050e60 f   libucrtd:exit.obj
 0001:0004fe60       _get_startup_new_mode      0000000140050e60 f   LIBCMTD:new_mode.obj
 0001:0004fe60       __scrt_stub_for_initialize_mta 0000000140050e60 f   LIBCMTD:utility_desktop.obj
 0001:0004fe60       __scrt_exe_initialize_mta  0000000140050e60 f   LIBCMTD:utility_desktop.obj
 0001:0004fe70       _get_startup_file_mode     0000000140050e70 f   LIBCMTD:file_mode.obj
 0001:0004fe80       ?__scrt_initialize_type_info@@YAXXZ 0000000140050e80 f   LIBCMTD:tncleanup.obj
 0001:0004fea0       _should_initialize_environment 0000000140050ea0 f   LIBCMTD:env_mode.obj
 0001:0004feb0       _initialize_denormal_control 0000000140050eb0 f   LIBCMTD:denormal_control.obj
 0001:0004feb0       _initialize_invalid_parameter_handler 0000000140050eb0 f   LIBCMTD:invalid_parameter_handler.obj
 0001:0004fec0       __scrt_initialize_default_local_stdio_options 0000000140050ec0 f   LIBCMTD:default_local_stdio_options.obj
 0001:0004ff10       __scrt_is_user_matherr_present 0000000140050f10 f   LIBCMTD:matherr_detection.obj
 0001:0004ff40       __scrt_get_dyn_tls_init_callback 0000000140050f40 f   LIBCMTD:dyn_tls_init.obj
 0001:0004ff50       __scrt_get_dyn_tls_dtor_callback 0000000140050f50 f   LIBCMTD:dyn_tls_dtor.obj
 0001:0004ff60       __crt_debugger_hook        0000000140050f60 f   LIBCMTD:utility_desktop.obj
 0001:0004ff70       __scrt_fastfail            0000000140050f70 f   LIBCMTD:utility_desktop.obj
 0001:00050110       __scrt_initialize_mta      0000000140051110 f   LIBCMTD:utility_desktop.obj
 0001:00050120       __scrt_is_managed_app      0000000140051120 f   LIBCMTD:utility_desktop.obj
 0001:000501d0       __scrt_set_unhandled_exception_filter 00000001400511d0 f   LIBCMTD:utility_desktop.obj
 0001:000501f0       __scrt_unhandled_exception_filter 00000001400511f0 f   LIBCMTD:utility_desktop.obj
 0001:00050290       _RTC_Initialize            0000000140051290 f   LIBCMTD:initsect.obj
 0001:000502e0       _RTC_Terminate             00000001400512e0 f   LIBCMTD:initsect.obj
 0001:00050330       ??1?$__crt_simd_cleanup_guard@$0A@@@QEAA@XZ 0000000140051330 f i libucrtd:strnlen.obj
 0001:00050330       _guard_check_icall_nop     0000000140051330 f i LIBCMTD:guard_support.obj
 0001:00050330       ??1scoped_global_state_reset@__crt_state_management@@QEAA@XZ 0000000140051330 f i libucrtd:onexit.obj
 0001:00050340       ReadNoFence64              0000000140051340 f i LIBCMTD:guard_support.obj
 0001:00050360       ReadPointerNoFence         0000000140051360 f i LIBCMTD:guard_support.obj
 0001:00050380       _guard_icall_checks_enforced 0000000140051380 f i LIBCMTD:guard_support.obj
 0001:000503c0       __isa_available_init       00000001400513c0 f   LIBCMTD:cpu_disp.obj
 0001:00050760       __scrt_is_ucrt_dll_in_use  0000000140051760 f   LIBCMTD:ucrt_detection.obj
 0001:00050790       __C_specific_handler       0000000140051790 f   libvcruntimed:riscchandler.obj
 0001:00050c00       __vcrt_initialize          0000000140051c00 f   libvcruntimed:initialization.obj
 0001:00050c40       __vcrt_uninitialize        0000000140051c40 f   libvcruntimed:initialization.obj
 0001:00050c60       ??$?RU__vcrt_ptd@@@__crt_internal_free_policy@@QEBAXQEBU__vcrt_ptd@@@Z 0000000140051c60 f i libvcruntimed:per_thread_data.obj
 0001:00050c60       ??$?RD@__crt_internal_free_policy@@QEBAXQEBD@Z 0000000140051c60 f i libvcruntimed:std_type_info.obj
 0001:00050c60       ??$?RP6AXXZ@__crt_internal_free_policy@@QEBAXQEBQ6AXXZ@Z 0000000140051c60 f i libucrtd:onexit.obj
 0001:00050c60       ??$?RPEAU__crt_stdio_stream_data@@@__crt_internal_free_policy@@QEBAXQEBQEAU__crt_stdio_stream_data@@@Z 0000000140051c60 f i libucrtd:_file.obj
 0001:00050c60       ??$?RU__acrt_ptd@@@__crt_internal_free_policy@@QEBAXQEBU__acrt_ptd@@@Z 0000000140051c60 f i libucrtd:per_thread_data.obj
 0001:00050c60       ??$?RU__crt_lowio_handle_data@@@__crt_internal_free_policy@@QEBAXQEBU__crt_lowio_handle_data@@@Z 0000000140051c60 f i libucrtd:osfinfo.obj
 0001:00050c60       ??$?RPEAD@__crt_internal_free_policy@@QEBAXQEBQEAD@Z 0000000140051c60 f i libucrtd:argv_parsing.obj
 0001:00050c60       ??$?RU__crt_multibyte_data@@@__crt_internal_free_policy@@QEBAXQEBU__crt_multibyte_data@@@Z 0000000140051c60 f i libucrtd:wsetlocale.obj
 0001:00050c60       ??$?RU__crt_stdio_stream_data@@@__crt_internal_free_policy@@QEBAXQEBU__crt_stdio_stream_data@@@Z 0000000140051c60 f i libucrtd:stream.obj
 0001:00050c60       ??$?RE@__crt_internal_free_policy@@QEBAXQEBE@Z 0000000140051c60 f i libucrtd:input.obj
 0001:00050c90       ??0?$__crt_unique_handle_t@U__crt_hmodule_traits@@@@QEAA@QEAUHINSTANCE__@@@Z 0000000140051c90 f i libucrtd:exit.obj
 0001:00050c90       ??0?$__crt_unique_heap_ptr@PEAU__crt_stdio_stream_data@@U__crt_internal_free_policy@@@@QEAA@QEAPEAU__crt_stdio_stream_data@@@Z 0000000140051c90 f i libucrtd:_file.obj
 0001:00050c90       ??0?$__crt_unique_heap_ptr@DU__crt_public_free_policy@@@@QEAA@QEAD@Z 0000000140051c90 f i libvcruntimed:std_exception.obj
 0001:00050c90       ??0?$string_output_adapter@D@__crt_stdio_output@@QEAA@QEAU?$string_output_adapter_context@D@1@@Z 0000000140051c90 f i libucrtd:output.obj
 0001:00050c90       ??0?$string_output_adapter@_W@__crt_stdio_output@@QEAA@QEAU?$string_output_adapter_context@_W@1@@Z 0000000140051c90 f i libucrtd:output.obj
 0001:00050c90       ??0?$__crt_unique_heap_ptr@U__crt_multibyte_data@@U__crt_internal_free_policy@@@@QEAA@QEAU__crt_multibyte_data@@@Z 0000000140051c90 f i libucrtd:wsetlocale.obj
 0001:00050c90       ??0?$__crt_unique_heap_ptr@U__crt_lowio_handle_data@@U__crt_internal_free_policy@@@@QEAA@QEAU__crt_lowio_handle_data@@@Z 0000000140051c90 f i libucrtd:osfinfo.obj
 0001:00050c90       ??0?$__crt_unique_heap_ptr@U__acrt_ptd@@U__crt_internal_free_policy@@@@QEAA@QEAU__acrt_ptd@@@Z 0000000140051c90 f i libucrtd:per_thread_data.obj
 0001:00050c90       ??0?$__crt_unique_handle_t@U__crt_findfile_traits@@@@QEAA@QEAX@Z 0000000140051c90 f i libucrtd:argv_wildcards.obj
 0001:00050c90       ??0?$__crt_unique_heap_ptr@U__vcrt_ptd@@U__crt_internal_free_policy@@@@QEAA@QEAU__vcrt_ptd@@@Z 0000000140051c90 f i libvcruntimed:per_thread_data.obj
 0001:00050c90       ??0?$__crt_unique_heap_ptr@PEADU__crt_internal_free_policy@@@@QEAA@QEAPEAD@Z 0000000140051c90 f i libucrtd:argv_parsing.obj
 0001:00050c90       ??0?$__crt_scoped_stack_ptr@_W@@QEAA@U?$__crt_scoped_stack_ptr_tag@_W@@@Z 0000000140051c90 f i libucrtd:getstringtypea.obj
 0001:00050c90       ??0?$__crt_unique_heap_ptr@DU__crt_internal_free_policy@@@@QEAA@QEAD@Z 0000000140051c90 f i libvcruntimed:std_type_info.obj
 0001:00050c90       ??0__crt_stdio_stream@@QEAA@QEAU_iobuf@@@Z 0000000140051c90 f i libucrtd:_file.obj
 0001:00050c90       ??0?$__crt_scoped_stack_ptr_tag@_W@@QEAA@QEA_W@Z 0000000140051c90 f i libucrtd:getstringtypea.obj
 0001:00050c90       ??0?$__crt_unique_heap_ptr@P6AXXZU__crt_internal_free_policy@@@@QEAA@QEAP6AXXZ@Z 0000000140051c90 f i libucrtd:onexit.obj
 0001:00050c90       ??0?$__crt_unique_heap_ptr@EU__crt_internal_free_policy@@@@QEAA@QEAE@Z 0000000140051c90 f i libucrtd:input.obj
 0001:00050c90       ??0?$__crt_unique_heap_ptr@U__crt_stdio_stream_data@@U__crt_internal_free_policy@@@@QEAA@QEAU__crt_stdio_stream_data@@@Z 0000000140051c90 f i libucrtd:stream.obj
 0001:00050c90       ??0__crt_stdio_stream@@QEAA@QEAU__crt_stdio_stream_data@@@Z 0000000140051c90 f i libucrtd:closeall.obj
 0001:00050cb0       ??1?$__crt_unique_heap_ptr@PEAU__crt_stdio_stream_data@@U__crt_internal_free_policy@@@@QEAA@XZ 0000000140051cb0 f i libucrtd:_file.obj
 0001:00050cb0       ??1?$__crt_unique_heap_ptr@U__crt_multibyte_data@@U__crt_internal_free_policy@@@@QEAA@XZ 0000000140051cb0 f i libucrtd:wsetlocale.obj
 0001:00050cb0       ??1?$__crt_unique_heap_ptr@U__acrt_ptd@@U__crt_internal_free_policy@@@@QEAA@XZ 0000000140051cb0 f i libucrtd:per_thread_data.obj
 0001:00050cb0       ??1?$__crt_unique_heap_ptr@PEADU__crt_internal_free_policy@@@@QEAA@XZ 0000000140051cb0 f i libucrtd:argv_parsing.obj
 0001:00050cb0       ??1?$__crt_unique_heap_ptr@U__crt_lowio_handle_data@@U__crt_internal_free_policy@@@@QEAA@XZ 0000000140051cb0 f i libucrtd:osfinfo.obj
 0001:00050cb0       ??1?$__crt_unique_heap_ptr@EU__crt_internal_free_policy@@@@QEAA@XZ 0000000140051cb0 f i libucrtd:input.obj
 0001:00050cb0       ??1?$__crt_unique_heap_ptr@DU__crt_internal_free_policy@@@@QEAA@XZ 0000000140051cb0 f i libvcruntimed:std_type_info.obj
 0001:00050cb0       ??1?$__crt_unique_heap_ptr@P6AXXZU__crt_internal_free_policy@@@@QEAA@XZ 0000000140051cb0 f i libucrtd:onexit.obj
 0001:00050cb0       ??1?$__crt_unique_heap_ptr@U__vcrt_ptd@@U__crt_internal_free_policy@@@@QEAA@XZ 0000000140051cb0 f i libvcruntimed:per_thread_data.obj
 0001:00050cb0       ??1?$__crt_unique_heap_ptr@U__crt_stdio_stream_data@@U__crt_internal_free_policy@@@@QEAA@XZ 0000000140051cb0 f i libucrtd:stream.obj
 0001:00050cd0       ??B?$__crt_unique_heap_ptr@EU__crt_internal_free_policy@@@@QEBA_NXZ 0000000140051cd0 f i libucrtd:input.obj
 0001:00050cd0       ??B?$__crt_unique_heap_ptr@DU__crt_internal_free_policy@@@@QEBA_NXZ 0000000140051cd0 f i libvcruntimed:std_type_info.obj
 0001:00050cd0       ??B?$__crt_unique_heap_ptr@U__crt_lowio_handle_data@@U__crt_internal_free_policy@@@@QEBA_NXZ 0000000140051cd0 f i libucrtd:osfinfo.obj
 0001:00050cd0       ??B?$__crt_unique_heap_ptr@U__crt_multibyte_data@@U__crt_internal_free_policy@@@@QEBA_NXZ 0000000140051cd0 f i libucrtd:wsetlocale.obj
 0001:00050cd0       ??B?$__crt_unique_heap_ptr@U__acrt_ptd@@U__crt_internal_free_policy@@@@QEBA_NXZ 0000000140051cd0 f i libucrtd:per_thread_data.obj
 0001:00050cd0       ??B?$__crt_unique_heap_ptr@DU__crt_public_free_policy@@@@QEBA_NXZ 0000000140051cd0 f i libvcruntimed:std_exception.obj
 0001:00050cd0       ??B?$__crt_unique_heap_ptr@U__vcrt_ptd@@U__crt_internal_free_policy@@@@QEBA_NXZ 0000000140051cd0 f i libvcruntimed:per_thread_data.obj
 0001:00050cf0       ?__crt_interlocked_read_64@@YA_JPED_J@Z 0000000140051cf0 f i libvcruntimed:std_type_info.obj
 0001:00050d10       ??B?$__crt_scoped_stack_ptr@_W@@QEBA_NXZ 0000000140051d10 f i libucrtd:lcmapstringa.obj
 0001:00050d10       ?valid@__crt_stdio_stream@@QEBA_NXZ 0000000140051d10 f i libucrtd:fopen.obj
 0001:00050d10       ?is_valid@?$__crt_unique_heap_ptr@DU__crt_internal_free_policy@@@@QEBA_NXZ 0000000140051d10 f i libvcruntimed:std_type_info.obj
 0001:00050d10       ?is_valid@?$__crt_unique_heap_ptr@U__vcrt_ptd@@U__crt_internal_free_policy@@@@QEBA_NXZ 0000000140051d10 f i libvcruntimed:per_thread_data.obj
 0001:00050d10       ?is_valid@?$__crt_unique_heap_ptr@DU__crt_public_free_policy@@@@QEBA_NXZ 0000000140051d10 f i libvcruntimed:std_exception.obj
 0001:00050d10       ?is_valid@?$__crt_unique_heap_ptr@U__acrt_ptd@@U__crt_internal_free_policy@@@@QEBA_NXZ 0000000140051d10 f i libucrtd:per_thread_data.obj
 0001:00050d10       ?is_valid@?$__crt_unique_heap_ptr@EU__crt_internal_free_policy@@@@QEBA_NXZ 0000000140051d10 f i libucrtd:input.obj
 0001:00050d10       ?is_valid@?$__crt_unique_heap_ptr@U__crt_multibyte_data@@U__crt_internal_free_policy@@@@QEBA_NXZ 0000000140051d10 f i libucrtd:wsetlocale.obj
 0001:00050d10       ?is_valid@?$__crt_unique_heap_ptr@U__crt_lowio_handle_data@@U__crt_internal_free_policy@@@@QEBA_NXZ 0000000140051d10 f i libucrtd:osfinfo.obj
 0001:00050d40       ?release@?$__crt_unique_heap_ptr@EU__crt_internal_free_policy@@@@QEAAXXZ 0000000140051d40 f i libucrtd:input.obj
 0001:00050d40       ?release@?$__crt_unique_heap_ptr@U__crt_stdio_stream_data@@U__crt_internal_free_policy@@@@QEAAXXZ 0000000140051d40 f i libucrtd:stream.obj
 0001:00050d40       ?release@?$__crt_unique_heap_ptr@P6AXXZU__crt_internal_free_policy@@@@QEAAXXZ 0000000140051d40 f i libucrtd:onexit.obj
 0001:00050d40       ?release@?$__crt_unique_heap_ptr@U__vcrt_ptd@@U__crt_internal_free_policy@@@@QEAAXXZ 0000000140051d40 f i libvcruntimed:per_thread_data.obj
 0001:00050d40       ?release@?$__crt_unique_heap_ptr@U__crt_multibyte_data@@U__crt_internal_free_policy@@@@QEAAXXZ 0000000140051d40 f i libucrtd:wsetlocale.obj
 0001:00050d40       ?release@?$__crt_unique_heap_ptr@U__crt_lowio_handle_data@@U__crt_internal_free_policy@@@@QEAAXXZ 0000000140051d40 f i libucrtd:osfinfo.obj
 0001:00050d40       ?release@?$__crt_unique_heap_ptr@PEADU__crt_internal_free_policy@@@@QEAAXXZ 0000000140051d40 f i libucrtd:argv_parsing.obj
 0001:00050d40       ?release@?$__crt_unique_heap_ptr@PEAU__crt_stdio_stream_data@@U__crt_internal_free_policy@@@@QEAAXXZ 0000000140051d40 f i libucrtd:_file.obj
 0001:00050d40       ?release@?$__crt_unique_heap_ptr@U__acrt_ptd@@U__crt_internal_free_policy@@@@QEAAXXZ 0000000140051d40 f i libucrtd:per_thread_data.obj
 0001:00050d40       ?release@?$__crt_unique_heap_ptr@DU__crt_internal_free_policy@@@@QEAAXXZ 0000000140051d40 f i libvcruntimed:std_type_info.obj
 0001:00050d70       __std_type_info_compare    0000000140051d70 f   libvcruntimed:std_type_info.obj
 0001:00050db0       __DestructExceptionObject  0000000140051db0 f   libvcruntimed:ehhelpers.obj
 0001:00050eb0       ?_CallMemberFunction0@@YAXQEAX0@Z 0000000140051eb0 f i libvcruntimed:ehhelpers.obj
 0001:00050f80       _IsExceptionObjectToBeDestroyed 0000000140051f80 f   libvcruntimed:ehhelpers.obj
 0001:00050fd0       __AdjustPointer            0000000140051fd0 f   libvcruntimed:ehhelpers.obj
 0001:00051050       __FrameUnwindFilter        0000000140052050 f   libvcruntimed:ehhelpers.obj
 0001:00051100       __current_exception        0000000140052100 f   libvcruntimed:ehhelpers.obj
 0001:00051120       __current_exception_context 0000000140052120 f   libvcruntimed:ehhelpers.obj
 0001:00051150       _NLG_Notify                0000000140052150 f   libvcruntimed:notify.obj
 0001:00051170       __NLG_Dispatch2            0000000140052170 f   libvcruntimed:notify.obj
 0001:00051180       __NLG_Return2              0000000140052180 f   libvcruntimed:notify.obj
 0001:00051190       __except_validate_context_record 0000000140052190 f   libvcruntimed:jbcxrval.obj
 0001:00051230       ?detach@?$__crt_unique_heap_ptr@P6AXXZU__crt_internal_free_policy@@@@QEAAPEAP6AXXZXZ 0000000140052230 f i libucrtd:onexit.obj
 0001:00051230       ?detach@?$__crt_unique_heap_ptr@U__acrt_ptd@@U__crt_internal_free_policy@@@@QEAAPEAU__acrt_ptd@@XZ 0000000140052230 f i libucrtd:per_thread_data.obj
 0001:00051230       ?detach@?$__crt_unique_heap_ptr@EU__crt_internal_free_policy@@@@QEAAPEAEXZ 0000000140052230 f i libucrtd:argv_parsing.obj
 0001:00051230       ?detach@?$__crt_unique_heap_ptr@PEADU__crt_internal_free_policy@@@@QEAAPEAPEADXZ 0000000140052230 f i libucrtd:argv_parsing.obj
 0001:00051230       ?detach@?$__crt_unique_heap_ptr@PEAU__crt_stdio_stream_data@@U__crt_internal_free_policy@@@@QEAAPEAPEAU__crt_stdio_stream_data@@XZ 0000000140052230 f i libucrtd:_file.obj
 0001:00051230       ?detach@?$__crt_unique_heap_ptr@U__crt_lowio_handle_data@@U__crt_internal_free_policy@@@@QEAAPEAU__crt_lowio_handle_data@@XZ 0000000140052230 f i libucrtd:osfinfo.obj
 0001:00051230       ?detach@?$__crt_unique_heap_ptr@U__crt_multibyte_data@@U__crt_internal_free_policy@@@@QEAAPEAU__crt_multibyte_data@@XZ 0000000140052230 f i libucrtd:wsetlocale.obj
 0001:00051230       ?detach@?$__crt_unique_heap_ptr@U__vcrt_ptd@@U__crt_internal_free_policy@@@@QEAAPEAU__vcrt_ptd@@XZ 0000000140052230 f i libvcruntimed:per_thread_data.obj
 0001:00051230       ?detach@?$__crt_unique_heap_ptr@DU__crt_public_free_policy@@@@QEAAPEADXZ 0000000140052230 f i libvcruntimed:std_exception.obj
 0001:00051230       ?detach@?$__crt_unique_heap_ptr@U__crt_stdio_stream_data@@U__crt_internal_free_policy@@@@QEAAPEAU__crt_stdio_stream_data@@XZ 0000000140052230 f i libucrtd:stream.obj
 0001:000512a0       __vcrt_freefls             00000001400522a0 f   libvcruntimed:per_thread_data.obj
 0001:000512e0       __vcrt_getptd              00000001400522e0 f   libvcruntimed:per_thread_data.obj
 0001:00051310       __vcrt_getptd_noexit       0000000140052310 f   libvcruntimed:per_thread_data.obj
 0001:000514b0       __vcrt_initialize_ptd      00000001400524b0 f   libvcruntimed:per_thread_data.obj
 0001:00051500       __vcrt_uninitialize_ptd    0000000140052500 f   libvcruntimed:per_thread_data.obj
 0001:00051530       __vcrt_initialize_locks    0000000140052530 f   libvcruntimed:locks.obj
 0001:000515a0       __vcrt_uninitialize_locks  00000001400525a0 f   libvcruntimed:locks.obj
 0001:00051600       _vsprintf_s_l              0000000140052600 f i libvcruntimed:undname.obj
 0001:00051670       sprintf_s                  0000000140052670 f i libvcruntimed:undname.obj
 0001:000516d0       ??$__crt_interlocked_exchange_pointer@UHINSTANCE__@@PEAU1@@@YAPEAUHINSTANCE__@@PEDSEAU0@QEAU0@@Z 00000001400526d0 f i libvcruntimed:winapi_downlevel.obj
 0001:000516d0       ??$__crt_interlocked_exchange_pointer@XPEAX@@YAPEAXPEDSEAXQEAX@Z 00000001400526d0 f i libvcruntimed:winapi_downlevel.obj
 0001:000516d0       ??$__crt_interlocked_exchange_pointer@UHINSTANCE__@@PEAX@@YAPEAUHINSTANCE__@@PEDSEAU0@QEAX@Z 00000001400526d0 f i libvcruntimed:winapi_downlevel.obj
 0001:000516f0       ??$__crt_interlocked_read_pointer@UHINSTANCE__@@@@YAPEAUHINSTANCE__@@PEDSEAU0@@Z 00000001400526f0 f i libvcruntimed:winapi_downlevel.obj
 0001:000516f0       ??$__crt_interlocked_read_pointer@X@@YAPEAXPEDSEAX@Z 00000001400526f0 f i libvcruntimed:winapi_downlevel.obj
 0001:00051710       ?get_invalid_value@__crt_findfile_traits@@SAPEAXXZ 0000000140052710 f   libucrtd:argv_wildcards.obj
 0001:00051c00       __vcrt_FlsAlloc            0000000140052c00 f   libvcruntimed:winapi_downlevel.obj
 0001:00051c50       __vcrt_FlsFree             0000000140052c50 f   libvcruntimed:winapi_downlevel.obj
 0001:00051ca0       __vcrt_FlsGetValue         0000000140052ca0 f   libvcruntimed:winapi_downlevel.obj
 0001:00051cf0       __vcrt_FlsSetValue         0000000140052cf0 f   libvcruntimed:winapi_downlevel.obj
 0001:00051d50       __vcrt_InitializeCriticalSectionEx 0000000140052d50 f   libvcruntimed:winapi_downlevel.obj
 0001:00051dd0       memcpy_repmovs             0000000140052dd0 f   libvcruntimed:memcpy.obj
 0001:00051df0       memcpy                     0000000140052df0 f   libvcruntimed:memcpy.obj
 0001:00051df0       memmove                    0000000140052df0 f   libvcruntimed:memcpy.obj
 0001:00052470       ??$?0AEAViterator@TryBlockMap@__FrameHandler3@@AEAV012@$0A@@?$pair@Viterator@TryBlockMap@__FrameHandler3@@V123@@std@@QEAA@AEAViterator@TryBlockMap@__FrameHandler3@@0@Z 0000000140053470 f i libvcruntimed:risctrnsctrl.obj
 0001:00052580       ??$_CallSETranslator@V__FrameHandler3@@@@YAHPEAUEHExceptionRecord@@PEA_KPEAU_CONTEXT@@PEAU_xDISPATCHER_CONTEXT@@PEBU_s_FuncInfo@@K1H@Z 0000000140053580 f i libvcruntimed:risctrnsctrl.obj
 0001:00052610       ?dangerous_get_state_array@?$dual_state_global@H@__crt_state_management@@QEAAPEAHXZ 0000000140053610 f i libucrtd:txtmode.obj
 0001:00052610       ??$forward@AEAViterator@TryBlockMap@__FrameHandler3@@@std@@YAAEAViterator@TryBlockMap@__FrameHandler3@@AEAV123@@Z 0000000140053610 f i libvcruntimed:risctrnsctrl.obj
 0001:00052610       ?dangerous_get_state_array@?$dual_state_global@PEAE@__crt_state_management@@QEAAPEAPEAEXZ 0000000140053610 f i libucrtd:mbctype.obj
 0001:00052610       ?get_address_of@?$__crt_unique_heap_ptr@PEADU__crt_internal_free_policy@@@@QEAAPEAPEAPEADXZ 0000000140053610 f i libucrtd:argv_parsing.obj
 0001:00052610       ?data@?$scanset_storage@$00@__crt_stdio_input@@QEBAPEAEXZ 0000000140053610 f i libucrtd:input.obj
 0001:00052610       ?dangerous_get_state_array@?$dual_state_global@PEAU__crt_multibyte_data@@@__crt_state_management@@QEAAPEAPEAU__crt_multibyte_data@@XZ 0000000140053610 f i libucrtd:mbctype.obj
 0001:00052610       ?debug_info@?$__crt_win32_buffer@_WU__crt_win32_buffer_internal_dynamic_resizing@@@@QEBAAEBV__crt_win32_buffer_empty_debug_info@@XZ 0000000140053610 f i libucrtd:argv_wildcards.obj
 0001:00052610       ?get_address_of@?$__crt_unique_handle_t@U__crt_hmodule_traits@@@@QEAAPEAPEAUHINSTANCE__@@XZ 0000000140053610 f i libucrtd:exit.obj
 0001:00052610       ?dangerous_get_state_array@?$dual_state_global@P6AXPEB_W00I_K@Z@__crt_state_management@@QEAAPEAP6AXPEB_W00I_K@ZXZ 0000000140053610 f i libucrtd:invalid_parameter.obj
 0001:00052610       ?debug_info@?$__crt_win32_buffer@DU__crt_win32_buffer_internal_dynamic_resizing@@@@QEBAAEBV__crt_win32_buffer_empty_debug_info@@XZ 0000000140053610 f i libucrtd:argv_wildcards.obj
 0001:00052610       ?dangerous_get_state_array@?$dual_state_global@PEAU__crt_locale_data@@@__crt_state_management@@QEAAPEAPEAU__crt_locale_data@@XZ 0000000140053610 f i libucrtd:per_thread_data.obj
 0001:00052610       ?debug_info@?$__crt_win32_buffer@DU__crt_win32_buffer_no_resizing@@@@QEBAAEBV__crt_win32_buffer_empty_debug_info@@XZ 0000000140053610 f i libucrtd:getmodulefilenamea.obj
 0001:00052620       ??0iterator@HandlerMap@__FrameHandler3@@QEAA@AEAV12@I@Z 0000000140053620 f i libvcruntimed:frame.obj
 0001:00052620       ??0iterator@TryBlockMap@__FrameHandler3@@QEAA@AEAV12@I@Z 0000000140053620 f i libvcruntimed:risctrnsctrl.obj
 0001:00052650       ?CatchTryBlock@__FrameHandler3@@SAPEBU_s_TryBlockMapEntry@@PEBU_s_FuncInfo@@H@Z 0000000140053650 f   libvcruntimed:risctrnsctrl.obj
 0001:000526e0       ?ExecutionInCatch@__FrameHandler3@@SA_NPEAU_xDISPATCHER_CONTEXT@@PEBU_s_FuncInfo@@@Z 00000001400536e0 f   libvcruntimed:risctrnsctrl.obj
 0001:00052730       ?FrameUnwindToEmptyState@__FrameHandler3@@SAXPEA_KPEAU_xDISPATCHER_CONTEXT@@PEBU_s_FuncInfo@@@Z 0000000140053730 f   libvcruntimed:risctrnsctrl.obj
 0001:000527d0       ?GetEstablisherFrame@__FrameHandler3@@SAPEA_KPEA_KPEAU_xDISPATCHER_CONTEXT@@PEBU_s_FuncInfo@@0@Z 00000001400537d0 f   libvcruntimed:risctrnsctrl.obj
 0001:00052940       ?GetRangeOfTrysToCheck@__FrameHandler3@@SA?AU?$pair@Viterator@TryBlockMap@__FrameHandler3@@V123@@std@@AEAVTryBlockMap@1@HPEAU_xDISPATCHER_CONTEXT@@PEBU_s_FuncInfo@@H@Z 0000000140053940 f   libvcruntimed:risctrnsctrl.obj
 0001:00052b80       ?UnwindNestedFrames@__FrameHandler3@@SAXPEA_KPEAUEHExceptionRecord@@PEAU_CONTEXT@@0PEAXPEBU_s_FuncInfo@@HHPEBU_s_HandlerType@@PEAU_xDISPATCHER_CONTEXT@@E@Z 0000000140053b80 f   libvcruntimed:risctrnsctrl.obj
 0001:00052cf0       _CreateFrameInfo           0000000140053cf0 f   libvcruntimed:risctrnsctrl.obj
 0001:00052d60       _FindAndUnlinkFrame        0000000140053d60 f   libvcruntimed:risctrnsctrl.obj
 0001:00052de0       _GetImageBase              0000000140053de0 f   libvcruntimed:risctrnsctrl.obj
 0001:00052e00       _GetThrowImageBase         0000000140053e00 f   libvcruntimed:risctrnsctrl.obj
 0001:00052e20       _SetImageBase              0000000140053e20 f   libvcruntimed:risctrnsctrl.obj
 0001:00052e40       _SetThrowImageBase         0000000140053e40 f   libvcruntimed:risctrnsctrl.obj
 0001:00052e60       __CxxFrameHandler3         0000000140053e60 f   libvcruntimed:risctrnsctrl.obj
 0001:00052f40       ?GetCurrentState@__FrameHandler3@@SAHPEA_KPEAU_xDISPATCHER_CONTEXT@@PEBU_s_FuncInfo@@@Z 0000000140053f40 f   libvcruntimed:ehstate.obj
 0001:00052fa0       ?GetUnwindTryBlock@__FrameHandler3@@SAHPEA_KPEAU_xDISPATCHER_CONTEXT@@PEBU_s_FuncInfo@@@Z 0000000140053fa0 f   libvcruntimed:ehstate.obj
 0001:00052ff0       ?SetState@__FrameHandler3@@SAXPEA_KPEBU_s_FuncInfo@@H@Z 0000000140053ff0 f   libvcruntimed:ehstate.obj
 0001:00053020       ?SetUnwindTryBlock@__FrameHandler3@@SAXPEA_KPEAU_xDISPATCHER_CONTEXT@@PEBU_s_FuncInfo@@H@Z 0000000140054020 f   libvcruntimed:ehstate.obj
 0001:00053090       ?StateFromControlPc@__FrameHandler3@@SAHPEBU_s_FuncInfo@@PEAU_xDISPATCHER_CONTEXT@@@Z 0000000140054090 f   libvcruntimed:ehstate.obj
 0001:000530d0       ?StateFromIp@__FrameHandler3@@SAHPEBU_s_FuncInfo@@PEAU_xDISPATCHER_CONTEXT@@_K@Z 00000001400540d0 f   libvcruntimed:ehstate.obj
 0001:000531c0       ?__RVAtoRealOffset@@YA_KPEAU_xDISPATCHER_CONTEXT@@H@Z 00000001400541c0 f i libvcruntimed:ehstate.obj
 0001:00054390       ??$TypeMatchHelper@V__FrameHandler3@@@@YAHPEBU_s_HandlerType@@PEBU_s_CatchableType@@PEBU_s_ThrowInfo@@@Z 0000000140055390 f i libvcruntimed:frame.obj
 0001:00054590       ??$__InternalCxxFrameHandler@V__FrameHandler3@@@@YA?AW4_EXCEPTION_DISPOSITION@@PEAUEHExceptionRecord@@PEA_KPEAU_CONTEXT@@PEAU_xDISPATCHER_CONTEXT@@PEBU_s_FuncInfo@@H1E@Z 0000000140055590 f i libvcruntimed:frame.obj
 0001:00054a00       ??0HandlerMap@__FrameHandler3@@QEAA@PEBU_s_TryBlockMapEntry@@_KI@Z 0000000140055a00 f i libvcruntimed:frame.obj
 0001:00054a50       ??0TryBlockMap@__FrameHandler3@@QEAA@PEBU_s_FuncInfo@@_K@Z 0000000140055a50 f i libvcruntimed:frame.obj
 0001:00054a80       ??0bad_exception@std@@QEAA@AEBV01@@Z 0000000140055a80 f i libvcruntimed:frame.obj
 0001:00054ac0       ??0bad_exception@std@@QEAA@XZ 0000000140055ac0 f i libvcruntimed:frame.obj
 0001:00054b00       ??0exception@std@@QEAA@AEBV01@@Z 0000000140055b00 f i libvcruntimed:frame.obj
 0001:00054b60       ??0exception@std@@QEAA@QEBDH@Z 0000000140055b60 f i libvcruntimed:frame.obj
 0001:00054bb0       ??1bad_exception@std@@UEAA@XZ 0000000140055bb0 f i libvcruntimed:frame.obj
 0001:00054bd0       ??1exception@std@@UEAA@XZ  0000000140055bd0 f i libvcruntimed:frame.obj
 0001:00054c00       ??8iterator@HandlerMap@__FrameHandler3@@QEBA_NAEBV012@@Z 0000000140055c00 f i libvcruntimed:frame.obj
 0001:00054c40       ??8type_info@@QEBA_NAEBV0@@Z 0000000140055c40 f i libvcruntimed:frame.obj
 0001:00054c90       ??9iterator@HandlerMap@__FrameHandler3@@QEBA_NAEBV012@@Z 0000000140055c90 f i libvcruntimed:frame.obj
 0001:00054cd0       ??Diterator@HandlerMap@__FrameHandler3@@QEAA?BU_s_HandlerType@@XZ 0000000140055cd0 f i libvcruntimed:frame.obj
 0001:00054d10       ??Diterator@TryBlockMap@__FrameHandler3@@QEAA?BU_s_TryBlockMapEntry@@XZ 0000000140055d10 f i libvcruntimed:frame.obj
 0001:00054d60       ??Eiterator@TryBlockMap@__FrameHandler3@@QEAAAEAV012@XZ 0000000140055d60 f i libvcruntimed:frame.obj
 0001:00054d60       ??Eiterator@HandlerMap@__FrameHandler3@@QEAAAEAV012@XZ 0000000140055d60 f i libvcruntimed:frame.obj
 0001:00054d80       ??Miterator@TryBlockMap@__FrameHandler3@@QEBA_NAEBV012@@Z 0000000140055d80 f i libvcruntimed:frame.obj
 0001:00054dc0       ??_Gbad_exception@std@@UEAAPEAXI@Z 0000000140055dc0 f i libvcruntimed:frame.obj
 0001:00054dc0       ??_Ebad_exception@std@@UEAAPEAXI@Z 0000000140055dc0 f i libvcruntimed:frame.obj
 0001:00054e00       ??_Gexception@std@@UEAAPEAXI@Z 0000000140055e00 f i libvcruntimed:frame.obj
 0001:00054e00       ??_Eexception@std@@UEAAPEAXI@Z 0000000140055e00 f i libvcruntimed:frame.obj
 0001:00054e40       ?BuildCatchObject@__FrameHandler3@@SAXPEAUEHExceptionRecord@@PEAXPEBU_s_HandlerType@@PEBU_s_CatchableType@@@Z 0000000140055e40 f   libvcruntimed:frame.obj
 0001:00054e80       ?CxxCallCatchBlock@__FrameHandler3@@SAPEAXPEAU_EXCEPTION_RECORD@@@Z 0000000140055e80 f   libvcruntimed:frame.obj
 0001:000551e0       ?FrameUnwindToState@__FrameHandler3@@SAXPEA_KPEAU_xDISPATCHER_CONTEXT@@PEBU_s_FuncInfo@@H@Z 00000001400561e0 f   libvcruntimed:frame.obj
 0001:00055430       ?GetHandlerSearchState@__FrameHandler3@@SAHPEA_KPEAU_xDISPATCHER_CONTEXT@@PEBU_s_FuncInfo@@@Z 0000000140056430 f i libvcruntimed:frame.obj
 0001:000554e0       ?GetMaxState@__FrameHandler3@@SAHPEAU_xDISPATCHER_CONTEXT@@PEBU_s_FuncInfo@@@Z 00000001400564e0 f i libvcruntimed:frame.obj
 0001:000556e0       __TypeMatch                00000001400566e0 f   libvcruntimed:frame.obj
 0001:000556e0       ?TypeMatch@__FrameHandler3@@SAHPEBU_s_HandlerType@@PEBU_s_CatchableType@@PEBU_s_ThrowInfo@@@Z 00000001400566e0 f   libvcruntimed:frame.obj
 0001:00055710       ?_CallMemberFunction1@@YAXQEAX00@Z 0000000140056710 f i libvcruntimed:frame.obj
 0001:00055750       ?_CallMemberFunction2@@YAXQEAX00H@Z 0000000140056750 f i libvcruntimed:frame.obj
 0001:000557e0       ?begin@HandlerMap@__FrameHandler3@@QEAA?AViterator@12@XZ 00000001400567e0 f i libvcruntimed:frame.obj
 0001:00055810       ?end@HandlerMap@__FrameHandler3@@QEAA?AViterator@12@XZ 0000000140056810 f i libvcruntimed:frame.obj
 0001:00055840       ?getESTypes@__FrameHandler3@@SAPEBU_s_ESTypeList@@PEBU_s_FuncInfo@@@Z 0000000140056840 f i libvcruntimed:frame.obj
 0001:00055880       ?getLastEntry@HandlerMap@__FrameHandler3@@QEAAPEBU_s_HandlerType@@XZ 0000000140056880 f i libvcruntimed:frame.obj
 0001:000558a0       ?getMagicNum@__FrameHandler3@@SAIPEBU_s_FuncInfo@@@Z 00000001400568a0 f i libvcruntimed:frame.obj
 0001:000558c0       ?getNumTryBlocks@TryBlockMap@__FrameHandler3@@QEAAIXZ 00000001400568c0 f i libvcruntimed:frame.obj
 0001:000558e0       ?isEHs@__FrameHandler3@@SA_NPEBU_s_FuncInfo@@@Z 00000001400568e0 f i libvcruntimed:frame.obj
 0001:00055920       ?isNoExcept@__FrameHandler3@@SA_NPEBU_s_FuncInfo@@@Z 0000000140056920 f i libvcruntimed:frame.obj
 0001:00055960       ?what@exception@std@@UEBAPEBDXZ 0000000140056960 f i libvcruntimed:frame.obj
 0001:000559a0       __vcrt_EncodePointer       00000001400569a0 f i libvcruntimed:frame.obj
 0001:000559d0       memset_repmovs             00000001400569d0 f   libvcruntimed:memset.obj
 0001:000559f0       memset                     00000001400569f0 f   libvcruntimed:memset.obj
 0001:00055b90       _CallSettingFrame          0000000140056b90 f   libvcruntimed:handlers.obj
 0001:00055be0       _CallSettingFrame_LookupContinuationIndex 0000000140056be0 f   libvcruntimed:handlers.obj
 0001:00055c10       _CallSettingFrame_NotifyContinuationAddr 0000000140056c10 f   libvcruntimed:handlers.obj
 0001:00055c40       _CallSettingFrameEncoded   0000000140056c40 f   libvcruntimed:handlers.obj
 0001:00055c90       ??$?RD@__crt_public_free_policy@@QEBAXQEBD@Z 0000000140056c90 f i libvcruntimed:std_exception.obj
 0001:00055cb0       ??1?$__crt_unique_heap_ptr@DU__crt_public_free_policy@@@@QEAA@XZ 0000000140056cb0 f i libvcruntimed:std_exception.obj
 0001:00055cd0       ?release@?$__crt_unique_heap_ptr@DU__crt_public_free_policy@@@@QEAAXXZ 0000000140056cd0 f i libvcruntimed:std_exception.obj
 0001:00055d00       __std_exception_copy       0000000140056d00 f   libvcruntimed:std_exception.obj
 0001:00055e40       __std_exception_destroy    0000000140056e40 f   libvcruntimed:std_exception.obj
 0001:00055e80       _CxxThrowException         0000000140056e80 f   libvcruntimed:throw.obj
 0001:00055fb0       __acrt_initialize_stdio    0000000140056fb0 f   libucrtd:_file.obj
 0001:000561a0       __acrt_iob_func            00000001400571a0 f   libucrtd:_file.obj
 0001:000561c0       __acrt_uninitialize_stdio  00000001400571c0 f   libucrtd:_file.obj
 0001:00056250       _lock_file                 0000000140057250 f   libucrtd:_file.obj
 0001:00056290       _unlock_file               0000000140057290 f   libucrtd:_file.obj
 0001:00056670       ??$open_file@AEBQEBDAEBQEBDAEBHPEAU_iobuf@@@?$__crt_char_traits@D@@SAPEAU_iobuf@@AEBQEBD0AEBH$$QEAPEAU1@@Z 0000000140057670 f i libucrtd:fopen.obj
 0001:000566c0       ?unlock@__crt_stdio_stream@@QEBAXXZ 00000001400576c0 f i libucrtd:fopen.obj
 0001:000566e0       fopen                      00000001400576e0 f   libucrtd:fopen.obj
 0001:00056710       fopen_s                    0000000140057710 f   libucrtd:fopen.obj
 0001:00056740       ??$__crt_interlocked_read@J@@YAJPEDJ@Z 0000000140057740 f i libucrtd:fclose.obj
 0001:00056740       ??$__crt_interlocked_read@H@@YAHPEDH@Z 0000000140057740 f i libucrtd:setmode.obj
 0001:00056760       ?__crt_interlocked_read_32@@YAHPEDH@Z 0000000140057760 f i libucrtd:fclose.obj
 0001:00056780       ?get_flags@__crt_stdio_stream@@QEBAJXZ 0000000140057780 f i libucrtd:fclose.obj
 0001:000567b0       ?is_in_use@__crt_stdio_stream@@QEBA_NXZ 00000001400577b0 f i libucrtd:fclose.obj
 0001:000567f0       ?is_string_backed@__crt_stdio_stream@@QEBA_NXZ 00000001400577f0 f i libucrtd:fclose.obj
 0001:00056830       _fclose_nolock             0000000140057830 f   libucrtd:fclose.obj
 0001:000569c0       fclose                     00000001400579c0 f   libucrtd:fclose.obj
 0001:00056b00       ?eof@__crt_stdio_stream@@QEBA_NXZ 0000000140057b00 f i libucrtd:feoferr.obj
 0001:00056b20       ?error@__crt_stdio_stream@@QEBA_NXZ 0000000140057b20 f i libucrtd:feoferr.obj
 0001:00056b40       ?has_any_of@__crt_stdio_stream@@QEBA_NJ@Z 0000000140057b40 f i libucrtd:feoferr.obj
 0001:00056b80       feof                       0000000140057b80 f   libucrtd:feoferr.obj
 0001:00056c50       ferror                     0000000140057c50 f   libucrtd:feoferr.obj
 0001:00056d20       _fgetc_nolock              0000000140057d20 f   libucrtd:fgetc.obj
 0001:00056e80       fgetc                      0000000140057e80 f   libucrtd:fgetc.obj
 0001:00057140       ?__acrt_stdio_reset_buffer@@YAXV__crt_stdio_stream@@@Z 0000000140058140 f i libucrtd:fread.obj
 0001:00057190       ?has_any_buffer@__crt_stdio_stream@@QEBA_NXZ 0000000140058190 f i libucrtd:fread.obj
 0001:000571b0       ?set_flags@__crt_stdio_stream@@QEBA_NJ@Z 00000001400581b0 f i libucrtd:fread.obj
 0001:00057220       _fread_nolock_s            0000000140058220 f   libucrtd:fread.obj
 0001:00057bd0       fread                      0000000140058bd0 f   libucrtd:fread.obj
 0001:00057c20       fread_s                    0000000140058c20 f   libucrtd:fread.obj
 0001:00057eb0       ?LongLongSub@@YAJ_J0PEA_J@Z 0000000140058eb0 f i libucrtd:fseek.obj
 0001:000584e0       ?has_all_of@__crt_stdio_stream@@QEBA_NJ@Z 00000001400594e0 f i libucrtd:fseek.obj
 0001:00058520       ?lowio_handle@__crt_stdio_stream@@QEBAHXZ 0000000140059520 f i libucrtd:fseek.obj
 0001:00058550       ?unset_flags@__crt_stdio_stream@@QEBA_NJ@Z 0000000140059550 f i libucrtd:fseek.obj
 0001:000585b0       fseek                      00000001400595b0 f   libucrtd:fseek.obj
 0001:00059290       ?ctrl_z@__crt_stdio_stream@@QEBA_NXZ 000000014005a290 f i libucrtd:ftell.obj
 0001:000592b0       ?has_big_buffer@__crt_stdio_stream@@QEBA_NXZ 000000014005a2b0 f i libucrtd:ftell.obj
 0001:000592d0       ?has_crt_buffer@__crt_stdio_stream@@QEBA_NXZ 000000014005a2d0 f i libucrtd:ftell.obj
 0001:000592f0       ?has_setvbuf_buffer@__crt_stdio_stream@@QEBA_NXZ 000000014005a2f0 f i libucrtd:ftell.obj
 0001:00059310       _ftelli64_nolock           000000014005a310 f   libucrtd:ftell.obj
 0001:00059340       _utf8_no_of_trailbytes     000000014005a340 f i libucrtd:ftell.obj
 0001:00059360       ftell                      000000014005a360 f   libucrtd:ftell.obj
 0001:00059390       _ungetc_nolock             000000014005a390 f   libucrtd:ungetc.obj
 0001:00059730       ungetc                     000000014005a730 f   libucrtd:ungetc.obj
 0001:00059820       ??$?0AEBV?$stream_output_adapter@D@__crt_stdio_output@@AEB_KAEBQEBDAEBQEAU__crt_locale_pointers@@AEBQEAD@?$standard_base@DV?$stream_output_adapter@D@__crt_stdio_output@@@__crt_stdio_output@@IEAA@AEBV?$stream_output_adapter@D@1@AEB_KAEBQEBDAEBQEAU__crt_locale_pointers@@AEBQEAD@Z 000000014005a820 f i libucrtd:output.obj
 0001:00059820       ??$?0AEBV?$string_output_adapter@D@__crt_stdio_output@@AEB_KAEBQEBDAEBQEAU__crt_locale_pointers@@AEBQEAD@?$standard_base@DV?$string_output_adapter@D@__crt_stdio_output@@@__crt_stdio_output@@IEAA@AEBV?$string_output_adapter@D@1@AEB_KAEBQEBDAEBQEAU__crt_locale_pointers@@AEBQEAD@Z 000000014005a820 f i libucrtd:output.obj
 0001:00059890       ??$?0AEBV?$string_output_adapter@_W@__crt_stdio_output@@AEB_KAEBQEB_WAEBQEAU__crt_locale_pointers@@AEBQEAD@?$standard_base@_WV?$string_output_adapter@_W@__crt_stdio_output@@@__crt_stdio_output@@IEAA@AEBV?$string_output_adapter@_W@1@AEB_KAEBQEB_WAEBQEAU__crt_locale_pointers@@AEBQEAD@Z 000000014005a890 f i libucrtd:output.obj
 0001:00059890       ??$?0AEBV?$stream_output_adapter@_W@__crt_stdio_output@@AEB_KAEBQEB_WAEBQEAU__crt_locale_pointers@@AEBQEAD@?$standard_base@_WV?$stream_output_adapter@_W@__crt_stdio_output@@@__crt_stdio_output@@IEAA@AEBV?$stream_output_adapter@_W@1@AEB_KAEBQEB_WAEBQEAU__crt_locale_pointers@@AEBQEAD@Z 000000014005a890 f i libucrtd:output.obj
 0001:00059900       ??$?0AEBV?$string_output_adapter@D@__crt_stdio_output@@AEB_KAEBQEBDAEBQEAU__crt_locale_pointers@@AEBQEAD@?$format_validation_base@DV?$string_output_adapter@D@__crt_stdio_output@@@__crt_stdio_output@@IEAA@AEBV?$string_output_adapter@D@1@AEB_KAEBQEBDAEBQEAU__crt_locale_pointers@@AEBQEAD@Z 000000014005a900 f i libucrtd:output.obj
 0001:00059950       ??$?0AEBV?$string_output_adapter@_W@__crt_stdio_output@@AEB_KAEBQEB_WAEBQEAU__crt_locale_pointers@@AEBQEAD@?$format_validation_base@_WV?$string_output_adapter@_W@__crt_stdio_output@@@__crt_stdio_output@@IEAA@AEBV?$string_output_adapter@_W@1@AEB_KAEBQEB_WAEBQEAU__crt_locale_pointers@@AEBQEAD@Z 000000014005a950 f i libucrtd:output.obj
 0001:0005c120       ??$count@D@formatting_buffer@__crt_stdio_output@@QEBA_KXZ 000000014005d120 f i libucrtd:output.obj
 0001:0005c170       ??$count@_W@formatting_buffer@__crt_stdio_output@@QEBA_KXZ 000000014005d170 f i libucrtd:output.obj
 0001:0005c1c0       ??$data@_W@formatting_buffer@__crt_stdio_output@@QEAAPEA_WXZ 000000014005d1c0 f i libucrtd:output.obj
 0001:0005c1c0       ??$data@D@formatting_buffer@__crt_stdio_output@@QEAAPEADXZ 000000014005d1c0 f i libucrtd:output.obj
 0001:0005c210       ??$ensure_buffer_is_big_enough@D@formatting_buffer@__crt_stdio_output@@QEAA_N_K@Z 000000014005d210 f i libucrtd:output.obj
 0001:0005c340       ??$ensure_buffer_is_big_enough@_W@formatting_buffer@__crt_stdio_output@@QEAA_N_K@Z 000000014005d340 f i libucrtd:output.obj
 0001:0005c470       ??$extract_argument_from_va_list@C_J@?$standard_base@_WV?$stream_output_adapter@_W@__crt_stdio_output@@@__crt_stdio_output@@IEAA_NAEA_J@Z 000000014005d470 f i libucrtd:output.obj
 0001:0005c470       ??$extract_argument_from_va_list@C_J@?$standard_base@_WV?$string_output_adapter@_W@__crt_stdio_output@@@__crt_stdio_output@@IEAA_NAEA_J@Z 000000014005d470 f i libucrtd:output.obj
 0001:0005c470       ??$extract_argument_from_va_list@C_J@?$standard_base@DV?$stream_output_adapter@D@__crt_stdio_output@@@__crt_stdio_output@@IEAA_NAEA_J@Z 000000014005d470 f i libucrtd:output.obj
 0001:0005c470       ??$extract_argument_from_va_list@C_J@?$standard_base@DV?$string_output_adapter@D@__crt_stdio_output@@@__crt_stdio_output@@IEAA_NAEA_J@Z 000000014005d470 f i libucrtd:output.obj
 0001:0005c4b0       ??$extract_argument_from_va_list@E_J@?$standard_base@DV?$stream_output_adapter@D@__crt_stdio_output@@@__crt_stdio_output@@IEAA_NAEA_J@Z 000000014005d4b0 f i libucrtd:output.obj
 0001:0005c4b0       ??$extract_argument_from_va_list@E_J@?$standard_base@_WV?$stream_output_adapter@_W@__crt_stdio_output@@@__crt_stdio_output@@IEAA_NAEA_J@Z 000000014005d4b0 f i libucrtd:output.obj
 0001:0005c4b0       ??$extract_argument_from_va_list@E_J@?$standard_base@_WV?$string_output_adapter@_W@__crt_stdio_output@@@__crt_stdio_output@@IEAA_NAEA_J@Z 000000014005d4b0 f i libucrtd:output.obj
 0001:0005c4b0       ??$extract_argument_from_va_list@E_J@?$standard_base@DV?$string_output_adapter@D@__crt_stdio_output@@@__crt_stdio_output@@IEAA_NAEA_J@Z 000000014005d4b0 f i libucrtd:output.obj
 0001:0005c4f0       ??$extract_argument_from_va_list@F_J@?$standard_base@DV?$stream_output_adapter@D@__crt_stdio_output@@@__crt_stdio_output@@IEAA_NAEA_J@Z 000000014005d4f0 f i libucrtd:output.obj
 0001:0005c4f0       ??$extract_argument_from_va_list@F_J@?$standard_base@_WV?$stream_output_adapter@_W@__crt_stdio_output@@@__crt_stdio_output@@IEAA_NAEA_J@Z 000000014005d4f0 f i libucrtd:output.obj
 0001:0005c4f0       ??$extract_argument_from_va_list@F_J@?$standard_base@_WV?$string_output_adapter@_W@__crt_stdio_output@@@__crt_stdio_output@@IEAA_NAEA_J@Z 000000014005d4f0 f i libucrtd:output.obj
 0001:0005c4f0       ??$extract_argument_from_va_list@F_J@?$standard_base@DV?$string_output_adapter@D@__crt_stdio_output@@@__crt_stdio_output@@IEAA_NAEA_J@Z 000000014005d4f0 f i libucrtd:output.obj
 0001:0005c530       ??$extract_argument_from_va_list@GD@?$standard_base@DV?$stream_output_adapter@D@__crt_stdio_output@@@__crt_stdio_output@@IEAA_NAEAD@Z 000000014005d530 f i libucrtd:output.obj
 0001:0005c530       ??$extract_argument_from_va_list@GD@?$standard_base@DV?$string_output_adapter@D@__crt_stdio_output@@@__crt_stdio_output@@IEAA_NAEAD@Z 000000014005d530 f i libucrtd:output.obj
 0001:0005c560       ??$extract_argument_from_va_list@G_J@?$standard_base@_WV?$string_output_adapter@_W@__crt_stdio_output@@@__crt_stdio_output@@IEAA_NAEA_J@Z 000000014005d560 f i libucrtd:output.obj
 0001:0005c560       ??$extract_argument_from_va_list@G_J@?$standard_base@DV?$stream_output_adapter@D@__crt_stdio_output@@@__crt_stdio_output@@IEAA_NAEA_J@Z 000000014005d560 f i libucrtd:output.obj
 0001:0005c560       ??$extract_argument_from_va_list@G_J@?$standard_base@DV?$string_output_adapter@D@__crt_stdio_output@@@__crt_stdio_output@@IEAA_NAEA_J@Z 000000014005d560 f i libucrtd:output.obj
 0001:0005c560       ??$extract_argument_from_va_list@G_J@?$standard_base@_WV?$stream_output_adapter@_W@__crt_stdio_output@@@__crt_stdio_output@@IEAA_NAEA_J@Z 000000014005d560 f i libucrtd:output.obj
 0001:0005c5a0       ??$extract_argument_from_va_list@H_J@?$standard_base@DV?$string_output_adapter@D@__crt_stdio_output@@@__crt_stdio_output@@IEAA_NAEA_J@Z 000000014005d5a0 f i libucrtd:output.obj
 0001:0005c5a0       ??$extract_argument_from_va_list@H_J@?$standard_base@_WV?$stream_output_adapter@_W@__crt_stdio_output@@@__crt_stdio_output@@IEAA_NAEA_J@Z 000000014005d5a0 f i libucrtd:output.obj
 0001:0005c5a0       ??$extract_argument_from_va_list@H_J@?$standard_base@DV?$stream_output_adapter@D@__crt_stdio_output@@@__crt_stdio_output@@IEAA_NAEA_J@Z 000000014005d5a0 f i libucrtd:output.obj
 0001:0005c5a0       ??$extract_argument_from_va_list@H_J@?$standard_base@_WV?$string_output_adapter@_W@__crt_stdio_output@@@__crt_stdio_output@@IEAA_NAEA_J@Z 000000014005d5a0 f i libucrtd:output.obj
 0001:0005c5d0       ??$extract_argument_from_va_list@I_J@?$standard_base@DV?$stream_output_adapter@D@__crt_stdio_output@@@__crt_stdio_output@@IEAA_NAEA_J@Z 000000014005d5d0 f i libucrtd:output.obj
 0001:0005c5d0       ??$extract_argument_from_va_list@I_J@?$standard_base@DV?$string_output_adapter@D@__crt_stdio_output@@@__crt_stdio_output@@IEAA_NAEA_J@Z 000000014005d5d0 f i libucrtd:output.obj
 0001:0005c5d0       ??$extract_argument_from_va_list@I_J@?$standard_base@_WV?$stream_output_adapter@_W@__crt_stdio_output@@@__crt_stdio_output@@IEAA_NAEA_J@Z 000000014005d5d0 f i libucrtd:output.obj
 0001:0005c5d0       ??$extract_argument_from_va_list@I_J@?$standard_base@_WV?$string_output_adapter@_W@__crt_stdio_output@@@__crt_stdio_output@@IEAA_NAEA_J@Z 000000014005d5d0 f i libucrtd:output.obj
 0001:0005c600       ??$extract_argument_from_va_list@PEAXPEAX@?$standard_base@DV?$stream_output_adapter@D@__crt_stdio_output@@@__crt_stdio_output@@IEAA_NAEAPEAX@Z 000000014005d600 f i libucrtd:output.obj
 0001:0005c600       ??$extract_argument_from_va_list@PEAXPEAX@?$standard_base@DV?$string_output_adapter@D@__crt_stdio_output@@@__crt_stdio_output@@IEAA_NAEAPEAX@Z 000000014005d600 f i libucrtd:output.obj
 0001:0005c600       ??$extract_argument_from_va_list@_K_J@?$standard_base@_WV?$stream_output_adapter@_W@__crt_stdio_output@@@__crt_stdio_output@@IEAA_NAEA_J@Z 000000014005d600 f i libucrtd:output.obj
 0001:0005c600       ??$extract_argument_from_va_list@PEAUansi_string@?1??type_case_Z@?$output_processor@DV?$string_output_adapter@D@__crt_stdio_output@@V?$format_validation_base@DV?$string_output_adapter@D@__crt_stdio_output@@@2@@__crt_stdio_output@@AEAA_NXZ@PEAU1?1??234@AEAA_NXZ@@?$standard_base@DV?$string_output_adapter@D@__crt_stdio_output@@@__crt_stdio_output@@IEAA_NAEAPEAUansi_string@?1??type_case_Z@?$output_processor@DV?$string_output_adapter@D@__crt_stdio_output@@V?$format_validation_base@DV?$string_output_adapter@D@__crt_stdio_output@@@2@@1@AEAA_NXZ@@Z 000000014005d600 f i libucrtd:output.obj
 0001:0005c600       ??$extract_argument_from_va_list@PEAUansi_string@?1??type_case_Z@?$output_processor@_WV?$string_output_adapter@_W@__crt_stdio_output@@V?$standard_base@_WV?$string_output_adapter@_W@__crt_stdio_output@@@2@@__crt_stdio_output@@AEAA_NXZ@PEAU1?1??234@AEAA_NXZ@@?$standard_base@_WV?$string_output_adapter@_W@__crt_stdio_output@@@__crt_stdio_output@@IEAA_NAEAPEAUansi_string@?1??type_case_Z@?$output_processor@_WV?$string_output_adapter@_W@__crt_stdio_output@@V?$standard_base@_WV?$string_output_adapter@_W@__crt_stdio_output@@@2@@1@AEAA_NXZ@@Z 000000014005d600 f i libucrtd:output.obj
 0001:0005c600       ??$extract_argument_from_va_list@PEAXPEAX@?$standard_base@_WV?$stream_output_adapter@_W@__crt_stdio_output@@@__crt_stdio_output@@IEAA_NAEAPEAX@Z 000000014005d600 f i libucrtd:output.obj
 0001:0005c600       ??$extract_argument_from_va_list@PEAUansi_string@?1??type_case_Z@?$output_processor@_WV?$string_output_adapter@_W@__crt_stdio_output@@V?$format_validation_base@_WV?$string_output_adapter@_W@__crt_stdio_output@@@2@@__crt_stdio_output@@AEAA_NXZ@PEAU1?1??234@AEAA_NXZ@@?$standard_base@_WV?$string_output_adapter@_W@__crt_stdio_output@@@__crt_stdio_output@@IEAA_NAEAPEAUansi_string@?1??type_case_Z@?$output_processor@_WV?$string_output_adapter@_W@__crt_stdio_output@@V?$format_validation_base@_WV?$string_output_adapter@_W@__crt_stdio_output@@@2@@1@AEAA_NXZ@@Z 000000014005d600 f i libucrtd:output.obj
 0001:0005c600       ??$extract_argument_from_va_list@PEADPEAD@?$standard_base@_WV?$string_output_adapter@_W@__crt_stdio_output@@@__crt_stdio_output@@IEAA_NAEAPEAD@Z 000000014005d600 f i libucrtd:output.obj
 0001:0005c600       ??$extract_argument_from_va_list@_K_J@?$standard_base@_WV?$string_output_adapter@_W@__crt_stdio_output@@@__crt_stdio_output@@IEAA_NAEA_J@Z 000000014005d600 f i libucrtd:output.obj
 0001:0005c600       ??$extract_argument_from_va_list@_J_J@?$standard_base@_WV?$string_output_adapter@_W@__crt_stdio_output@@@__crt_stdio_output@@IEAA_NAEA_J@Z 000000014005d600 f i libucrtd:output.obj
 0001:0005c600       ??$extract_argument_from_va_list@_J_J@?$standard_base@_WV?$stream_output_adapter@_W@__crt_stdio_output@@@__crt_stdio_output@@IEAA_NAEA_J@Z 000000014005d600 f i libucrtd:output.obj
 0001:0005c600       ??$extract_argument_from_va_list@_K_J@?$standard_base@DV?$string_output_adapter@D@__crt_stdio_output@@@__crt_stdio_output@@IEAA_NAEA_J@Z 000000014005d600 f i libucrtd:output.obj
 0001:0005c600       ??$extract_argument_from_va_list@PEAXPEAX@?$standard_base@_WV?$string_output_adapter@_W@__crt_stdio_output@@@__crt_stdio_output@@IEAA_NAEAPEAX@Z 000000014005d600 f i libucrtd:output.obj
 0001:0005c600       ??$extract_argument_from_va_list@PEAUansi_string@?1??type_case_Z@?$output_processor@DV?$stream_output_adapter@D@__crt_stdio_output@@V?$standard_base@DV?$stream_output_adapter@D@__crt_stdio_output@@@2@@__crt_stdio_output@@AEAA_NXZ@PEAU1?1??234@AEAA_NXZ@@?$standard_base@DV?$stream_output_adapter@D@__crt_stdio_output@@@__crt_stdio_output@@IEAA_NAEAPEAUansi_string@?1??type_case_Z@?$output_processor@DV?$stream_output_adapter@D@__crt_stdio_output@@V?$standard_base@DV?$stream_output_adapter@D@__crt_stdio_output@@@2@@1@AEAA_NXZ@@Z 000000014005d600 f i libucrtd:output.obj
 0001:0005c600       ??$extract_argument_from_va_list@PEADPEAD@?$standard_base@DV?$stream_output_adapter@D@__crt_stdio_output@@@__crt_stdio_output@@IEAA_NAEAPEAD@Z 000000014005d600 f i libucrtd:output.obj
 0001:0005c600       ??$extract_argument_from_va_list@_J_J@?$standard_base@DV?$string_output_adapter@D@__crt_stdio_output@@@__crt_stdio_output@@IEAA_NAEA_J@Z 000000014005d600 f i libucrtd:output.obj
 0001:0005c600       ??$extract_argument_from_va_list@_K_J@?$standard_base@DV?$stream_output_adapter@D@__crt_stdio_output@@@__crt_stdio_output@@IEAA_NAEA_J@Z 000000014005d600 f i libucrtd:output.obj
 0001:0005c600       ??$extract_argument_from_va_list@PEAUansi_string@?1??type_case_Z@?$output_processor@DV?$string_output_adapter@D@__crt_stdio_output@@V?$standard_base@DV?$string_output_adapter@D@__crt_stdio_output@@@2@@__crt_stdio_output@@AEAA_NXZ@PEAU1?1??234@AEAA_NXZ@@?$standard_base@DV?$string_output_adapter@D@__crt_stdio_output@@@__crt_stdio_output@@IEAA_NAEAPEAUansi_string@?1??type_case_Z@?$output_processor@DV?$string_output_adapter@D@__crt_stdio_output@@V?$standard_base@DV?$string_output_adapter@D@__crt_stdio_output@@@2@@1@AEAA_NXZ@@Z 000000014005d600 f i libucrtd:output.obj
 0001:0005c600       ??$extract_argument_from_va_list@PEADPEAD@?$standard_base@_WV?$stream_output_adapter@_W@__crt_stdio_output@@@__crt_stdio_output@@IEAA_NAEAPEAD@Z 000000014005d600 f i libucrtd:output.obj
 0001:0005c600       ??$extract_argument_from_va_list@_J_J@?$standard_base@DV?$stream_output_adapter@D@__crt_stdio_output@@@__crt_stdio_output@@IEAA_NAEA_J@Z 000000014005d600 f i libucrtd:output.obj
 0001:0005c600       ??$extract_argument_from_va_list@PEAUansi_string@?1??type_case_Z@?$output_processor@_WV?$stream_output_adapter@_W@__crt_stdio_output@@V?$standard_base@_WV?$stream_output_adapter@_W@__crt_stdio_output@@@2@@__crt_stdio_output@@AEAA_NXZ@PEAU1?1??234@AEAA_NXZ@@?$standard_base@_WV?$stream_output_adapter@_W@__crt_stdio_output@@@__crt_stdio_output@@IEAA_NAEAPEAUansi_string@?1??type_case_Z@?$output_processor@_WV?$stream_output_adapter@_W@__crt_stdio_output@@V?$standard_base@_WV?$stream_output_adapter@_W@__crt_stdio_output@@@2@@1@AEAA_NXZ@@Z 000000014005d600 f i libucrtd:output.obj
 0001:0005c600       ??$extract_argument_from_va_list@PEADPEAD@?$standard_base@DV?$string_output_adapter@D@__crt_stdio_output@@@__crt_stdio_output@@IEAA_NAEAPEAD@Z 000000014005d600 f i libucrtd:output.obj
 0001:0005c630       ??$extract_argument_from_va_list@U_CRT_DOUBLE@@U1@@?$standard_base@DV?$string_output_adapter@D@__crt_stdio_output@@@__crt_stdio_output@@IEAA_NAEAU_CRT_DOUBLE@@@Z 000000014005d630 f i libucrtd:output.obj
 0001:0005c630       ??$extract_argument_from_va_list@U_CRT_DOUBLE@@U1@@?$standard_base@DV?$stream_output_adapter@D@__crt_stdio_output@@@__crt_stdio_output@@IEAA_NAEAU_CRT_DOUBLE@@@Z 000000014005d630 f i libucrtd:output.obj
 0001:0005c630       ??$extract_argument_from_va_list@U_CRT_DOUBLE@@U1@@?$standard_base@_WV?$string_output_adapter@_W@__crt_stdio_output@@@__crt_stdio_output@@IEAA_NAEAU_CRT_DOUBLE@@@Z 000000014005d630 f i libucrtd:output.obj
 0001:0005c630       ??$extract_argument_from_va_list@U_CRT_DOUBLE@@U1@@?$standard_base@_WV?$stream_output_adapter@_W@__crt_stdio_output@@@__crt_stdio_output@@IEAA_NAEAU_CRT_DOUBLE@@@Z 000000014005d630 f i libucrtd:output.obj
 0001:0005c680       ??$extract_argument_from_va_list@_W_W@?$standard_base@_WV?$string_output_adapter@_W@__crt_stdio_output@@@__crt_stdio_output@@IEAA_NAEA_W@Z 000000014005d680 f i libucrtd:output.obj
 0001:0005c680       ??$extract_argument_from_va_list@_W_W@?$standard_base@_WV?$stream_output_adapter@_W@__crt_stdio_output@@@__crt_stdio_output@@IEAA_NAEA_W@Z 000000014005d680 f i libucrtd:output.obj
 0001:0005c680       ??$extract_argument_from_va_list@_W_W@?$standard_base@DV?$string_output_adapter@D@__crt_stdio_output@@@__crt_stdio_output@@IEAA_NAEA_W@Z 000000014005d680 f i libucrtd:output.obj
 0001:0005c680       ??$extract_argument_from_va_list@_W_W@?$standard_base@DV?$stream_output_adapter@D@__crt_stdio_output@@@__crt_stdio_output@@IEAA_NAEA_W@Z 000000014005d680 f i libucrtd:output.obj
 0001:0005c6b0       ??$is_wide_character_specifier@D@__crt_stdio_output@@YA_N_KDW4length_modifier@0@@Z 000000014005d6b0 f i libucrtd:output.obj
 0001:0005c750       ??$is_wide_character_specifier@_W@__crt_stdio_output@@YA_N_K_WW4length_modifier@0@@Z 000000014005d750 f i libucrtd:output.obj
 0001:0005c820       ??$puttc_nolock@AEBDPEAU_iobuf@@@?$__crt_char_traits@D@@SAHAEBD$$QEAPEAU_iobuf@@@Z 000000014005d820 f i libucrtd:output.obj
 0001:0005c850       ??$puttc_nolock@AEB_WPEAU_iobuf@@@?$__crt_char_traits@_W@@SAGAEB_W$$QEAPEAU_iobuf@@@Z 000000014005d850 f i libucrtd:output.obj
 0001:0005c880       ??$read_va_arg@E@__crt_stdio_output@@YAEAEAPEAD@Z 000000014005d880 f i libucrtd:output.obj
 0001:0005c880       ??$read_va_arg@C@__crt_stdio_output@@YACAEAPEAD@Z 000000014005d880 f i libucrtd:output.obj
 0001:0005c8f0       ??$read_va_arg@G@__crt_stdio_output@@YAGAEAPEAD@Z 000000014005d8f0 f i libucrtd:output.obj
 0001:0005c8f0       ??$read_va_arg@F@__crt_stdio_output@@YAFAEAPEAD@Z 000000014005d8f0 f i libucrtd:output.obj
 0001:0005c8f0       ??$read_va_arg@_W@__crt_stdio_output@@YA_WAEAPEAD@Z 000000014005d8f0 f i libucrtd:output.obj
 0001:0005c960       ??$read_va_arg@I@__crt_stdio_output@@YAIAEAPEAD@Z 000000014005d960 f i libucrtd:output.obj
 0001:0005c960       ??$read_va_arg@H@__crt_stdio_output@@YAHAEAPEAD@Z 000000014005d960 f i libucrtd:output.obj
 0001:0005c9c0       ??$read_va_arg@PEAUansi_string@?1??type_case_Z@?$output_processor@DV?$stream_output_adapter@D@__crt_stdio_output@@V?$standard_base@DV?$stream_output_adapter@D@__crt_stdio_output@@@2@@__crt_stdio_output@@AEAA_NXZ@@__crt_stdio_output@@YAPEAUansi_string@?1??type_case_Z@?$output_processor@DV?$stream_output_adapter@D@__crt_stdio_output@@V?$standard_base@DV?$stream_output_adapter@D@__crt_stdio_output@@@2@@0@AEAA_NXZ@AEAPEAD@Z 000000014005d9c0 f i libucrtd:output.obj
 0001:0005c9c0       ??$read_va_arg@PEAUansi_string@?1??type_case_Z@?$output_processor@DV?$string_output_adapter@D@__crt_stdio_output@@V?$standard_base@DV?$string_output_adapter@D@__crt_stdio_output@@@2@@__crt_stdio_output@@AEAA_NXZ@@__crt_stdio_output@@YAPEAUansi_string@?1??type_case_Z@?$output_processor@DV?$string_output_adapter@D@__crt_stdio_output@@V?$standard_base@DV?$string_output_adapter@D@__crt_stdio_output@@@2@@0@AEAA_NXZ@AEAPEAD@Z 000000014005d9c0 f i libucrtd:output.obj
 0001:0005c9c0       ??$read_va_arg@PEAUansi_string@?1??type_case_Z@?$output_processor@_WV?$string_output_adapter@_W@__crt_stdio_output@@V?$standard_base@_WV?$string_output_adapter@_W@__crt_stdio_output@@@2@@__crt_stdio_output@@AEAA_NXZ@@__crt_stdio_output@@YAPEAUansi_string@?1??type_case_Z@?$output_processor@_WV?$string_output_adapter@_W@__crt_stdio_output@@V?$standard_base@_WV?$string_output_adapter@_W@__crt_stdio_output@@@2@@0@AEAA_NXZ@AEAPEAD@Z 000000014005d9c0 f i libucrtd:output.obj
 0001:0005c9c0       ??$read_va_arg@_K@__crt_stdio_output@@YA_KAEAPEAD@Z 000000014005d9c0 f i libucrtd:output.obj
 0001:0005c9c0       ??$read_va_arg@PEAX@__crt_stdio_output@@YAPEAXAEAPEAD@Z 000000014005d9c0 f i libucrtd:output.obj
 0001:0005c9c0       ??$read_va_arg@PEAUansi_string@?1??type_case_Z@?$output_processor@_WV?$stream_output_adapter@_W@__crt_stdio_output@@V?$standard_base@_WV?$stream_output_adapter@_W@__crt_stdio_output@@@2@@__crt_stdio_output@@AEAA_NXZ@@__crt_stdio_output@@YAPEAUansi_string@?1??type_case_Z@?$output_processor@_WV?$stream_output_adapter@_W@__crt_stdio_output@@V?$standard_base@_WV?$stream_output_adapter@_W@__crt_stdio_output@@@2@@0@AEAA_NXZ@AEAPEAD@Z 000000014005d9c0 f i libucrtd:output.obj
 0001:0005c9c0       ??$read_va_arg@PEAUansi_string@?1??type_case_Z@?$output_processor@DV?$string_output_adapter@D@__crt_stdio_output@@V?$format_validation_base@DV?$string_output_adapter@D@__crt_stdio_output@@@2@@__crt_stdio_output@@AEAA_NXZ@@__crt_stdio_output@@YAPEAUansi_string@?1??type_case_Z@?$output_processor@DV?$string_output_adapter@D@__crt_stdio_output@@V?$format_validation_base@DV?$string_output_adapter@D@__crt_stdio_output@@@2@@0@AEAA_NXZ@AEAPEAD@Z 000000014005d9c0 f i libucrtd:output.obj
 0001:0005c9c0       ??$read_va_arg@PEAUansi_string@?1??type_case_Z@?$output_processor@_WV?$string_output_adapter@_W@__crt_stdio_output@@V?$format_validation_base@_WV?$string_output_adapter@_W@__crt_stdio_output@@@2@@__crt_stdio_output@@AEAA_NXZ@@__crt_stdio_output@@YAPEAUansi_string@?1??type_case_Z@?$output_processor@_WV?$string_output_adapter@_W@__crt_stdio_output@@V?$format_validation_base@_WV?$string_output_adapter@_W@__crt_stdio_output@@@2@@0@AEAA_NXZ@AEAPEAD@Z 000000014005d9c0 f i libucrtd:output.obj
 0001:0005c9c0       ??$read_va_arg@_J@__crt_stdio_output@@YA_JAEAPEAD@Z 000000014005d9c0 f i libucrtd:output.obj
 0001:0005c9c0       ??$read_va_arg@U_CRT_DOUBLE@@@__crt_stdio_output@@YA?AU_CRT_DOUBLE@@AEAPEAD@Z 000000014005d9c0 f i libucrtd:output.obj
 0001:0005c9c0       ??$read_va_arg@PEAD@__crt_stdio_output@@YAPEADAEAPEAD@Z 000000014005d9c0 f i libucrtd:output.obj
 0001:0005ca30       ??$scratch_count@D@formatting_buffer@__crt_stdio_output@@QEBA_KXZ 000000014005da30 f i libucrtd:output.obj
 0001:0005ca50       ??$scratch_data@D@formatting_buffer@__crt_stdio_output@@QEAAPEADXZ 000000014005da50 f i libucrtd:output.obj
 0001:0005cac0       ??$tcstol@PEBDPEAPEADH@?$__crt_char_traits@D@@SAJ$$QEAPEBD$$QEAPEAPEAD$$QEAH@Z 000000014005dac0 f i libucrtd:output.obj
 0001:0005cb00       ??$tcstol@PEB_WPEAPEA_WH@?$__crt_char_traits@_W@@SAJ$$QEAPEB_W$$QEAPEAPEA_W$$QEAH@Z 000000014005db00 f i libucrtd:output.obj
 0001:0005cb40       ??$type_case_integer_parse_into_buffer@I@?$output_processor@DV?$stream_output_adapter@D@__crt_stdio_output@@V?$standard_base@DV?$stream_output_adapter@D@__crt_stdio_output@@@2@@__crt_stdio_output@@AEAAXII_N@Z 000000014005db40 f i libucrtd:output.obj
 0001:0005cb40       ??$type_case_integer_parse_into_buffer@I@?$output_processor@DV?$string_output_adapter@D@__crt_stdio_output@@V?$format_validation_base@DV?$string_output_adapter@D@__crt_stdio_output@@@2@@__crt_stdio_output@@AEAAXII_N@Z 000000014005db40 f i libucrtd:output.obj
 0001:0005cb40       ??$type_case_integer_parse_into_buffer@I@?$output_processor@DV?$string_output_adapter@D@__crt_stdio_output@@V?$standard_base@DV?$string_output_adapter@D@__crt_stdio_output@@@2@@__crt_stdio_output@@AEAAXII_N@Z 000000014005db40 f i libucrtd:output.obj
 0001:0005cc70       ??$type_case_integer_parse_into_buffer@I@?$output_processor@_WV?$string_output_adapter@_W@__crt_stdio_output@@V?$standard_base@_WV?$string_output_adapter@_W@__crt_stdio_output@@@2@@__crt_stdio_output@@AEAAXII_N@Z 000000014005dc70 f i libucrtd:output.obj
 0001:0005cc70       ??$type_case_integer_parse_into_buffer@I@?$output_processor@_WV?$stream_output_adapter@_W@__crt_stdio_output@@V?$standard_base@_WV?$stream_output_adapter@_W@__crt_stdio_output@@@2@@__crt_stdio_output@@AEAAXII_N@Z 000000014005dc70 f i libucrtd:output.obj
 0001:0005cc70       ??$type_case_integer_parse_into_buffer@I@?$output_processor@_WV?$string_output_adapter@_W@__crt_stdio_output@@V?$format_validation_base@_WV?$string_output_adapter@_W@__crt_stdio_output@@@2@@__crt_stdio_output@@AEAAXII_N@Z 000000014005dc70 f i libucrtd:output.obj
 0001:0005cdb0       ??$type_case_integer_parse_into_buffer@_K@?$output_processor@DV?$string_output_adapter@D@__crt_stdio_output@@V?$standard_base@DV?$string_output_adapter@D@__crt_stdio_output@@@2@@__crt_stdio_output@@AEAAX_KI_N@Z 000000014005ddb0 f i libucrtd:output.obj
 0001:0005cdb0       ??$type_case_integer_parse_into_buffer@_K@?$output_processor@DV?$string_output_adapter@D@__crt_stdio_output@@V?$format_validation_base@DV?$string_output_adapter@D@__crt_stdio_output@@@2@@__crt_stdio_output@@AEAAX_KI_N@Z 000000014005ddb0 f i libucrtd:output.obj
 0001:0005cdb0       ??$type_case_integer_parse_into_buffer@_K@?$output_processor@DV?$stream_output_adapter@D@__crt_stdio_output@@V?$standard_base@DV?$stream_output_adapter@D@__crt_stdio_output@@@2@@__crt_stdio_output@@AEAAX_KI_N@Z 000000014005ddb0 f i libucrtd:output.obj
 0001:0005cf00       ??$type_case_integer_parse_into_buffer@_K@?$output_processor@_WV?$stream_output_adapter@_W@__crt_stdio_output@@V?$standard_base@_WV?$stream_output_adapter@_W@__crt_stdio_output@@@2@@__crt_stdio_output@@AEAAX_KI_N@Z 000000014005df00 f i libucrtd:output.obj
 0001:0005cf00       ??$type_case_integer_parse_into_buffer@_K@?$output_processor@_WV?$string_output_adapter@_W@__crt_stdio_output@@V?$format_validation_base@_WV?$string_output_adapter@_W@__crt_stdio_output@@@2@@__crt_stdio_output@@AEAAX_KI_N@Z 000000014005df00 f i libucrtd:output.obj
 0001:0005cf00       ??$type_case_integer_parse_into_buffer@_K@?$output_processor@_WV?$string_output_adapter@_W@__crt_stdio_output@@V?$standard_base@_WV?$string_output_adapter@_W@__crt_stdio_output@@@2@@__crt_stdio_output@@AEAAX_KI_N@Z 000000014005df00 f i libucrtd:output.obj
 0001:0005d060       ??$write_multiple_characters@V?$stream_output_adapter@D@__crt_stdio_output@@D@__crt_stdio_output@@YAXAEBV?$stream_output_adapter@D@0@DHQEAH@Z 000000014005e060 f i libucrtd:output.obj
 0001:0005d0c0       ??$write_multiple_characters@V?$stream_output_adapter@_W@__crt_stdio_output@@D@__crt_stdio_output@@YAXAEBV?$stream_output_adapter@_W@0@DHQEAH@Z 000000014005e0c0 f i libucrtd:output.obj
 0001:0005d120       ??$write_multiple_characters@V?$string_output_adapter@D@__crt_stdio_output@@D@__crt_stdio_output@@YAXAEBV?$string_output_adapter@D@0@DHQEAH@Z 000000014005e120 f i libucrtd:output.obj
 0001:0005d180       ??$write_multiple_characters@V?$string_output_adapter@_W@__crt_stdio_output@@D@__crt_stdio_output@@YAXAEBV?$string_output_adapter@_W@0@DHQEAH@Z 000000014005e180 f i libucrtd:output.obj
 0001:0005d260       ??0?$common_data@D@__crt_stdio_output@@IEAA@XZ 000000014005e260 f i libucrtd:output.obj
 0001:0005d330       ??0?$common_data@_W@__crt_stdio_output@@IEAA@XZ 000000014005e330 f i libucrtd:output.obj
 0001:0005d400       ??0?$output_adapter_data@DV?$stream_output_adapter@D@__crt_stdio_output@@@__crt_stdio_output@@IEAA@AEBV?$stream_output_adapter@D@1@_KQEBDQEAU__crt_locale_pointers@@QEAD@Z 000000014005e400 f i libucrtd:output.obj
 0001:0005d400       ??0?$output_adapter_data@DV?$string_output_adapter@D@__crt_stdio_output@@@__crt_stdio_output@@IEAA@AEBV?$string_output_adapter@D@1@_KQEBDQEAU__crt_locale_pointers@@QEAD@Z 000000014005e400 f i libucrtd:output.obj
 0001:0005d480       ??0?$output_adapter_data@_WV?$string_output_adapter@_W@__crt_stdio_output@@@__crt_stdio_output@@IEAA@AEBV?$string_output_adapter@_W@1@_KQEB_WQEAU__crt_locale_pointers@@QEAD@Z 000000014005e480 f i libucrtd:output.obj
 0001:0005d480       ??0?$output_adapter_data@_WV?$stream_output_adapter@_W@__crt_stdio_output@@@__crt_stdio_output@@IEAA@AEBV?$stream_output_adapter@_W@1@_KQEB_WQEAU__crt_locale_pointers@@QEAD@Z 000000014005e480 f i libucrtd:output.obj
 0001:0005d500       ??0?$output_processor@DV?$string_output_adapter@D@__crt_stdio_output@@V?$standard_base@DV?$string_output_adapter@D@__crt_stdio_output@@@2@@__crt_stdio_output@@QEAA@AEBV?$string_output_adapter@D@1@_KQEBDQEAU__crt_locale_pointers@@QEAD@Z 000000014005e500 f i libucrtd:output.obj
 0001:0005d500       ??0?$output_processor@DV?$stream_output_adapter@D@__crt_stdio_output@@V?$standard_base@DV?$stream_output_adapter@D@__crt_stdio_output@@@2@@__crt_stdio_output@@QEAA@AEBV?$stream_output_adapter@D@1@_KQEBDQEAU__crt_locale_pointers@@QEAD@Z 000000014005e500 f i libucrtd:output.obj
 0001:0005d550       ??0?$output_processor@DV?$string_output_adapter@D@__crt_stdio_output@@V?$format_validation_base@DV?$string_output_adapter@D@__crt_stdio_output@@@2@@__crt_stdio_output@@QEAA@AEBV?$string_output_adapter@D@1@_KQEBDQEAU__crt_locale_pointers@@QEAD@Z 000000014005e550 f i libucrtd:output.obj
 0001:0005d5a0       ??0?$output_processor@_WV?$stream_output_adapter@_W@__crt_stdio_output@@V?$standard_base@_WV?$stream_output_adapter@_W@__crt_stdio_output@@@2@@__crt_stdio_output@@QEAA@AEBV?$stream_output_adapter@_W@1@_KQEB_WQEAU__crt_locale_pointers@@QEAD@Z 000000014005e5a0 f i libucrtd:output.obj
 0001:0005d5a0       ??0?$output_processor@_WV?$string_output_adapter@_W@__crt_stdio_output@@V?$standard_base@_WV?$string_output_adapter@_W@__crt_stdio_output@@@2@@__crt_stdio_output@@QEAA@AEBV?$string_output_adapter@_W@1@_KQEB_WQEAU__crt_locale_pointers@@QEAD@Z 000000014005e5a0 f i libucrtd:output.obj
 0001:0005d5f0       ??0?$output_processor@_WV?$string_output_adapter@_W@__crt_stdio_output@@V?$format_validation_base@_WV?$string_output_adapter@_W@__crt_stdio_output@@@2@@__crt_stdio_output@@QEAA@AEBV?$string_output_adapter@_W@1@_KQEB_WQEAU__crt_locale_pointers@@QEAD@Z 000000014005e5f0 f i libucrtd:output.obj
 0001:0005d640       ??0?$stream_output_adapter@D@__crt_stdio_output@@QEAA@QEAU_iobuf@@@Z 000000014005e640 f i libucrtd:output.obj
 0001:0005d640       ??0?$stream_output_adapter@_W@__crt_stdio_output@@QEAA@QEAU_iobuf@@@Z 000000014005e640 f i libucrtd:output.obj
 0001:0005d670       ??0_LocaleUpdate@@QEAA@QEAU__crt_locale_pointers@@@Z 000000014005e670 f i libucrtd:output.obj
 0001:0005d790       ??0__acrt_stdio_temporary_buffering_guard@@QEAA@QEAU_iobuf@@@Z 000000014005e790 f i libucrtd:output.obj
 0001:0005d7d0       ??0__crt_stdio_stream@@QEAA@XZ 000000014005e7d0 f i libucrtd:stream.obj
 0001:0005d7d0       ??0__crt_deferred_errno_cache@@QEAA@XZ 000000014005e7d0 f i libucrtd:output.obj
 0001:0005d7f0       ??0__crt_errno_guard@@QEAA@QEAH@Z 000000014005e7f0 f i libucrtd:output.obj
 0001:0005d830       ??0formatting_buffer@__crt_stdio_output@@QEAA@XZ 000000014005e830 f i libucrtd:output.obj
 0001:0005d870       ??1?$common_data@_W@__crt_stdio_output@@QEAA@XZ 000000014005e870 f i libucrtd:output.obj
 0001:0005d870       ??1?$common_data@D@__crt_stdio_output@@QEAA@XZ 000000014005e870 f i libucrtd:output.obj
 0001:0005d890       ??1?$output_processor@DV?$string_output_adapter@D@__crt_stdio_output@@V?$standard_base@DV?$string_output_adapter@D@__crt_stdio_output@@@2@@__crt_stdio_output@@QEAA@XZ 000000014005e890 f i libucrtd:output.obj
 0001:0005d890       ??1?$output_processor@_WV?$string_output_adapter@_W@__crt_stdio_output@@V?$standard_base@_WV?$string_output_adapter@_W@__crt_stdio_output@@@2@@__crt_stdio_output@@QEAA@XZ 000000014005e890 f i libucrtd:output.obj
 0001:0005d890       ??1?$output_processor@DV?$stream_output_adapter@D@__crt_stdio_output@@V?$standard_base@DV?$stream_output_adapter@D@__crt_stdio_output@@@2@@__crt_stdio_output@@QEAA@XZ 000000014005e890 f i libucrtd:output.obj
 0001:0005d890       ??1?$format_validation_base@DV?$string_output_adapter@D@__crt_stdio_output@@@__crt_stdio_output@@QEAA@XZ 000000014005e890 f i libucrtd:output.obj
 0001:0005d890       ??1?$format_validation_base@_WV?$string_output_adapter@_W@__crt_stdio_output@@@__crt_stdio_output@@QEAA@XZ 000000014005e890 f i libucrtd:output.obj
 0001:0005d890       ??1?$output_processor@_WV?$stream_output_adapter@_W@__crt_stdio_output@@V?$standard_base@_WV?$stream_output_adapter@_W@__crt_stdio_output@@@2@@__crt_stdio_output@@QEAA@XZ 000000014005e890 f i libucrtd:output.obj
 0001:0005d8b0       ??1?$output_adapter_data@DV?$stream_output_adapter@D@__crt_stdio_output@@@__crt_stdio_output@@QEAA@XZ 000000014005e8b0 f i libucrtd:output.obj
 0001:0005d8b0       ??1?$output_adapter_data@DV?$string_output_adapter@D@__crt_stdio_output@@@__crt_stdio_output@@QEAA@XZ 000000014005e8b0 f i libucrtd:output.obj
 0001:0005d8b0       ??1?$output_adapter_data@_WV?$string_output_adapter@_W@__crt_stdio_output@@@__crt_stdio_output@@QEAA@XZ 000000014005e8b0 f i libucrtd:output.obj
 0001:0005d8b0       ??1?$output_adapter_data@_WV?$stream_output_adapter@_W@__crt_stdio_output@@@__crt_stdio_output@@QEAA@XZ 000000014005e8b0 f i libucrtd:output.obj
 0001:0005d8d0       ??1?$output_processor@_WV?$string_output_adapter@_W@__crt_stdio_output@@V?$format_validation_base@_WV?$string_output_adapter@_W@__crt_stdio_output@@@2@@__crt_stdio_output@@QEAA@XZ 000000014005e8d0 f i libucrtd:output.obj
 0001:0005d8d0       ??1?$output_processor@DV?$string_output_adapter@D@__crt_stdio_output@@V?$format_validation_base@DV?$string_output_adapter@D@__crt_stdio_output@@@2@@__crt_stdio_output@@QEAA@XZ 000000014005e8d0 f i libucrtd:output.obj
 0001:0005d8f0       ??1?$standard_base@DV?$stream_output_adapter@D@__crt_stdio_output@@@__crt_stdio_output@@QEAA@XZ 000000014005e8f0 f i libucrtd:output.obj
 0001:0005d8f0       ??1?$standard_base@_WV?$string_output_adapter@_W@__crt_stdio_output@@@__crt_stdio_output@@QEAA@XZ 000000014005e8f0 f i libucrtd:output.obj
 0001:0005d8f0       ??1?$standard_base@_WV?$stream_output_adapter@_W@__crt_stdio_output@@@__crt_stdio_output@@QEAA@XZ 000000014005e8f0 f i libucrtd:output.obj
 0001:0005d8f0       ??1?$standard_base@DV?$string_output_adapter@D@__crt_stdio_output@@@__crt_stdio_output@@QEAA@XZ 000000014005e8f0 f i libucrtd:output.obj
 0001:0005d910       ??1_LocaleUpdate@@QEAA@XZ  000000014005e910 f i libucrtd:output.obj
 0001:0005d940       ??1__acrt_stdio_temporary_buffering_guard@@QEAA@XZ 000000014005e940 f i libucrtd:output.obj
 0001:0005d970       ??1__crt_errno_guard@@QEAA@XZ 000000014005e970 f i libucrtd:output.obj
 0001:0005d9a0       ??1formatting_buffer@__crt_stdio_output@@QEAA@XZ 000000014005e9a0 f i libucrtd:output.obj
 0001:0005d9d0       ??4?$__crt_unique_heap_ptr@DU__crt_internal_free_policy@@@@QEAAAEAV0@$$QEAV0@@Z 000000014005e9d0 f i libucrtd:output.obj
 0001:0005da10       ??A?$spectre_mitigated_lookup_table@Ustate_transition_pair@__crt_stdio_output@@$0IA@@__crt_stdio_output@@QEBAAEBUstate_transition_pair@1@_K@Z 000000014005ea10 f i libucrtd:output.obj
 0001:0005dcd0       ?GetLocaleT@_LocaleUpdate@@QEAAPEAU__crt_locale_pointers@@XZ 000000014005ecd0 f i libucrtd:output.obj
 0001:0005dce0       ?adjust_hexit@?$output_processor@_WV?$string_output_adapter@_W@__crt_stdio_output@@V?$standard_base@_WV?$string_output_adapter@_W@__crt_stdio_output@@@2@@__crt_stdio_output@@CADH_N@Z 000000014005ece0 f i libucrtd:output.obj
 0001:0005dce0       ?adjust_hexit@?$output_processor@DV?$stream_output_adapter@D@__crt_stdio_output@@V?$standard_base@DV?$stream_output_adapter@D@__crt_stdio_output@@@2@@__crt_stdio_output@@CADH_N@Z 000000014005ece0 f i libucrtd:output.obj
 0001:0005dce0       ?adjust_hexit@?$output_processor@DV?$string_output_adapter@D@__crt_stdio_output@@V?$format_validation_base@DV?$string_output_adapter@D@__crt_stdio_output@@@2@@__crt_stdio_output@@CADH_N@Z 000000014005ece0 f i libucrtd:output.obj
 0001:0005dce0       ?adjust_hexit@?$output_processor@_WV?$string_output_adapter@_W@__crt_stdio_output@@V?$format_validation_base@_WV?$string_output_adapter@_W@__crt_stdio_output@@@2@@__crt_stdio_output@@CADH_N@Z 000000014005ece0 f i libucrtd:output.obj
 0001:0005dce0       ?adjust_hexit@?$output_processor@_WV?$stream_output_adapter@_W@__crt_stdio_output@@V?$standard_base@_WV?$stream_output_adapter@_W@__crt_stdio_output@@@2@@__crt_stdio_output@@CADH_N@Z 000000014005ece0 f i libucrtd:output.obj
 0001:0005dce0       ?adjust_hexit@?$output_processor@DV?$string_output_adapter@D@__crt_stdio_output@@V?$standard_base@DV?$string_output_adapter@D@__crt_stdio_output@@@2@@__crt_stdio_output@@CADH_N@Z 000000014005ece0 f i libucrtd:output.obj
 0001:0005dd30       ?advance_to_next_pass@?$standard_base@DV?$stream_output_adapter@D@__crt_stdio_output@@@__crt_stdio_output@@IEAA_NXZ 000000014005ed30 f i libucrtd:output.obj
 0001:0005dd30       ?advance_to_next_pass@?$standard_base@_WV?$string_output_adapter@_W@__crt_stdio_output@@@__crt_stdio_output@@IEAA_NXZ 000000014005ed30 f i libucrtd:output.obj
 0001:0005dd30       ?advance_to_next_pass@?$standard_base@_WV?$stream_output_adapter@_W@__crt_stdio_output@@@__crt_stdio_output@@IEAA_NXZ 000000014005ed30 f i libucrtd:output.obj
 0001:0005dd30       ?advance_to_next_pass@?$standard_base@DV?$string_output_adapter@D@__crt_stdio_output@@@__crt_stdio_output@@IEAA_NXZ 000000014005ed30 f i libucrtd:output.obj
 0001:0005dd80       ?crop_zeroes@__crt_stdio_output@@YAXPEADQEAU__crt_locale_pointers@@@Z 000000014005ed80 f i libucrtd:output.obj
 0001:0005dec0       ?find_next_state@?$output_processor@DV?$stream_output_adapter@D@__crt_stdio_output@@V?$standard_base@DV?$stream_output_adapter@D@__crt_stdio_output@@@2@@__crt_stdio_output@@AEBA?AW4state@2@DW432@@Z 000000014005eec0 f i libucrtd:output.obj
 0001:0005dec0       ?find_next_state@?$output_processor@DV?$string_output_adapter@D@__crt_stdio_output@@V?$standard_base@DV?$string_output_adapter@D@__crt_stdio_output@@@2@@__crt_stdio_output@@AEBA?AW4state@2@DW432@@Z 000000014005eec0 f i libucrtd:output.obj
 0001:0005df50       ?find_next_state@?$output_processor@DV?$string_output_adapter@D@__crt_stdio_output@@V?$format_validation_base@DV?$string_output_adapter@D@__crt_stdio_output@@@2@@__crt_stdio_output@@AEBA?AW4state@2@DW432@@Z 000000014005ef50 f i libucrtd:output.obj
 0001:0005dfe0       ?find_next_state@?$output_processor@_WV?$stream_output_adapter@_W@__crt_stdio_output@@V?$standard_base@_WV?$stream_output_adapter@_W@__crt_stdio_output@@@2@@__crt_stdio_output@@AEBA?AW4state@2@_WW432@@Z 000000014005efe0 f i libucrtd:output.obj
 0001:0005dfe0       ?find_next_state@?$output_processor@_WV?$string_output_adapter@_W@__crt_stdio_output@@V?$standard_base@_WV?$string_output_adapter@_W@__crt_stdio_output@@@2@@__crt_stdio_output@@AEBA?AW4state@2@_WW432@@Z 000000014005efe0 f i libucrtd:output.obj
 0001:0005e070       ?find_next_state@?$output_processor@_WV?$string_output_adapter@_W@__crt_stdio_output@@V?$format_validation_base@_WV?$string_output_adapter@_W@__crt_stdio_output@@@2@@__crt_stdio_output@@AEBA?AW4state@2@_WW432@@Z 000000014005f070 f i libucrtd:output.obj
 0001:0005e100       ?force_decimal_point@__crt_stdio_output@@YAXPEADQEAU__crt_locale_pointers@@@Z 000000014005f100 f i libucrtd:output.obj
 0001:0005e200       ?get@__crt_deferred_errno_cache@@QEAAAEAHXZ 000000014005f200 f i libucrtd:output.obj
 0001:0005e230       ?has_flag@?$output_processor@DV?$stream_output_adapter@D@__crt_stdio_output@@V?$standard_base@DV?$stream_output_adapter@D@__crt_stdio_output@@@2@@__crt_stdio_output@@AEBA_NI@Z 000000014005f230 f i libucrtd:output.obj
 0001:0005e230       ?has_flag@?$output_processor@_WV?$stream_output_adapter@_W@__crt_stdio_output@@V?$standard_base@_WV?$stream_output_adapter@_W@__crt_stdio_output@@@2@@__crt_stdio_output@@AEBA_NI@Z 000000014005f230 f i libucrtd:output.obj
 0001:0005e230       ?has_flag@?$output_processor@_WV?$string_output_adapter@_W@__crt_stdio_output@@V?$format_validation_base@_WV?$string_output_adapter@_W@__crt_stdio_output@@@2@@__crt_stdio_output@@AEBA_NI@Z 000000014005f230 f i libucrtd:output.obj
 0001:0005e230       ?has_flag@?$output_processor@DV?$string_output_adapter@D@__crt_stdio_output@@V?$standard_base@DV?$string_output_adapter@D@__crt_stdio_output@@@2@@__crt_stdio_output@@AEBA_NI@Z 000000014005f230 f i libucrtd:output.obj
 0001:0005e230       ?has_flag@?$output_processor@DV?$string_output_adapter@D@__crt_stdio_output@@V?$format_validation_base@DV?$string_output_adapter@D@__crt_stdio_output@@@2@@__crt_stdio_output@@AEBA_NI@Z 000000014005f230 f i libucrtd:output.obj
 0001:0005e230       ?has_flag@?$output_processor@_WV?$string_output_adapter@_W@__crt_stdio_output@@V?$standard_base@_WV?$string_output_adapter@_W@__crt_stdio_output@@@2@@__crt_stdio_output@@AEBA_NI@Z 000000014005f230 f i libucrtd:output.obj
 0001:0005e270       ?narrow_null_string@?$output_processor@DV?$string_output_adapter@D@__crt_stdio_output@@V?$standard_base@DV?$string_output_adapter@D@__crt_stdio_output@@@2@@__crt_stdio_output@@CAPEADXZ 000000014005f270 f i libucrtd:output.obj
 0001:0005e270       ?narrow_null_string@?$output_processor@_WV?$string_output_adapter@_W@__crt_stdio_output@@V?$format_validation_base@_WV?$string_output_adapter@_W@__crt_stdio_output@@@2@@__crt_stdio_output@@CAPEADXZ 000000014005f270 f i libucrtd:output.obj
 0001:0005e270       ?narrow_null_string@?$output_processor@_WV?$string_output_adapter@_W@__crt_stdio_output@@V?$standard_base@_WV?$string_output_adapter@_W@__crt_stdio_output@@@2@@__crt_stdio_output@@CAPEADXZ 000000014005f270 f i libucrtd:output.obj
 0001:0005e270       ?narrow_null_string@?$output_processor@DV?$stream_output_adapter@D@__crt_stdio_output@@V?$standard_base@DV?$stream_output_adapter@D@__crt_stdio_output@@@2@@__crt_stdio_output@@CAPEADXZ 000000014005f270 f i libucrtd:output.obj
 0001:0005e270       ?narrow_null_string@?$output_processor@_WV?$stream_output_adapter@_W@__crt_stdio_output@@V?$standard_base@_WV?$stream_output_adapter@_W@__crt_stdio_output@@@2@@__crt_stdio_output@@CAPEADXZ 000000014005f270 f i libucrtd:output.obj
 0001:0005e270       ?narrow_null_string@?$output_processor@DV?$string_output_adapter@D@__crt_stdio_output@@V?$format_validation_base@DV?$string_output_adapter@D@__crt_stdio_output@@@2@@__crt_stdio_output@@CAPEADXZ 000000014005f270 f i libucrtd:output.obj
 0001:0005e280       ?parse_int_from_format_string@?$output_processor@DV?$stream_output_adapter@D@__crt_stdio_output@@V?$standard_base@DV?$stream_output_adapter@D@__crt_stdio_output@@@2@@__crt_stdio_output@@AEAA_NQEAH@Z 000000014005f280 f i libucrtd:output.obj
 0001:0005e280       ?parse_int_from_format_string@?$output_processor@DV?$string_output_adapter@D@__crt_stdio_output@@V?$standard_base@DV?$string_output_adapter@D@__crt_stdio_output@@@2@@__crt_stdio_output@@AEAA_NQEAH@Z 000000014005f280 f i libucrtd:output.obj
 0001:0005e280       ?parse_int_from_format_string@?$output_processor@DV?$string_output_adapter@D@__crt_stdio_output@@V?$format_validation_base@DV?$string_output_adapter@D@__crt_stdio_output@@@2@@__crt_stdio_output@@AEAA_NQEAH@Z 000000014005f280 f i libucrtd:output.obj
 0001:0005e370       ?parse_int_from_format_string@?$output_processor@_WV?$string_output_adapter@_W@__crt_stdio_output@@V?$standard_base@_WV?$string_output_adapter@_W@__crt_stdio_output@@@2@@__crt_stdio_output@@AEAA_NQEAH@Z 000000014005f370 f i libucrtd:output.obj
 0001:0005e370       ?parse_int_from_format_string@?$output_processor@_WV?$stream_output_adapter@_W@__crt_stdio_output@@V?$standard_base@_WV?$stream_output_adapter@_W@__crt_stdio_output@@@2@@__crt_stdio_output@@AEAA_NQEAH@Z 000000014005f370 f i libucrtd:output.obj
 0001:0005e370       ?parse_int_from_format_string@?$output_processor@_WV?$string_output_adapter@_W@__crt_stdio_output@@V?$format_validation_base@_WV?$string_output_adapter@_W@__crt_stdio_output@@@2@@__crt_stdio_output@@AEAA_NQEAH@Z 000000014005f370 f i libucrtd:output.obj
 0001:0005e460       ?process@?$output_processor@DV?$stream_output_adapter@D@__crt_stdio_output@@V?$standard_base@DV?$stream_output_adapter@D@__crt_stdio_output@@@2@@__crt_stdio_output@@QEAAHXZ 000000014005f460 f i libucrtd:output.obj
 0001:0005e7c0       ?process@?$output_processor@DV?$string_output_adapter@D@__crt_stdio_output@@V?$format_validation_base@DV?$string_output_adapter@D@__crt_stdio_output@@@2@@__crt_stdio_output@@QEAAHXZ 000000014005f7c0 f i libucrtd:output.obj
 0001:0005eb20       ?process@?$output_processor@DV?$string_output_adapter@D@__crt_stdio_output@@V?$standard_base@DV?$string_output_adapter@D@__crt_stdio_output@@@2@@__crt_stdio_output@@QEAAHXZ 000000014005fb20 f i libucrtd:output.obj
 0001:0005ee80       ?process@?$output_processor@_WV?$stream_output_adapter@_W@__crt_stdio_output@@V?$standard_base@_WV?$stream_output_adapter@_W@__crt_stdio_output@@@2@@__crt_stdio_output@@QEAAHXZ 000000014005fe80 f i libucrtd:output.obj
 0001:0005f1e0       ?process@?$output_processor@_WV?$string_output_adapter@_W@__crt_stdio_output@@V?$format_validation_base@_WV?$string_output_adapter@_W@__crt_stdio_output@@@2@@__crt_stdio_output@@QEAAHXZ 00000001400601e0 f i libucrtd:output.obj
 0001:0005f540       ?process@?$output_processor@_WV?$string_output_adapter@_W@__crt_stdio_output@@V?$standard_base@_WV?$string_output_adapter@_W@__crt_stdio_output@@@2@@__crt_stdio_output@@QEAAHXZ 0000000140060540 f i libucrtd:output.obj
 0001:0005f8a0       ?set_flag@?$output_processor@_WV?$string_output_adapter@_W@__crt_stdio_output@@V?$format_validation_base@_WV?$string_output_adapter@_W@__crt_stdio_output@@@2@@__crt_stdio_output@@AEAAXI@Z 00000001400608a0 f i libucrtd:output.obj
 0001:0005f8a0       ?set_flag@?$output_processor@_WV?$stream_output_adapter@_W@__crt_stdio_output@@V?$standard_base@_WV?$stream_output_adapter@_W@__crt_stdio_output@@@2@@__crt_stdio_output@@AEAAXI@Z 00000001400608a0 f i libucrtd:output.obj
 0001:0005f8a0       ?set_flag@?$output_processor@DV?$stream_output_adapter@D@__crt_stdio_output@@V?$standard_base@DV?$stream_output_adapter@D@__crt_stdio_output@@@2@@__crt_stdio_output@@AEAAXI@Z 00000001400608a0 f i libucrtd:output.obj
 0001:0005f8a0       ?set_flag@?$output_processor@_WV?$string_output_adapter@_W@__crt_stdio_output@@V?$standard_base@_WV?$string_output_adapter@_W@__crt_stdio_output@@@2@@__crt_stdio_output@@AEAAXI@Z 00000001400608a0 f i libucrtd:output.obj
 0001:0005f8a0       ?set_flag@?$output_processor@DV?$string_output_adapter@D@__crt_stdio_output@@V?$standard_base@DV?$string_output_adapter@D@__crt_stdio_output@@@2@@__crt_stdio_output@@AEAAXI@Z 00000001400608a0 f i libucrtd:output.obj
 0001:0005f8a0       ?set_flag@?$output_processor@DV?$string_output_adapter@D@__crt_stdio_output@@V?$format_validation_base@DV?$string_output_adapter@D@__crt_stdio_output@@@2@@__crt_stdio_output@@AEAAXI@Z 00000001400608a0 f i libucrtd:output.obj
 0001:0005f8c0       ?should_format@?$standard_base@_WV?$string_output_adapter@_W@__crt_stdio_output@@@__crt_stdio_output@@IEAA_NXZ 00000001400608c0 f i libucrtd:output.obj
 0001:0005f8c0       ?validate_and_update_state_at_beginning_of_format_character@?$standard_base@_WV?$stream_output_adapter@_W@__crt_stdio_output@@@__crt_stdio_output@@IEAA_NXZ 00000001400608c0 f i libucrtd:output.obj
 0001:0005f8c0       ?validate_and_update_state_at_end_of_format_string@?$standard_base@DV?$string_output_adapter@D@__crt_stdio_output@@@__crt_stdio_output@@IEBA_NXZ 00000001400608c0 f i libucrtd:output.obj
 0001:0005f8c0       ?should_format@?$standard_base@DV?$stream_output_adapter@D@__crt_stdio_output@@@__crt_stdio_output@@IEAA_NXZ 00000001400608c0 f i libucrtd:output.obj
 0001:0005f8c0       ?validate_state_for_type_case_a@?$standard_base@_WV?$stream_output_adapter@_W@__crt_stdio_output@@@__crt_stdio_output@@IEBA_NXZ 00000001400608c0 f i libucrtd:output.obj
 0001:0005f8c0       ?validate_and_update_state_at_beginning_of_format_character@?$standard_base@_WV?$string_output_adapter@_W@__crt_stdio_output@@@__crt_stdio_output@@IEAA_NXZ 00000001400608c0 f i libucrtd:output.obj
 0001:0005f8c0       ?validate_and_update_state_at_end_of_format_string@?$standard_base@_WV?$stream_output_adapter@_W@__crt_stdio_output@@@__crt_stdio_output@@IEBA_NXZ 00000001400608c0 f i libucrtd:output.obj
 0001:0005f8c0       ?should_format@?$standard_base@_WV?$stream_output_adapter@_W@__crt_stdio_output@@@__crt_stdio_output@@IEAA_NXZ 00000001400608c0 f i libucrtd:output.obj
 0001:0005f8c0       ?validate_stream_is_ansi_if_required@?$__acrt_stdio_char_traits@_W@@SA_NQEAU_iobuf@@@Z 00000001400608c0 f i libucrtd:output.obj
 0001:0005f8c0       ?validate_state_for_type_case_a@?$standard_base@DV?$stream_output_adapter@D@__crt_stdio_output@@@__crt_stdio_output@@IEBA_NXZ 00000001400608c0 f i libucrtd:output.obj
 0001:0005f8c0       ?validate_and_update_state_at_beginning_of_format_character@?$standard_base@DV?$stream_output_adapter@D@__crt_stdio_output@@@__crt_stdio_output@@IEAA_NXZ 00000001400608c0 f i libucrtd:output.obj
 0001:0005f8c0       ?validate_state_for_type_case_a@?$standard_base@_WV?$string_output_adapter@_W@__crt_stdio_output@@@__crt_stdio_output@@IEBA_NXZ 00000001400608c0 f i libucrtd:output.obj
 0001:0005f8c0       ?validate_and_update_state_at_end_of_format_string@?$standard_base@DV?$stream_output_adapter@D@__crt_stdio_output@@@__crt_stdio_output@@IEBA_NXZ 00000001400608c0 f i libucrtd:output.obj
 0001:0005f8c0       ?should_format@?$standard_base@DV?$string_output_adapter@D@__crt_stdio_output@@@__crt_stdio_output@@IEAA_NXZ 00000001400608c0 f i libucrtd:output.obj
 0001:0005f8c0       ?validate_state_for_type_case_a@?$standard_base@DV?$string_output_adapter@D@__crt_stdio_output@@@__crt_stdio_output@@IEBA_NXZ 00000001400608c0 f i libucrtd:output.obj
 0001:0005f8c0       ?validate_and_update_state_at_end_of_format_string@?$standard_base@_WV?$string_output_adapter@_W@__crt_stdio_output@@@__crt_stdio_output@@IEBA_NXZ 00000001400608c0 f i libucrtd:output.obj
 0001:0005f8c0       ?validate_and_update_state_at_beginning_of_format_character@?$standard_base@DV?$string_output_adapter@D@__crt_stdio_output@@@__crt_stdio_output@@IEAA_NXZ 00000001400608c0 f i libucrtd:output.obj
 0001:0005f8d0       ?should_skip_type_state_output@?$standard_base@DV?$stream_output_adapter@D@__crt_stdio_output@@@__crt_stdio_output@@IEBA_NXZ 00000001400608d0 f i libucrtd:output.obj
 0001:0005f8d0       ?should_skip_type_state_output@?$standard_base@DV?$string_output_adapter@D@__crt_stdio_output@@@__crt_stdio_output@@IEBA_NXZ 00000001400608d0 f i libucrtd:output.obj
 0001:0005f8d0       ?should_skip_normal_state_processing@?$standard_base@DV?$stream_output_adapter@D@__crt_stdio_output@@@__crt_stdio_output@@IEAA_NXZ 00000001400608d0 f i libucrtd:output.obj
 0001:0005f8d0       ?should_skip_normal_state_processing@?$standard_base@_WV?$string_output_adapter@_W@__crt_stdio_output@@@__crt_stdio_output@@IEAA_NXZ 00000001400608d0 f i libucrtd:output.obj
 0001:0005f8d0       ?should_skip_type_state_output@?$standard_base@_WV?$string_output_adapter@_W@__crt_stdio_output@@@__crt_stdio_output@@IEBA_NXZ 00000001400608d0 f i libucrtd:output.obj
 0001:0005f8d0       ?should_skip_type_state_output@?$standard_base@_WV?$stream_output_adapter@_W@__crt_stdio_output@@@__crt_stdio_output@@IEBA_NXZ 00000001400608d0 f i libucrtd:output.obj
 0001:0005f8d0       ?should_skip_normal_state_processing@?$standard_base@_WV?$stream_output_adapter@_W@__crt_stdio_output@@@__crt_stdio_output@@IEAA_NXZ 00000001400608d0 f i libucrtd:output.obj
 0001:0005f8d0       ?should_skip_normal_state_processing@?$standard_base@DV?$string_output_adapter@D@__crt_stdio_output@@@__crt_stdio_output@@IEAA_NXZ 00000001400608d0 f i libucrtd:output.obj
 0001:0005f8e0       ?state_case_dot@?$output_processor@_WV?$stream_output_adapter@_W@__crt_stdio_output@@V?$standard_base@_WV?$stream_output_adapter@_W@__crt_stdio_output@@@2@@__crt_stdio_output@@AEAA_NXZ 00000001400608e0 f i libucrtd:output.obj
 0001:0005f8e0       ?state_case_dot@?$output_processor@DV?$stream_output_adapter@D@__crt_stdio_output@@V?$standard_base@DV?$stream_output_adapter@D@__crt_stdio_output@@@2@@__crt_stdio_output@@AEAA_NXZ 00000001400608e0 f i libucrtd:output.obj
 0001:0005f8e0       ?state_case_dot@?$output_processor@_WV?$string_output_adapter@_W@__crt_stdio_output@@V?$format_validation_base@_WV?$string_output_adapter@_W@__crt_stdio_output@@@2@@__crt_stdio_output@@AEAA_NXZ 00000001400608e0 f i libucrtd:output.obj
 0001:0005f8e0       ?state_case_dot@?$output_processor@_WV?$string_output_adapter@_W@__crt_stdio_output@@V?$standard_base@_WV?$string_output_adapter@_W@__crt_stdio_output@@@2@@__crt_stdio_output@@AEAA_NXZ 00000001400608e0 f i libucrtd:output.obj
 0001:0005f8e0       ?state_case_dot@?$output_processor@DV?$string_output_adapter@D@__crt_stdio_output@@V?$standard_base@DV?$string_output_adapter@D@__crt_stdio_output@@@2@@__crt_stdio_output@@AEAA_NXZ 00000001400608e0 f i libucrtd:output.obj
 0001:0005f8e0       ?state_case_dot@?$output_processor@DV?$string_output_adapter@D@__crt_stdio_output@@V?$format_validation_base@DV?$string_output_adapter@D@__crt_stdio_output@@@2@@__crt_stdio_output@@AEAA_NXZ 00000001400608e0 f i libucrtd:output.obj
 0001:0005f900       ?state_case_flag@?$output_processor@DV?$string_output_adapter@D@__crt_stdio_output@@V?$standard_base@DV?$string_output_adapter@D@__crt_stdio_output@@@2@@__crt_stdio_output@@AEAA_NXZ 0000000140060900 f i libucrtd:output.obj
 0001:0005f900       ?state_case_flag@?$output_processor@DV?$stream_output_adapter@D@__crt_stdio_output@@V?$standard_base@DV?$stream_output_adapter@D@__crt_stdio_output@@@2@@__crt_stdio_output@@AEAA_NXZ 0000000140060900 f i libucrtd:output.obj
 0001:0005f900       ?state_case_flag@?$output_processor@DV?$string_output_adapter@D@__crt_stdio_output@@V?$format_validation_base@DV?$string_output_adapter@D@__crt_stdio_output@@@2@@__crt_stdio_output@@AEAA_NXZ 0000000140060900 f i libucrtd:output.obj
 0001:0005f9a0       ?state_case_flag@?$output_processor@_WV?$string_output_adapter@_W@__crt_stdio_output@@V?$standard_base@_WV?$string_output_adapter@_W@__crt_stdio_output@@@2@@__crt_stdio_output@@AEAA_NXZ 00000001400609a0 f i libucrtd:output.obj
 0001:0005f9a0       ?state_case_flag@?$output_processor@_WV?$stream_output_adapter@_W@__crt_stdio_output@@V?$standard_base@_WV?$stream_output_adapter@_W@__crt_stdio_output@@@2@@__crt_stdio_output@@AEAA_NXZ 00000001400609a0 f i libucrtd:output.obj
 0001:0005f9a0       ?state_case_flag@?$output_processor@_WV?$string_output_adapter@_W@__crt_stdio_output@@V?$format_validation_base@_WV?$string_output_adapter@_W@__crt_stdio_output@@@2@@__crt_stdio_output@@AEAA_NXZ 00000001400609a0 f i libucrtd:output.obj
 0001:0005fa40       ?state_case_normal@?$output_processor@DV?$stream_output_adapter@D@__crt_stdio_output@@V?$standard_base@DV?$stream_output_adapter@D@__crt_stdio_output@@@2@@__crt_stdio_output@@AEAA_NXZ 0000000140060a40 f i libucrtd:output.obj
 0001:0005fb20       ?state_case_normal@?$output_processor@DV?$string_output_adapter@D@__crt_stdio_output@@V?$format_validation_base@DV?$string_output_adapter@D@__crt_stdio_output@@@2@@__crt_stdio_output@@AEAA_NXZ 0000000140060b20 f i libucrtd:output.obj
 0001:0005fc00       ?state_case_normal@?$output_processor@DV?$string_output_adapter@D@__crt_stdio_output@@V?$standard_base@DV?$string_output_adapter@D@__crt_stdio_output@@@2@@__crt_stdio_output@@AEAA_NXZ 0000000140060c00 f i libucrtd:output.obj
 0001:0005fce0       ?state_case_normal@?$output_processor@_WV?$stream_output_adapter@_W@__crt_stdio_output@@V?$standard_base@_WV?$stream_output_adapter@_W@__crt_stdio_output@@@2@@__crt_stdio_output@@AEAA_NXZ 0000000140060ce0 f i libucrtd:output.obj
 0001:0005fdc0       ?state_case_normal@?$output_processor@_WV?$string_output_adapter@_W@__crt_stdio_output@@V?$format_validation_base@_WV?$string_output_adapter@_W@__crt_stdio_output@@@2@@__crt_stdio_output@@AEAA_NXZ 0000000140060dc0 f i libucrtd:output.obj
 0001:0005fea0       ?state_case_normal@?$output_processor@_WV?$string_output_adapter@_W@__crt_stdio_output@@V?$standard_base@_WV?$string_output_adapter@_W@__crt_stdio_output@@@2@@__crt_stdio_output@@AEAA_NXZ 0000000140060ea0 f i libucrtd:output.obj
 0001:0005ff80       ?state_case_normal_common@?$output_processor@DV?$stream_output_adapter@D@__crt_stdio_output@@V?$standard_base@DV?$stream_output_adapter@D@__crt_stdio_output@@@2@@__crt_stdio_output@@AEAA_NXZ 0000000140060f80 f i libucrtd:output.obj
 0001:0005ffd0       ?state_case_normal_common@?$output_processor@DV?$string_output_adapter@D@__crt_stdio_output@@V?$format_validation_base@DV?$string_output_adapter@D@__crt_stdio_output@@@2@@__crt_stdio_output@@AEAA_NXZ 0000000140060fd0 f i libucrtd:output.obj
 0001:00060020       ?state_case_normal_common@?$output_processor@DV?$string_output_adapter@D@__crt_stdio_output@@V?$standard_base@DV?$string_output_adapter@D@__crt_stdio_output@@@2@@__crt_stdio_output@@AEAA_NXZ 0000000140061020 f i libucrtd:output.obj
 0001:00060070       ?state_case_normal_common@?$output_processor@_WV?$stream_output_adapter@_W@__crt_stdio_output@@V?$standard_base@_WV?$stream_output_adapter@_W@__crt_stdio_output@@@2@@__crt_stdio_output@@AEAA_NXZ 0000000140061070 f i libucrtd:output.obj
 0001:000600c0       ?state_case_normal_common@?$output_processor@_WV?$string_output_adapter@_W@__crt_stdio_output@@V?$format_validation_base@_WV?$string_output_adapter@_W@__crt_stdio_output@@@2@@__crt_stdio_output@@AEAA_NXZ 00000001400610c0 f i libucrtd:output.obj
 0001:000600c0       ?state_case_normal_common@?$output_processor@_WV?$string_output_adapter@_W@__crt_stdio_output@@V?$standard_base@_WV?$string_output_adapter@_W@__crt_stdio_output@@@2@@__crt_stdio_output@@AEAA_NXZ 00000001400610c0 f i libucrtd:output.obj
 0001:00060110       ?state_case_normal_tchar@?$output_processor@DV?$stream_output_adapter@D@__crt_stdio_output@@V?$standard_base@DV?$stream_output_adapter@D@__crt_stdio_output@@@2@@__crt_stdio_output@@AEAA_ND@Z 0000000140061110 f i libucrtd:output.obj
 0001:00060250       ?state_case_normal_tchar@?$output_processor@DV?$string_output_adapter@D@__crt_stdio_output@@V?$format_validation_base@DV?$string_output_adapter@D@__crt_stdio_output@@@2@@__crt_stdio_output@@AEAA_ND@Z 0000000140061250 f i libucrtd:output.obj
 0001:00060390       ?state_case_normal_tchar@?$output_processor@DV?$string_output_adapter@D@__crt_stdio_output@@V?$standard_base@DV?$string_output_adapter@D@__crt_stdio_output@@@2@@__crt_stdio_output@@AEAA_ND@Z 0000000140061390 f i libucrtd:output.obj
 0001:000604d0       ?state_case_normal_tchar@?$output_processor@_WV?$string_output_adapter@_W@__crt_stdio_output@@V?$format_validation_base@_WV?$string_output_adapter@_W@__crt_stdio_output@@@2@@__crt_stdio_output@@AEAA_N_W@Z 00000001400614d0 f i libucrtd:output.obj
 0001:000604d0       ?state_case_normal_tchar@?$output_processor@_WV?$stream_output_adapter@_W@__crt_stdio_output@@V?$standard_base@_WV?$stream_output_adapter@_W@__crt_stdio_output@@@2@@__crt_stdio_output@@AEAA_N_W@Z 00000001400614d0 f i libucrtd:output.obj
 0001:000604d0       ?state_case_normal_tchar@?$output_processor@_WV?$string_output_adapter@_W@__crt_stdio_output@@V?$standard_base@_WV?$string_output_adapter@_W@__crt_stdio_output@@@2@@__crt_stdio_output@@AEAA_N_W@Z 00000001400614d0 f i libucrtd:output.obj
 0001:000604f0       ?state_case_percent@?$output_processor@_WV?$string_output_adapter@_W@__crt_stdio_output@@V?$format_validation_base@_WV?$string_output_adapter@_W@__crt_stdio_output@@@2@@__crt_stdio_output@@AEAA_NXZ 00000001400614f0 f i libucrtd:output.obj
 0001:000604f0       ?state_case_percent@?$output_processor@_WV?$string_output_adapter@_W@__crt_stdio_output@@V?$standard_base@_WV?$string_output_adapter@_W@__crt_stdio_output@@@2@@__crt_stdio_output@@AEAA_NXZ 00000001400614f0 f i libucrtd:output.obj
 0001:000604f0       ?state_case_percent@?$output_processor@DV?$string_output_adapter@D@__crt_stdio_output@@V?$format_validation_base@DV?$string_output_adapter@D@__crt_stdio_output@@@2@@__crt_stdio_output@@AEAA_NXZ 00000001400614f0 f i libucrtd:output.obj
 0001:000604f0       ?state_case_percent@?$output_processor@_WV?$stream_output_adapter@_W@__crt_stdio_output@@V?$standard_base@_WV?$stream_output_adapter@_W@__crt_stdio_output@@@2@@__crt_stdio_output@@AEAA_NXZ 00000001400614f0 f i libucrtd:output.obj
 0001:000604f0       ?state_case_percent@?$output_processor@DV?$string_output_adapter@D@__crt_stdio_output@@V?$standard_base@DV?$string_output_adapter@D@__crt_stdio_output@@@2@@__crt_stdio_output@@AEAA_NXZ 00000001400614f0 f i libucrtd:output.obj
 0001:000604f0       ?state_case_percent@?$output_processor@DV?$stream_output_adapter@D@__crt_stdio_output@@V?$standard_base@DV?$stream_output_adapter@D@__crt_stdio_output@@@2@@__crt_stdio_output@@AEAA_NXZ 00000001400614f0 f i libucrtd:output.obj
 0001:00060540       ?state_case_precision@?$output_processor@DV?$string_output_adapter@D@__crt_stdio_output@@V?$format_validation_base@DV?$string_output_adapter@D@__crt_stdio_output@@@2@@__crt_stdio_output@@AEAA_NXZ 0000000140061540 f i libucrtd:output.obj
 0001:00060540       ?state_case_precision@?$output_processor@DV?$string_output_adapter@D@__crt_stdio_output@@V?$standard_base@DV?$string_output_adapter@D@__crt_stdio_output@@@2@@__crt_stdio_output@@AEAA_NXZ 0000000140061540 f i libucrtd:output.obj
 0001:00060540       ?state_case_precision@?$output_processor@DV?$stream_output_adapter@D@__crt_stdio_output@@V?$standard_base@DV?$stream_output_adapter@D@__crt_stdio_output@@@2@@__crt_stdio_output@@AEAA_NXZ 0000000140061540 f i libucrtd:output.obj
 0001:000605c0       ?state_case_precision@?$output_processor@_WV?$stream_output_adapter@_W@__crt_stdio_output@@V?$standard_base@_WV?$stream_output_adapter@_W@__crt_stdio_output@@@2@@__crt_stdio_output@@AEAA_NXZ 00000001400615c0 f i libucrtd:output.obj
 0001:000605c0       ?state_case_precision@?$output_processor@_WV?$string_output_adapter@_W@__crt_stdio_output@@V?$standard_base@_WV?$string_output_adapter@_W@__crt_stdio_output@@@2@@__crt_stdio_output@@AEAA_NXZ 00000001400615c0 f i libucrtd:output.obj
 0001:000605c0       ?state_case_precision@?$output_processor@_WV?$string_output_adapter@_W@__crt_stdio_output@@V?$format_validation_base@_WV?$string_output_adapter@_W@__crt_stdio_output@@@2@@__crt_stdio_output@@AEAA_NXZ 00000001400615c0 f i libucrtd:output.obj
 0001:00060640       ?state_case_size@?$output_processor@DV?$stream_output_adapter@D@__crt_stdio_output@@V?$standard_base@DV?$stream_output_adapter@D@__crt_stdio_output@@@2@@__crt_stdio_output@@AEAA_NXZ 0000000140061640 f i libucrtd:output.obj
 0001:00060ac0       ?state_case_size@?$output_processor@DV?$string_output_adapter@D@__crt_stdio_output@@V?$format_validation_base@DV?$string_output_adapter@D@__crt_stdio_output@@@2@@__crt_stdio_output@@AEAA_NXZ 0000000140061ac0 f i libucrtd:output.obj
 0001:00060f40       ?state_case_size@?$output_processor@DV?$string_output_adapter@D@__crt_stdio_output@@V?$standard_base@DV?$string_output_adapter@D@__crt_stdio_output@@@2@@__crt_stdio_output@@AEAA_NXZ 0000000140061f40 f i libucrtd:output.obj
 0001:000613c0       ?state_case_size@?$output_processor@_WV?$stream_output_adapter@_W@__crt_stdio_output@@V?$standard_base@_WV?$stream_output_adapter@_W@__crt_stdio_output@@@2@@__crt_stdio_output@@AEAA_NXZ 00000001400623c0 f i libucrtd:output.obj
 0001:00061840       ?state_case_size@?$output_processor@_WV?$string_output_adapter@_W@__crt_stdio_output@@V?$format_validation_base@_WV?$string_output_adapter@_W@__crt_stdio_output@@@2@@__crt_stdio_output@@AEAA_NXZ 0000000140062840 f i libucrtd:output.obj
 0001:00061cc0       ?state_case_size@?$output_processor@_WV?$string_output_adapter@_W@__crt_stdio_output@@V?$standard_base@_WV?$string_output_adapter@_W@__crt_stdio_output@@@2@@__crt_stdio_output@@AEAA_NXZ 0000000140062cc0 f i libucrtd:output.obj
 0001:00062140       ?state_case_type@?$output_processor@DV?$stream_output_adapter@D@__crt_stdio_output@@V?$standard_base@DV?$stream_output_adapter@D@__crt_stdio_output@@@2@@__crt_stdio_output@@AEAA_NXZ 0000000140063140 f i libucrtd:output.obj
 0001:000625e0       ?state_case_type@?$output_processor@DV?$string_output_adapter@D@__crt_stdio_output@@V?$format_validation_base@DV?$string_output_adapter@D@__crt_stdio_output@@@2@@__crt_stdio_output@@AEAA_NXZ 00000001400635e0 f i libucrtd:output.obj
 0001:00062a80       ?state_case_type@?$output_processor@DV?$string_output_adapter@D@__crt_stdio_output@@V?$standard_base@DV?$string_output_adapter@D@__crt_stdio_output@@@2@@__crt_stdio_output@@AEAA_NXZ 0000000140063a80 f i libucrtd:output.obj
 0001:00062f20       ?state_case_type@?$output_processor@_WV?$stream_output_adapter@_W@__crt_stdio_output@@V?$standard_base@_WV?$stream_output_adapter@_W@__crt_stdio_output@@@2@@__crt_stdio_output@@AEAA_NXZ 0000000140063f20 f i libucrtd:output.obj
 0001:00063480       ?state_case_type@?$output_processor@_WV?$string_output_adapter@_W@__crt_stdio_output@@V?$format_validation_base@_WV?$string_output_adapter@_W@__crt_stdio_output@@@2@@__crt_stdio_output@@AEAA_NXZ 0000000140064480 f i libucrtd:output.obj
 0001:000639e0       ?state_case_type@?$output_processor@_WV?$string_output_adapter@_W@__crt_stdio_output@@V?$standard_base@_WV?$string_output_adapter@_W@__crt_stdio_output@@@2@@__crt_stdio_output@@AEAA_NXZ 00000001400649e0 f i libucrtd:output.obj
 0001:00063f40       ?state_case_width@?$output_processor@DV?$stream_output_adapter@D@__crt_stdio_output@@V?$standard_base@DV?$stream_output_adapter@D@__crt_stdio_output@@@2@@__crt_stdio_output@@AEAA_NXZ 0000000140064f40 f i libucrtd:output.obj
 0001:00063f40       ?state_case_width@?$output_processor@DV?$string_output_adapter@D@__crt_stdio_output@@V?$format_validation_base@DV?$string_output_adapter@D@__crt_stdio_output@@@2@@__crt_stdio_output@@AEAA_NXZ 0000000140064f40 f i libucrtd:output.obj
 0001:00063f40       ?state_case_width@?$output_processor@DV?$string_output_adapter@D@__crt_stdio_output@@V?$standard_base@DV?$string_output_adapter@D@__crt_stdio_output@@@2@@__crt_stdio_output@@AEAA_NXZ 0000000140064f40 f i libucrtd:output.obj
 0001:00063fd0       ?state_case_width@?$output_processor@_WV?$string_output_adapter@_W@__crt_stdio_output@@V?$format_validation_base@_WV?$string_output_adapter@_W@__crt_stdio_output@@@2@@__crt_stdio_output@@AEAA_NXZ 0000000140064fd0 f i libucrtd:output.obj
 0001:00063fd0       ?state_case_width@?$output_processor@_WV?$stream_output_adapter@_W@__crt_stdio_output@@V?$standard_base@_WV?$stream_output_adapter@_W@__crt_stdio_output@@@2@@__crt_stdio_output@@AEAA_NXZ 0000000140064fd0 f i libucrtd:output.obj
 0001:00063fd0       ?state_case_width@?$output_processor@_WV?$string_output_adapter@_W@__crt_stdio_output@@V?$standard_base@_WV?$string_output_adapter@_W@__crt_stdio_output@@@2@@__crt_stdio_output@@AEAA_NXZ 0000000140064fd0 f i libucrtd:output.obj
 0001:00064060       ?state_count@?$format_validation_base@DV?$string_output_adapter@D@__crt_stdio_output@@@__crt_stdio_output@@KAIXZ 0000000140065060 f i libucrtd:output.obj
 0001:00064060       ?state_count@?$format_validation_base@_WV?$string_output_adapter@_W@__crt_stdio_output@@@__crt_stdio_output@@KAIXZ 0000000140065060 f i libucrtd:output.obj
 0001:00064070       ?state_count@?$standard_base@DV?$string_output_adapter@D@__crt_stdio_output@@@__crt_stdio_output@@KAIXZ 0000000140065070 f i libucrtd:output.obj
 0001:00064070       ?state_count@?$standard_base@_WV?$string_output_adapter@_W@__crt_stdio_output@@@__crt_stdio_output@@KAIXZ 0000000140065070 f i libucrtd:output.obj
 0001:00064070       ?state_count@?$standard_base@_WV?$stream_output_adapter@_W@__crt_stdio_output@@@__crt_stdio_output@@KAIXZ 0000000140065070 f i libucrtd:output.obj
 0001:00064070       ?state_count@?$standard_base@DV?$stream_output_adapter@D@__crt_stdio_output@@@__crt_stdio_output@@KAIXZ 0000000140065070 f i libucrtd:output.obj
 0001:00064080       ?state_transition_table@?$format_validation_base@_WV?$string_output_adapter@_W@__crt_stdio_output@@@__crt_stdio_output@@KAAEBV?$spectre_mitigated_lookup_table@Ustate_transition_pair@__crt_stdio_output@@$0IA@@2@XZ 0000000140065080 f i libucrtd:output.obj
 0001:00064080       ?state_transition_table@?$format_validation_base@DV?$string_output_adapter@D@__crt_stdio_output@@@__crt_stdio_output@@KAAEBV?$spectre_mitigated_lookup_table@Ustate_transition_pair@__crt_stdio_output@@$0IA@@2@XZ 0000000140065080 f i libucrtd:output.obj
 0001:00064090       ?state_transition_table@?$standard_base@_WV?$string_output_adapter@_W@__crt_stdio_output@@@__crt_stdio_output@@KAAEBV?$spectre_mitigated_lookup_table@Ustate_transition_pair@__crt_stdio_output@@$0IA@@2@XZ 0000000140065090 f i libucrtd:output.obj
 0001:00064090       ?state_transition_table@?$standard_base@DV?$stream_output_adapter@D@__crt_stdio_output@@@__crt_stdio_output@@KAAEBV?$spectre_mitigated_lookup_table@Ustate_transition_pair@__crt_stdio_output@@$0IA@@2@XZ 0000000140065090 f i libucrtd:output.obj
 0001:00064090       ?state_transition_table@?$standard_base@_WV?$stream_output_adapter@_W@__crt_stdio_output@@@__crt_stdio_output@@KAAEBV?$spectre_mitigated_lookup_table@Ustate_transition_pair@__crt_stdio_output@@$0IA@@2@XZ 0000000140065090 f i libucrtd:output.obj
 0001:00064090       ?state_transition_table@?$standard_base@DV?$string_output_adapter@D@__crt_stdio_output@@@__crt_stdio_output@@KAAEBV?$spectre_mitigated_lookup_table@Ustate_transition_pair@__crt_stdio_output@@$0IA@@2@XZ 0000000140065090 f i libucrtd:output.obj
 0001:000640a0       ?tchar_string@?$common_data@D@__crt_stdio_output@@IEAAAEAPEADD@Z 00000001400650a0 f i libucrtd:output.obj
 0001:000640c0       ?tchar_string@?$common_data@D@__crt_stdio_output@@IEAAAEAPEADXZ 00000001400650c0 f i libucrtd:output.obj
 0001:000640e0       ?tchar_string@?$common_data@_W@__crt_stdio_output@@IEAAAEAPEA_WXZ 00000001400650e0 f i libucrtd:output.obj
 0001:00064100       ?tchar_string@?$common_data@_W@__crt_stdio_output@@IEAAAEAPEA_W_W@Z 0000000140065100 f i libucrtd:output.obj
 0001:00064120       ?to_integer_size@__crt_stdio_output@@YA_KW4length_modifier@1@@Z 0000000140065120 f i libucrtd:output.obj
 0001:000641d0       ?type_case_X@?$output_processor@DV?$stream_output_adapter@D@__crt_stdio_output@@V?$standard_base@DV?$stream_output_adapter@D@__crt_stdio_output@@@2@@__crt_stdio_output@@AEAA_NXZ 00000001400651d0 f i libucrtd:output.obj
 0001:000641f0       ?type_case_X@?$output_processor@DV?$string_output_adapter@D@__crt_stdio_output@@V?$format_validation_base@DV?$string_output_adapter@D@__crt_stdio_output@@@2@@__crt_stdio_output@@AEAA_NXZ 00000001400651f0 f i libucrtd:output.obj
 0001:00064210       ?type_case_X@?$output_processor@DV?$string_output_adapter@D@__crt_stdio_output@@V?$standard_base@DV?$string_output_adapter@D@__crt_stdio_output@@@2@@__crt_stdio_output@@AEAA_NXZ 0000000140065210 f i libucrtd:output.obj
 0001:00064230       ?type_case_X@?$output_processor@_WV?$stream_output_adapter@_W@__crt_stdio_output@@V?$standard_base@_WV?$stream_output_adapter@_W@__crt_stdio_output@@@2@@__crt_stdio_output@@AEAA_NXZ 0000000140065230 f i libucrtd:output.obj
 0001:00064250       ?type_case_X@?$output_processor@_WV?$string_output_adapter@_W@__crt_stdio_output@@V?$format_validation_base@_WV?$string_output_adapter@_W@__crt_stdio_output@@@2@@__crt_stdio_output@@AEAA_NXZ 0000000140065250 f i libucrtd:output.obj
 0001:00064270       ?type_case_X@?$output_processor@_WV?$string_output_adapter@_W@__crt_stdio_output@@V?$standard_base@_WV?$string_output_adapter@_W@__crt_stdio_output@@@2@@__crt_stdio_output@@AEAA_NXZ 0000000140065270 f i libucrtd:output.obj
 0001:00064290       ?type_case_Z@?$output_processor@DV?$stream_output_adapter@D@__crt_stdio_output@@V?$standard_base@DV?$stream_output_adapter@D@__crt_stdio_output@@@2@@__crt_stdio_output@@AEAA_NXZ 0000000140065290 f i libucrtd:output.obj
 0001:00064290       ?type_case_Z@?$output_processor@DV?$string_output_adapter@D@__crt_stdio_output@@V?$format_validation_base@DV?$string_output_adapter@D@__crt_stdio_output@@@2@@__crt_stdio_output@@AEAA_NXZ 0000000140065290 f i libucrtd:output.obj
 0001:00064290       ?type_case_Z@?$output_processor@DV?$string_output_adapter@D@__crt_stdio_output@@V?$standard_base@DV?$string_output_adapter@D@__crt_stdio_output@@@2@@__crt_stdio_output@@AEAA_NXZ 0000000140065290 f i libucrtd:output.obj
 0001:000643b0       ?type_case_Z@?$output_processor@_WV?$stream_output_adapter@_W@__crt_stdio_output@@V?$standard_base@_WV?$stream_output_adapter@_W@__crt_stdio_output@@@2@@__crt_stdio_output@@AEAA_NXZ 00000001400653b0 f i libucrtd:output.obj
 0001:000643b0       ?type_case_Z@?$output_processor@_WV?$string_output_adapter@_W@__crt_stdio_output@@V?$standard_base@_WV?$string_output_adapter@_W@__crt_stdio_output@@@2@@__crt_stdio_output@@AEAA_NXZ 00000001400653b0 f i libucrtd:output.obj
 0001:000643b0       ?type_case_Z@?$output_processor@_WV?$string_output_adapter@_W@__crt_stdio_output@@V?$format_validation_base@_WV?$string_output_adapter@_W@__crt_stdio_output@@@2@@__crt_stdio_output@@AEAA_NXZ 00000001400653b0 f i libucrtd:output.obj
 0001:000644d0       ?type_case_a@?$output_processor@DV?$string_output_adapter@D@__crt_stdio_output@@V?$standard_base@DV?$string_output_adapter@D@__crt_stdio_output@@@2@@__crt_stdio_output@@AEAA_NXZ 00000001400654d0 f i libucrtd:output.obj
 0001:000644d0       ?type_case_a@?$output_processor@DV?$stream_output_adapter@D@__crt_stdio_output@@V?$standard_base@DV?$stream_output_adapter@D@__crt_stdio_output@@@2@@__crt_stdio_output@@AEAA_NXZ 00000001400654d0 f i libucrtd:output.obj
 0001:000644d0       ?type_case_a@?$output_processor@DV?$string_output_adapter@D@__crt_stdio_output@@V?$format_validation_base@DV?$string_output_adapter@D@__crt_stdio_output@@@2@@__crt_stdio_output@@AEAA_NXZ 00000001400654d0 f i libucrtd:output.obj
 0001:000648a0       ?type_case_a@?$output_processor@_WV?$stream_output_adapter@_W@__crt_stdio_output@@V?$standard_base@_WV?$stream_output_adapter@_W@__crt_stdio_output@@@2@@__crt_stdio_output@@AEAA_NXZ 00000001400658a0 f i libucrtd:output.obj
 0001:000648a0       ?type_case_a@?$output_processor@_WV?$string_output_adapter@_W@__crt_stdio_output@@V?$format_validation_base@_WV?$string_output_adapter@_W@__crt_stdio_output@@@2@@__crt_stdio_output@@AEAA_NXZ 00000001400658a0 f i libucrtd:output.obj
 0001:000648a0       ?type_case_a@?$output_processor@_WV?$string_output_adapter@_W@__crt_stdio_output@@V?$standard_base@_WV?$string_output_adapter@_W@__crt_stdio_output@@@2@@__crt_stdio_output@@AEAA_NXZ 00000001400658a0 f i libucrtd:output.obj
 0001:00064c70       ?type_case_c@?$output_processor@DV?$stream_output_adapter@D@__crt_stdio_output@@V?$standard_base@DV?$stream_output_adapter@D@__crt_stdio_output@@@2@@__crt_stdio_output@@AEAA_NXZ 0000000140065c70 f i libucrtd:output.obj
 0001:00064c70       ?type_case_c@?$output_processor@DV?$string_output_adapter@D@__crt_stdio_output@@V?$standard_base@DV?$string_output_adapter@D@__crt_stdio_output@@@2@@__crt_stdio_output@@AEAA_NXZ 0000000140065c70 f i libucrtd:output.obj
 0001:00064c70       ?type_case_c@?$output_processor@DV?$string_output_adapter@D@__crt_stdio_output@@V?$format_validation_base@DV?$string_output_adapter@D@__crt_stdio_output@@@2@@__crt_stdio_output@@AEAA_NXZ 0000000140065c70 f i libucrtd:output.obj
 0001:00064c90       ?type_case_c@?$output_processor@_WV?$string_output_adapter@_W@__crt_stdio_output@@V?$format_validation_base@_WV?$string_output_adapter@_W@__crt_stdio_output@@@2@@__crt_stdio_output@@AEAA_NXZ 0000000140065c90 f i libucrtd:output.obj
 0001:00064c90       ?type_case_c@?$output_processor@_WV?$stream_output_adapter@_W@__crt_stdio_output@@V?$standard_base@_WV?$stream_output_adapter@_W@__crt_stdio_output@@@2@@__crt_stdio_output@@AEAA_NXZ 0000000140065c90 f i libucrtd:output.obj
 0001:00064c90       ?type_case_c@?$output_processor@_WV?$string_output_adapter@_W@__crt_stdio_output@@V?$standard_base@_WV?$string_output_adapter@_W@__crt_stdio_output@@@2@@__crt_stdio_output@@AEAA_NXZ 0000000140065c90 f i libucrtd:output.obj
 0001:00064cb0       ?type_case_c_tchar@?$output_processor@DV?$stream_output_adapter@D@__crt_stdio_output@@V?$standard_base@DV?$stream_output_adapter@D@__crt_stdio_output@@@2@@__crt_stdio_output@@AEAA_ND@Z 0000000140065cb0 f i libucrtd:output.obj
 0001:00064cb0       ?type_case_c_tchar@?$output_processor@DV?$string_output_adapter@D@__crt_stdio_output@@V?$format_validation_base@DV?$string_output_adapter@D@__crt_stdio_output@@@2@@__crt_stdio_output@@AEAA_ND@Z 0000000140065cb0 f i libucrtd:output.obj
 0001:00064cb0       ?type_case_c_tchar@?$output_processor@DV?$string_output_adapter@D@__crt_stdio_output@@V?$standard_base@DV?$string_output_adapter@D@__crt_stdio_output@@@2@@__crt_stdio_output@@AEAA_ND@Z 0000000140065cb0 f i libucrtd:output.obj
 0001:00064e10       ?type_case_c_tchar@?$output_processor@_WV?$string_output_adapter@_W@__crt_stdio_output@@V?$format_validation_base@_WV?$string_output_adapter@_W@__crt_stdio_output@@@2@@__crt_stdio_output@@AEAA_N_W@Z 0000000140065e10 f i libucrtd:output.obj
 0001:00064e10       ?type_case_c_tchar@?$output_processor@_WV?$string_output_adapter@_W@__crt_stdio_output@@V?$standard_base@_WV?$string_output_adapter@_W@__crt_stdio_output@@@2@@__crt_stdio_output@@AEAA_N_W@Z 0000000140065e10 f i libucrtd:output.obj
 0001:00064e10       ?type_case_c_tchar@?$output_processor@_WV?$stream_output_adapter@_W@__crt_stdio_output@@V?$standard_base@_WV?$stream_output_adapter@_W@__crt_stdio_output@@@2@@__crt_stdio_output@@AEAA_N_W@Z 0000000140065e10 f i libucrtd:output.obj
 0001:00064f40       ?type_case_d@?$output_processor@DV?$stream_output_adapter@D@__crt_stdio_output@@V?$standard_base@DV?$stream_output_adapter@D@__crt_stdio_output@@@2@@__crt_stdio_output@@AEAA_NXZ 0000000140065f40 f i libucrtd:output.obj
 0001:00064f70       ?type_case_d@?$output_processor@DV?$string_output_adapter@D@__crt_stdio_output@@V?$format_validation_base@DV?$string_output_adapter@D@__crt_stdio_output@@@2@@__crt_stdio_output@@AEAA_NXZ 0000000140065f70 f i libucrtd:output.obj
 0001:00064fa0       ?type_case_d@?$output_processor@DV?$string_output_adapter@D@__crt_stdio_output@@V?$standard_base@DV?$string_output_adapter@D@__crt_stdio_output@@@2@@__crt_stdio_output@@AEAA_NXZ 0000000140065fa0 f i libucrtd:output.obj
 0001:00064fd0       ?type_case_d@?$output_processor@_WV?$stream_output_adapter@_W@__crt_stdio_output@@V?$standard_base@_WV?$stream_output_adapter@_W@__crt_stdio_output@@@2@@__crt_stdio_output@@AEAA_NXZ 0000000140065fd0 f i libucrtd:output.obj
 0001:00065000       ?type_case_d@?$output_processor@_WV?$string_output_adapter@_W@__crt_stdio_output@@V?$format_validation_base@_WV?$string_output_adapter@_W@__crt_stdio_output@@@2@@__crt_stdio_output@@AEAA_NXZ 0000000140066000 f i libucrtd:output.obj
 0001:00065030       ?type_case_d@?$output_processor@_WV?$string_output_adapter@_W@__crt_stdio_output@@V?$standard_base@_WV?$string_output_adapter@_W@__crt_stdio_output@@@2@@__crt_stdio_output@@AEAA_NXZ 0000000140066030 f i libucrtd:output.obj
 0001:00065060       ?type_case_integer@?$output_processor@DV?$stream_output_adapter@D@__crt_stdio_output@@V?$standard_base@DV?$stream_output_adapter@D@__crt_stdio_output@@@2@@__crt_stdio_output@@AEAA_NI_N@Z 0000000140066060 f i libucrtd:output.obj
 0001:000654b0       ?type_case_integer@?$output_processor@DV?$string_output_adapter@D@__crt_stdio_output@@V?$format_validation_base@DV?$string_output_adapter@D@__crt_stdio_output@@@2@@__crt_stdio_output@@AEAA_NI_N@Z 00000001400664b0 f i libucrtd:output.obj
 0001:00065900       ?type_case_integer@?$output_processor@DV?$string_output_adapter@D@__crt_stdio_output@@V?$standard_base@DV?$string_output_adapter@D@__crt_stdio_output@@@2@@__crt_stdio_output@@AEAA_NI_N@Z 0000000140066900 f i libucrtd:output.obj
 0001:00065d50       ?type_case_integer@?$output_processor@_WV?$stream_output_adapter@_W@__crt_stdio_output@@V?$standard_base@_WV?$stream_output_adapter@_W@__crt_stdio_output@@@2@@__crt_stdio_output@@AEAA_NI_N@Z 0000000140066d50 f i libucrtd:output.obj
 0001:000661a0       ?type_case_integer@?$output_processor@_WV?$string_output_adapter@_W@__crt_stdio_output@@V?$format_validation_base@_WV?$string_output_adapter@_W@__crt_stdio_output@@@2@@__crt_stdio_output@@AEAA_NI_N@Z 00000001400671a0 f i libucrtd:output.obj
 0001:000665f0       ?type_case_integer@?$output_processor@_WV?$string_output_adapter@_W@__crt_stdio_output@@V?$standard_base@_WV?$string_output_adapter@_W@__crt_stdio_output@@@2@@__crt_stdio_output@@AEAA_NI_N@Z 00000001400675f0 f i libucrtd:output.obj
 0001:00066a40       ?type_case_n@?$output_processor@DV?$stream_output_adapter@D@__crt_stdio_output@@V?$standard_base@DV?$stream_output_adapter@D@__crt_stdio_output@@@2@@__crt_stdio_output@@AEAA_NXZ 0000000140067a40 f i libucrtd:output.obj
 0001:00066c80       ?type_case_n@?$output_processor@DV?$string_output_adapter@D@__crt_stdio_output@@V?$format_validation_base@DV?$string_output_adapter@D@__crt_stdio_output@@@2@@__crt_stdio_output@@AEAA_NXZ 0000000140067c80 f i libucrtd:output.obj
 0001:00066ec0       ?type_case_n@?$output_processor@DV?$string_output_adapter@D@__crt_stdio_output@@V?$standard_base@DV?$string_output_adapter@D@__crt_stdio_output@@@2@@__crt_stdio_output@@AEAA_NXZ 0000000140067ec0 f i libucrtd:output.obj
 0001:00067100       ?type_case_n@?$output_processor@_WV?$stream_output_adapter@_W@__crt_stdio_output@@V?$standard_base@_WV?$stream_output_adapter@_W@__crt_stdio_output@@@2@@__crt_stdio_output@@AEAA_NXZ 0000000140068100 f i libucrtd:output.obj
 0001:00067340       ?type_case_n@?$output_processor@_WV?$string_output_adapter@_W@__crt_stdio_output@@V?$format_validation_base@_WV?$string_output_adapter@_W@__crt_stdio_output@@@2@@__crt_stdio_output@@AEAA_NXZ 0000000140068340 f i libucrtd:output.obj
 0001:00067580       ?type_case_n@?$output_processor@_WV?$string_output_adapter@_W@__crt_stdio_output@@V?$standard_base@_WV?$string_output_adapter@_W@__crt_stdio_output@@@2@@__crt_stdio_output@@AEAA_NXZ 0000000140068580 f i libucrtd:output.obj
 0001:000677c0       ?type_case_o@?$output_processor@DV?$stream_output_adapter@D@__crt_stdio_output@@V?$standard_base@DV?$stream_output_adapter@D@__crt_stdio_output@@@2@@__crt_stdio_output@@AEAA_NXZ 00000001400687c0 f i libucrtd:output.obj
 0001:00067810       ?type_case_o@?$output_processor@DV?$string_output_adapter@D@__crt_stdio_output@@V?$format_validation_base@DV?$string_output_adapter@D@__crt_stdio_output@@@2@@__crt_stdio_output@@AEAA_NXZ 0000000140068810 f i libucrtd:output.obj
 0001:00067860       ?type_case_o@?$output_processor@DV?$string_output_adapter@D@__crt_stdio_output@@V?$standard_base@DV?$string_output_adapter@D@__crt_stdio_output@@@2@@__crt_stdio_output@@AEAA_NXZ 0000000140068860 f i libucrtd:output.obj
 0001:000678b0       ?type_case_o@?$output_processor@_WV?$stream_output_adapter@_W@__crt_stdio_output@@V?$standard_base@_WV?$stream_output_adapter@_W@__crt_stdio_output@@@2@@__crt_stdio_output@@AEAA_NXZ 00000001400688b0 f i libucrtd:output.obj
 0001:00067900       ?type_case_o@?$output_processor@_WV?$string_output_adapter@_W@__crt_stdio_output@@V?$format_validation_base@_WV?$string_output_adapter@_W@__crt_stdio_output@@@2@@__crt_stdio_output@@AEAA_NXZ 0000000140068900 f i libucrtd:output.obj
 0001:00067950       ?type_case_o@?$output_processor@_WV?$string_output_adapter@_W@__crt_stdio_output@@V?$standard_base@_WV?$string_output_adapter@_W@__crt_stdio_output@@@2@@__crt_stdio_output@@AEAA_NXZ 0000000140068950 f i libucrtd:output.obj
 0001:000679a0       ?type_case_p@?$output_processor@DV?$stream_output_adapter@D@__crt_stdio_output@@V?$standard_base@DV?$stream_output_adapter@D@__crt_stdio_output@@@2@@__crt_stdio_output@@AEAA_NXZ 00000001400689a0 f i libucrtd:output.obj
 0001:000679e0       ?type_case_p@?$output_processor@DV?$string_output_adapter@D@__crt_stdio_output@@V?$format_validation_base@DV?$string_output_adapter@D@__crt_stdio_output@@@2@@__crt_stdio_output@@AEAA_NXZ 00000001400689e0 f i libucrtd:output.obj
 0001:00067a20       ?type_case_p@?$output_processor@DV?$string_output_adapter@D@__crt_stdio_output@@V?$standard_base@DV?$string_output_adapter@D@__crt_stdio_output@@@2@@__crt_stdio_output@@AEAA_NXZ 0000000140068a20 f i libucrtd:output.obj
 0001:00067a60       ?type_case_p@?$output_processor@_WV?$stream_output_adapter@_W@__crt_stdio_output@@V?$standard_base@_WV?$stream_output_adapter@_W@__crt_stdio_output@@@2@@__crt_stdio_output@@AEAA_NXZ 0000000140068a60 f i libucrtd:output.obj
 0001:00067aa0       ?type_case_p@?$output_processor@_WV?$string_output_adapter@_W@__crt_stdio_output@@V?$format_validation_base@_WV?$string_output_adapter@_W@__crt_stdio_output@@@2@@__crt_stdio_output@@AEAA_NXZ 0000000140068aa0 f i libucrtd:output.obj
 0001:00067ae0       ?type_case_p@?$output_processor@_WV?$string_output_adapter@_W@__crt_stdio_output@@V?$standard_base@_WV?$string_output_adapter@_W@__crt_stdio_output@@@2@@__crt_stdio_output@@AEAA_NXZ 0000000140068ae0 f i libucrtd:output.obj
 0001:00067b20       ?type_case_s@?$output_processor@DV?$stream_output_adapter@D@__crt_stdio_output@@V?$standard_base@DV?$stream_output_adapter@D@__crt_stdio_output@@@2@@__crt_stdio_output@@AEAA_NXZ 0000000140068b20 f i libucrtd:output.obj
 0001:00067b20       ?type_case_s@?$output_processor@DV?$string_output_adapter@D@__crt_stdio_output@@V?$standard_base@DV?$string_output_adapter@D@__crt_stdio_output@@@2@@__crt_stdio_output@@AEAA_NXZ 0000000140068b20 f i libucrtd:output.obj
 0001:00067b20       ?type_case_s@?$output_processor@DV?$string_output_adapter@D@__crt_stdio_output@@V?$format_validation_base@DV?$string_output_adapter@D@__crt_stdio_output@@@2@@__crt_stdio_output@@AEAA_NXZ 0000000140068b20 f i libucrtd:output.obj
 0001:00067c40       ?type_case_s@?$output_processor@_WV?$stream_output_adapter@_W@__crt_stdio_output@@V?$standard_base@_WV?$stream_output_adapter@_W@__crt_stdio_output@@@2@@__crt_stdio_output@@AEAA_NXZ 0000000140068c40 f i libucrtd:output.obj
 0001:00067c40       ?type_case_s@?$output_processor@_WV?$string_output_adapter@_W@__crt_stdio_output@@V?$format_validation_base@_WV?$string_output_adapter@_W@__crt_stdio_output@@@2@@__crt_stdio_output@@AEAA_NXZ 0000000140068c40 f i libucrtd:output.obj
 0001:00067c40       ?type_case_s@?$output_processor@_WV?$string_output_adapter@_W@__crt_stdio_output@@V?$standard_base@_WV?$string_output_adapter@_W@__crt_stdio_output@@@2@@__crt_stdio_output@@AEAA_NXZ 0000000140068c40 f i libucrtd:output.obj
 0001:00067d60       ?type_case_s_compute_narrow_string_length@?$output_processor@DV?$string_output_adapter@D@__crt_stdio_output@@V?$format_validation_base@DV?$string_output_adapter@D@__crt_stdio_output@@@2@@__crt_stdio_output@@AEBAHHD@Z 0000000140068d60 f i libucrtd:output.obj
 0001:00067d60       ?type_case_s_compute_narrow_string_length@?$output_processor@DV?$string_output_adapter@D@__crt_stdio_output@@V?$standard_base@DV?$string_output_adapter@D@__crt_stdio_output@@@2@@__crt_stdio_output@@AEBAHHD@Z 0000000140068d60 f i libucrtd:output.obj
 0001:00067d60       ?type_case_s_compute_narrow_string_length@?$output_processor@DV?$stream_output_adapter@D@__crt_stdio_output@@V?$standard_base@DV?$stream_output_adapter@D@__crt_stdio_output@@@2@@__crt_stdio_output@@AEBAHHD@Z 0000000140068d60 f i libucrtd:output.obj
 0001:00067d90       ?type_case_s_compute_narrow_string_length@?$output_processor@_WV?$string_output_adapter@_W@__crt_stdio_output@@V?$standard_base@_WV?$string_output_adapter@_W@__crt_stdio_output@@@2@@__crt_stdio_output@@AEBAHH_W@Z 0000000140068d90 f i libucrtd:output.obj
 0001:00067d90       ?type_case_s_compute_narrow_string_length@?$output_processor@_WV?$string_output_adapter@_W@__crt_stdio_output@@V?$format_validation_base@_WV?$string_output_adapter@_W@__crt_stdio_output@@@2@@__crt_stdio_output@@AEBAHH_W@Z 0000000140068d90 f i libucrtd:output.obj
 0001:00067d90       ?type_case_s_compute_narrow_string_length@?$output_processor@_WV?$stream_output_adapter@_W@__crt_stdio_output@@V?$standard_base@_WV?$stream_output_adapter@_W@__crt_stdio_output@@@2@@__crt_stdio_output@@AEBAHH_W@Z 0000000140068d90 f i libucrtd:output.obj
 0001:00067e20       ?type_case_u@?$output_processor@DV?$stream_output_adapter@D@__crt_stdio_output@@V?$standard_base@DV?$stream_output_adapter@D@__crt_stdio_output@@@2@@__crt_stdio_output@@AEAA_NXZ 0000000140068e20 f i libucrtd:output.obj
 0001:00067e40       ?type_case_u@?$output_processor@DV?$string_output_adapter@D@__crt_stdio_output@@V?$format_validation_base@DV?$string_output_adapter@D@__crt_stdio_output@@@2@@__crt_stdio_output@@AEAA_NXZ 0000000140068e40 f i libucrtd:output.obj
 0001:00067e60       ?type_case_u@?$output_processor@DV?$string_output_adapter@D@__crt_stdio_output@@V?$standard_base@DV?$string_output_adapter@D@__crt_stdio_output@@@2@@__crt_stdio_output@@AEAA_NXZ 0000000140068e60 f i libucrtd:output.obj
 0001:00067e80       ?type_case_u@?$output_processor@_WV?$stream_output_adapter@_W@__crt_stdio_output@@V?$standard_base@_WV?$stream_output_adapter@_W@__crt_stdio_output@@@2@@__crt_stdio_output@@AEAA_NXZ 0000000140068e80 f i libucrtd:output.obj
 0001:00067ea0       ?type_case_u@?$output_processor@_WV?$string_output_adapter@_W@__crt_stdio_output@@V?$format_validation_base@_WV?$string_output_adapter@_W@__crt_stdio_output@@@2@@__crt_stdio_output@@AEAA_NXZ 0000000140068ea0 f i libucrtd:output.obj
 0001:00067ec0       ?type_case_u@?$output_processor@_WV?$string_output_adapter@_W@__crt_stdio_output@@V?$standard_base@_WV?$string_output_adapter@_W@__crt_stdio_output@@@2@@__crt_stdio_output@@AEAA_NXZ 0000000140068ec0 f i libucrtd:output.obj
 0001:00067ee0       ?type_case_x@?$output_processor@DV?$stream_output_adapter@D@__crt_stdio_output@@V?$standard_base@DV?$stream_output_adapter@D@__crt_stdio_output@@@2@@__crt_stdio_output@@AEAA_NXZ 0000000140068ee0 f i libucrtd:output.obj
 0001:00067f00       ?type_case_x@?$output_processor@DV?$string_output_adapter@D@__crt_stdio_output@@V?$format_validation_base@DV?$string_output_adapter@D@__crt_stdio_output@@@2@@__crt_stdio_output@@AEAA_NXZ 0000000140068f00 f i libucrtd:output.obj
 0001:00067f20       ?type_case_x@?$output_processor@DV?$string_output_adapter@D@__crt_stdio_output@@V?$standard_base@DV?$string_output_adapter@D@__crt_stdio_output@@@2@@__crt_stdio_output@@AEAA_NXZ 0000000140068f20 f i libucrtd:output.obj
 0001:00067f40       ?type_case_x@?$output_processor@_WV?$stream_output_adapter@_W@__crt_stdio_output@@V?$standard_base@_WV?$stream_output_adapter@_W@__crt_stdio_output@@@2@@__crt_stdio_output@@AEAA_NXZ 0000000140068f40 f i libucrtd:output.obj
 0001:00067f60       ?type_case_x@?$output_processor@_WV?$string_output_adapter@_W@__crt_stdio_output@@V?$format_validation_base@_WV?$string_output_adapter@_W@__crt_stdio_output@@@2@@__crt_stdio_output@@AEAA_NXZ 0000000140068f60 f i libucrtd:output.obj
 0001:00067f80       ?type_case_x@?$output_processor@_WV?$string_output_adapter@_W@__crt_stdio_output@@V?$standard_base@_WV?$string_output_adapter@_W@__crt_stdio_output@@@2@@__crt_stdio_output@@AEAA_NXZ 0000000140068f80 f i libucrtd:output.obj
 0001:00067fa0       ?unset_flag@?$output_processor@DV?$string_output_adapter@D@__crt_stdio_output@@V?$standard_base@DV?$string_output_adapter@D@__crt_stdio_output@@@2@@__crt_stdio_output@@AEAAXI@Z 0000000140068fa0 f i libucrtd:output.obj
 0001:00067fa0       ?unset_flag@?$output_processor@DV?$stream_output_adapter@D@__crt_stdio_output@@V?$standard_base@DV?$stream_output_adapter@D@__crt_stdio_output@@@2@@__crt_stdio_output@@AEAAXI@Z 0000000140068fa0 f i libucrtd:output.obj
 0001:00067fa0       ?unset_flag@?$output_processor@DV?$string_output_adapter@D@__crt_stdio_output@@V?$format_validation_base@DV?$string_output_adapter@D@__crt_stdio_output@@@2@@__crt_stdio_output@@AEAAXI@Z 0000000140068fa0 f i libucrtd:output.obj
 0001:00067fa0       ?unset_flag@?$output_processor@_WV?$string_output_adapter@_W@__crt_stdio_output@@V?$standard_base@_WV?$string_output_adapter@_W@__crt_stdio_output@@@2@@__crt_stdio_output@@AEAAXI@Z 0000000140068fa0 f i libucrtd:output.obj
 0001:00067fa0       ?unset_flag@?$output_processor@_WV?$string_output_adapter@_W@__crt_stdio_output@@V?$format_validation_base@_WV?$string_output_adapter@_W@__crt_stdio_output@@@2@@__crt_stdio_output@@AEAAXI@Z 0000000140068fa0 f i libucrtd:output.obj
 0001:00067fa0       ?unset_flag@?$output_processor@_WV?$stream_output_adapter@_W@__crt_stdio_output@@V?$standard_base@_WV?$stream_output_adapter@_W@__crt_stdio_output@@@2@@__crt_stdio_output@@AEAAXI@Z 0000000140068fa0 f i libucrtd:output.obj
 0001:00067fd0       ?update_field_width@?$standard_base@DV?$stream_output_adapter@D@__crt_stdio_output@@@__crt_stdio_output@@IEAA_NXZ 0000000140068fd0 f i libucrtd:output.obj
 0001:00067fd0       ?update_field_width@?$standard_base@_WV?$stream_output_adapter@_W@__crt_stdio_output@@@__crt_stdio_output@@IEAA_NXZ 0000000140068fd0 f i libucrtd:output.obj
 0001:00067fd0       ?update_field_width@?$standard_base@_WV?$string_output_adapter@_W@__crt_stdio_output@@@__crt_stdio_output@@IEAA_NXZ 0000000140068fd0 f i libucrtd:output.obj
 0001:00067fd0       ?update_field_width@?$standard_base@DV?$string_output_adapter@D@__crt_stdio_output@@@__crt_stdio_output@@IEAA_NXZ 0000000140068fd0 f i libucrtd:output.obj
 0001:00068000       ?update_precision@?$standard_base@_WV?$stream_output_adapter@_W@__crt_stdio_output@@@__crt_stdio_output@@IEAA_NXZ 0000000140069000 f i libucrtd:output.obj
 0001:00068000       ?update_precision@?$standard_base@DV?$stream_output_adapter@D@__crt_stdio_output@@@__crt_stdio_output@@IEAA_NXZ 0000000140069000 f i libucrtd:output.obj
 0001:00068000       ?update_precision@?$standard_base@DV?$string_output_adapter@D@__crt_stdio_output@@@__crt_stdio_output@@IEAA_NXZ 0000000140069000 f i libucrtd:output.obj
 0001:00068000       ?update_precision@?$standard_base@_WV?$string_output_adapter@_W@__crt_stdio_output@@@__crt_stdio_output@@IEAA_NXZ 0000000140069000 f i libucrtd:output.obj
 0001:00068030       ?validate@?$stream_output_adapter@D@__crt_stdio_output@@QEBA_NXZ 0000000140069030 f i libucrtd:output.obj
 0001:00068110       ?validate@?$stream_output_adapter@_W@__crt_stdio_output@@QEBA_NXZ 0000000140069110 f i libucrtd:output.obj
 0001:000681f0       ?validate@?$string_output_adapter@D@__crt_stdio_output@@QEBA_NXZ 00000001400691f0 f i libucrtd:output.obj
 0001:000682b0       ?validate@?$string_output_adapter@_W@__crt_stdio_output@@QEBA_NXZ 00000001400692b0 f i libucrtd:output.obj
 0001:00068370       ?validate_and_update_state_at_end_of_format_string@?$format_validation_base@DV?$string_output_adapter@D@__crt_stdio_output@@@__crt_stdio_output@@IEBA_NXZ 0000000140069370 f i libucrtd:output.obj
 0001:00068430       ?validate_and_update_state_at_end_of_format_string@?$format_validation_base@_WV?$string_output_adapter@_W@__crt_stdio_output@@@__crt_stdio_output@@IEBA_NXZ 0000000140069430 f i libucrtd:output.obj
 0001:000684f0       ?validate_stream_is_ansi_if_required@?$__acrt_stdio_char_traits@D@@SA_NQEAU_iobuf@@@Z 00000001400694f0 f i libucrtd:output.obj
 0001:00068680       ?wide_null_string@?$output_processor@_WV?$stream_output_adapter@_W@__crt_stdio_output@@V?$standard_base@_WV?$stream_output_adapter@_W@__crt_stdio_output@@@2@@__crt_stdio_output@@CAPEA_WXZ 0000000140069680 f i libucrtd:output.obj
 0001:00068680       ?wide_null_string@?$output_processor@DV?$string_output_adapter@D@__crt_stdio_output@@V?$format_validation_base@DV?$string_output_adapter@D@__crt_stdio_output@@@2@@__crt_stdio_output@@CAPEA_WXZ 0000000140069680 f i libucrtd:output.obj
 0001:00068680       ?wide_null_string@?$output_processor@DV?$stream_output_adapter@D@__crt_stdio_output@@V?$standard_base@DV?$stream_output_adapter@D@__crt_stdio_output@@@2@@__crt_stdio_output@@CAPEA_WXZ 0000000140069680 f i libucrtd:output.obj
 0001:00068680       ?wide_null_string@?$output_processor@DV?$string_output_adapter@D@__crt_stdio_output@@V?$standard_base@DV?$string_output_adapter@D@__crt_stdio_output@@@2@@__crt_stdio_output@@CAPEA_WXZ 0000000140069680 f i libucrtd:output.obj
 0001:00068680       ?wide_null_string@?$output_processor@_WV?$string_output_adapter@_W@__crt_stdio_output@@V?$standard_base@_WV?$string_output_adapter@_W@__crt_stdio_output@@@2@@__crt_stdio_output@@CAPEA_WXZ 0000000140069680 f i libucrtd:output.obj
 0001:00068680       ?wide_null_string@?$output_processor@_WV?$string_output_adapter@_W@__crt_stdio_output@@V?$format_validation_base@_WV?$string_output_adapter@_W@__crt_stdio_output@@@2@@__crt_stdio_output@@CAPEA_WXZ 0000000140069680 f i libucrtd:output.obj
 0001:00068690       ?write_character@?$output_adapter_common@DV?$stream_output_adapter@D@__crt_stdio_output@@@__crt_stdio_output@@QEBAXDQEAH@Z 0000000140069690 f i libucrtd:output.obj
 0001:000686e0       ?write_character@?$output_adapter_common@_WV?$stream_output_adapter@_W@__crt_stdio_output@@@__crt_stdio_output@@QEBAX_WQEAH@Z 00000001400696e0 f i libucrtd:output.obj
 0001:00068730       ?write_character@?$string_output_adapter@D@__crt_stdio_output@@QEBA_NDQEAH@Z 0000000140069730 f i libucrtd:output.obj
 0001:000687f0       ?write_character@?$string_output_adapter@_W@__crt_stdio_output@@QEBA_N_WQEAH@Z 00000001400697f0 f i libucrtd:output.obj
 0001:000688b0       ?write_character_without_count_update@?$stream_output_adapter@D@__crt_stdio_output@@QEBA_ND@Z 00000001400698b0 f i libucrtd:output.obj
 0001:00068930       ?write_character_without_count_update@?$stream_output_adapter@_W@__crt_stdio_output@@QEBA_N_W@Z 0000000140069930 f i libucrtd:output.obj
 0001:000689c0       ?write_stored_string_tchar@?$output_processor@DV?$stream_output_adapter@D@__crt_stdio_output@@V?$standard_base@DV?$stream_output_adapter@D@__crt_stdio_output@@@2@@__crt_stdio_output@@AEAA_ND@Z 00000001400699c0 f i libucrtd:output.obj
 0001:00068b80       ?write_stored_string_tchar@?$output_processor@DV?$string_output_adapter@D@__crt_stdio_output@@V?$format_validation_base@DV?$string_output_adapter@D@__crt_stdio_output@@@2@@__crt_stdio_output@@AEAA_ND@Z 0000000140069b80 f i libucrtd:output.obj
 0001:00068b80       ?write_stored_string_tchar@?$output_processor@DV?$string_output_adapter@D@__crt_stdio_output@@V?$standard_base@DV?$string_output_adapter@D@__crt_stdio_output@@@2@@__crt_stdio_output@@AEAA_ND@Z 0000000140069b80 f i libucrtd:output.obj
 0001:00068d40       ?write_stored_string_tchar@?$output_processor@_WV?$stream_output_adapter@_W@__crt_stdio_output@@V?$standard_base@_WV?$stream_output_adapter@_W@__crt_stdio_output@@@2@@__crt_stdio_output@@AEAA_N_W@Z 0000000140069d40 f i libucrtd:output.obj
 0001:00068e90       ?write_stored_string_tchar@?$output_processor@_WV?$string_output_adapter@_W@__crt_stdio_output@@V?$standard_base@_WV?$string_output_adapter@_W@__crt_stdio_output@@@2@@__crt_stdio_output@@AEAA_N_W@Z 0000000140069e90 f i libucrtd:output.obj
 0001:00068e90       ?write_stored_string_tchar@?$output_processor@_WV?$string_output_adapter@_W@__crt_stdio_output@@V?$format_validation_base@_WV?$string_output_adapter@_W@__crt_stdio_output@@@2@@__crt_stdio_output@@AEAA_N_W@Z 0000000140069e90 f i libucrtd:output.obj
 0001:00068fe0       ?write_string@?$stream_output_adapter@D@__crt_stdio_output@@QEBAXQEBDHQEAHAEAV__crt_deferred_errno_cache@@@Z 0000000140069fe0 f i libucrtd:output.obj
 0001:00069060       ?write_string@?$stream_output_adapter@_W@__crt_stdio_output@@QEBAXQEB_WHQEAHAEAV__crt_deferred_errno_cache@@@Z 000000014006a060 f i libucrtd:output.obj
 0001:000690e0       ?write_string@?$string_output_adapter@D@__crt_stdio_output@@QEBAXQEBDHQEAHAEAV__crt_deferred_errno_cache@@@Z 000000014006a0e0 f i libucrtd:output.obj
 0001:00069250       ?write_string@?$string_output_adapter@_W@__crt_stdio_output@@QEBAXQEB_WHQEAHAEAV__crt_deferred_errno_cache@@@Z 000000014006a250 f i libucrtd:output.obj
 0001:000693c0       ?write_string_impl@?$output_adapter_common@DV?$stream_output_adapter@D@__crt_stdio_output@@@__crt_stdio_output@@IEBAXQEBDHQEAHAEAV__crt_deferred_errno_cache@@@Z 000000014006a3c0 f i libucrtd:output.obj
 0001:000694a0       ?write_string_impl@?$output_adapter_common@_WV?$stream_output_adapter@_W@__crt_stdio_output@@@__crt_stdio_output@@IEBAXQEB_WHQEAHAEAV__crt_deferred_errno_cache@@@Z 000000014006a4a0 f i libucrtd:output.obj
 0001:00069580       __acrt_disable_global_locale_sync 000000014006a580 f i libucrtd:output.obj
 0001:000695b0       __acrt_enable_global_locale_sync 000000014006a5b0 f i libucrtd:output.obj
 0001:000695e0       __acrt_isleadbyte_l_noupdate 000000014006a5e0 f i libucrtd:output.obj
 0001:00069610       __acrt_locale_changed      000000014006a610 f i libucrtd:output.obj
 0001:00069640       __acrt_locale_get_ctype_array_value 000000014006a640 f i libucrtd:output.obj
 0001:00069680       __stdio_common_vfprintf    000000014006a680 f   libucrtd:output.obj
 0001:000696c0       __stdio_common_vfwprintf   000000014006a6c0 f   libucrtd:output.obj
 0001:00069700       __stdio_common_vsnprintf_s 000000014006a700 f   libucrtd:output.obj
 0001:00069760       __stdio_common_vsnwprintf_s 000000014006a760 f   libucrtd:output.obj
 0001:000697c0       __stdio_common_vsprintf    000000014006a7c0 f   libucrtd:output.obj
 0001:00069810       __stdio_common_vsprintf_s  000000014006a810 f   libucrtd:output.obj
 0001:00069860       __stdio_common_vswprintf   000000014006a860 f   libucrtd:output.obj
 0001:000698b0       _ctype_fast_check_internal 000000014006a8b0 f i libucrtd:output.obj
 0001:000698e0       _isdigit_fast_internal     000000014006a8e0 f i libucrtd:output.obj
 0001:00069910       _tolower_fast_internal     000000014006a910 f i libucrtd:output.obj
 0001:00069940       ??$assemble_floating_point_ind@M@__crt_strtox@@YAXAEAM@Z 000000014006a940 f i libucrtd:input.obj
 0001:00069990       ??$assemble_floating_point_ind@N@__crt_strtox@@YAXAEAN@Z 000000014006a990 f i libucrtd:input.obj
 0001:00069a10       ??$assemble_floating_point_infinity@M@__crt_strtox@@YAX_NAEAM@Z 000000014006aa10 f i libucrtd:input.obj
 0001:00069a90       ??$assemble_floating_point_infinity@N@__crt_strtox@@YAX_NAEAN@Z 000000014006aa90 f i libucrtd:input.obj
 0001:00069b30       ??$assemble_floating_point_qnan@M@__crt_strtox@@YAX_NAEAM@Z 000000014006ab30 f i libucrtd:input.obj
 0001:00069bb0       ??$assemble_floating_point_qnan@N@__crt_strtox@@YAX_NAEAN@Z 000000014006abb0 f i libucrtd:input.obj
 0001:00069c50       ??$assemble_floating_point_snan@M@__crt_strtox@@YAX_NAEAM@Z 000000014006ac50 f i libucrtd:input.obj
 0001:00069cd0       ??$assemble_floating_point_snan@N@__crt_strtox@@YAX_NAEAN@Z 000000014006acd0 f i libucrtd:input.obj
 0001:00069d80       ??$assemble_floating_point_value_t@M@__crt_strtox@@YA?AW4SLD_STATUS@@_NH_KAEAM@Z 000000014006ad80 f i libucrtd:input.obj
 0001:00069e10       ??$assemble_floating_point_value_t@N@__crt_strtox@@YA?AW4SLD_STATUS@@_NH_KAEAN@Z 000000014006ae10 f i libucrtd:input.obj
 0001:00069ed0       ??$assemble_floating_point_zero@M@__crt_strtox@@YAX_NAEAM@Z 000000014006aed0 f i libucrtd:input.obj
 0001:00069f50       ??$assemble_floating_point_zero@N@__crt_strtox@@YAX_NAEAN@Z 000000014006af50 f i libucrtd:input.obj
 0001:0006a240       ??$convert_decimal_string_to_floating_type@M@__crt_strtox@@YA?AW4SLD_STATUS@@AEBUfloating_point_string@0@AEAM@Z 000000014006b240 f i libucrtd:input.obj
 0001:0006a270       ??$convert_decimal_string_to_floating_type@N@__crt_strtox@@YA?AW4SLD_STATUS@@AEBUfloating_point_string@0@AEAN@Z 000000014006b270 f i libucrtd:input.obj
 0001:0006a2a0       ??$convert_hexadecimal_string_to_floating_type@M@__crt_strtox@@YA?AW4SLD_STATUS@@AEBUfloating_point_string@0@AEAM@Z 000000014006b2a0 f i libucrtd:input.obj
 0001:0006a2d0       ??$convert_hexadecimal_string_to_floating_type@N@__crt_strtox@@YA?AW4SLD_STATUS@@AEBUfloating_point_string@0@AEAN@Z 000000014006b2d0 f i libucrtd:input.obj
 0001:0006a300       ??$fill_buffer@D@?$input_processor@DV?$string_input_adapter@D@__crt_stdio_input@@@__crt_stdio_input@@CAXQEFAD_K1@Z 000000014006b300 f i libucrtd:input.obj
 0001:0006a3e0       ??$fill_buffer@_W@?$input_processor@DV?$string_input_adapter@D@__crt_stdio_input@@@__crt_stdio_input@@CAXQEFA_W_K1@Z 000000014006b3e0 f i libucrtd:input.obj
 0001:0006a4d0       ??$is_overflow_condition@_K@__crt_strtox@@YA_NI_K@Z 000000014006b4d0 f i libucrtd:input.obj
 0001:0006a540       ??$istspace@AEBE@?$__crt_char_traits@D@@SAHAEBE@Z 000000014006b540 f i libucrtd:input.obj
 0001:0006a560       ??$make_input_adapter_character_source@V?$string_input_adapter@D@__crt_stdio_input@@@__crt_strtox@@YA?AV?$input_adapter_character_source@V?$string_input_adapter@D@__crt_stdio_input@@@0@QEAV?$string_input_adapter@D@__crt_stdio_input@@_KQEA_N@Z 000000014006b560 f i libucrtd:input.obj
 0001:0006a5a0       ??$parse_floating_point@V?$input_adapter_character_source@V?$string_input_adapter@D@__crt_stdio_input@@@__crt_strtox@@M@__crt_strtox@@YA?AW4SLD_STATUS@@QEAU__crt_locale_pointers@@V?$input_adapter_character_source@V?$string_input_adapter@D@__crt_stdio_input@@@0@QEAM@Z 000000014006b5a0 f i libucrtd:input.obj
 0001:0006a7b0       ??$parse_floating_point@V?$input_adapter_character_source@V?$string_input_adapter@D@__crt_stdio_input@@@__crt_strtox@@N@__crt_strtox@@YA?AW4SLD_STATUS@@QEAU__crt_locale_pointers@@V?$input_adapter_character_source@V?$string_input_adapter@D@__crt_stdio_input@@@0@QEAN@Z 000000014006b7b0 f i libucrtd:input.obj
 0001:0006a9c0       ??$parse_floating_point_from_source@V?$input_adapter_character_source@V?$string_input_adapter@D@__crt_stdio_input@@@__crt_strtox@@@__crt_strtox@@YA?AW4floating_point_parse_result@0@QEAU__crt_locale_pointers@@AEAV?$input_adapter_character_source@V?$string_input_adapter@D@__crt_stdio_input@@@0@AEAUfloating_point_string@0@@Z 000000014006b9c0 f i libucrtd:input.obj
 0001:0006b0d0       ??$parse_floating_point_possible_infinity@DV?$input_adapter_character_source@V?$string_input_adapter@D@__crt_stdio_input@@@__crt_strtox@@_K@__crt_strtox@@YA?AW4floating_point_parse_result@0@AEADAEAV?$input_adapter_character_source@V?$string_input_adapter@D@__crt_stdio_input@@@0@_K@Z 000000014006c0d0 f i libucrtd:input.obj
 0001:0006b1f0       ??$parse_floating_point_possible_nan@DV?$input_adapter_character_source@V?$string_input_adapter@D@__crt_stdio_input@@@__crt_strtox@@_K@__crt_strtox@@YA?AW4floating_point_parse_result@0@AEADAEAV?$input_adapter_character_source@V?$string_input_adapter@D@__crt_stdio_input@@@0@_K@Z 000000014006c1f0 f i libucrtd:input.obj
 0001:0006b3f0       ??$parse_floating_point_possible_nan_is_ind@DV?$input_adapter_character_source@V?$string_input_adapter@D@__crt_stdio_input@@@__crt_strtox@@@__crt_strtox@@YA_NAEADAEAV?$input_adapter_character_source@V?$string_input_adapter@D@__crt_stdio_input@@@0@@Z 000000014006c3f0 f i libucrtd:input.obj
 0001:0006b430       ??$parse_floating_point_possible_nan_is_snan@DV?$input_adapter_character_source@V?$string_input_adapter@D@__crt_stdio_input@@@__crt_strtox@@@__crt_strtox@@YA_NAEADAEAV?$input_adapter_character_source@V?$string_input_adapter@D@__crt_stdio_input@@@0@@Z 000000014006c430 f i libucrtd:input.obj
 0001:0006b470       ??$parse_floating_point_write_result@M@__crt_strtox@@YA?AW4SLD_STATUS@@W4floating_point_parse_result@0@AEBUfloating_point_string@0@QEAM@Z 000000014006c470 f i libucrtd:input.obj
 0001:0006b620       ??$parse_floating_point_write_result@N@__crt_strtox@@YA?AW4SLD_STATUS@@W4floating_point_parse_result@0@AEBUfloating_point_string@0@QEAN@Z 000000014006c620 f i libucrtd:input.obj
 0001:0006b7d0       ??$parse_integer@_KV?$input_adapter_character_source@V?$string_input_adapter@D@__crt_stdio_input@@@__crt_strtox@@@__crt_strtox@@YA_KQEAU__crt_locale_pointers@@V?$input_adapter_character_source@V?$string_input_adapter@D@__crt_stdio_input@@@0@H_N@Z 000000014006c7d0 f i libucrtd:input.obj
 0001:0006bcf0       ??$parse_next_characters_from_source@DV?$input_adapter_character_source@V?$string_input_adapter@D@__crt_stdio_input@@@__crt_strtox@@@__crt_strtox@@YA_NQEBD0_KAEADAEAV?$input_adapter_character_source@V?$string_input_adapter@D@__crt_stdio_input@@@0@@Z 000000014006ccf0 f i libucrtd:input.obj
 0001:0006bd90       ??$process_floating_point_specifier_t@M@?$input_processor@DV?$string_input_adapter@D@__crt_stdio_input@@@__crt_stdio_input@@AEAA_NXZ 000000014006cd90 f i libucrtd:input.obj
 0001:0006be40       ??$process_floating_point_specifier_t@N@?$input_processor@DV?$string_input_adapter@D@__crt_stdio_input@@@__crt_stdio_input@@AEAA_NXZ 000000014006ce40 f i libucrtd:input.obj
 0001:0006bef0       ??$process_string_specifier_tchar@D@?$input_processor@DV?$string_input_adapter@D@__crt_stdio_input@@@__crt_stdio_input@@AEAA_NW4conversion_mode@1@D@Z 000000014006cef0 f i libucrtd:input.obj
 0001:0006c380       ??$process_string_specifier_tchar@_W@?$input_processor@DV?$string_input_adapter@D@__crt_stdio_input@@@__crt_stdio_input@@AEAA_NW4conversion_mode@1@_W@Z 000000014006d380 f i libucrtd:input.obj
 0001:0006c810       ??$reset_buffer@D@?$input_processor@DV?$string_input_adapter@D@__crt_stdio_input@@@__crt_stdio_input@@CAXQEFAD_K@Z 000000014006d810 f i libucrtd:input.obj
 0001:0006c8a0       ??$reset_buffer@_W@?$input_processor@DV?$string_input_adapter@D@__crt_stdio_input@@@__crt_stdio_input@@CAXQEFA_W_K@Z 000000014006d8a0 f i libucrtd:input.obj
 0001:0006c940       ??$skip_whitespace@Vstring_input_adapter@__crt_stdio_input@@D@__crt_stdio_input@@YAHAEAV?$string_input_adapter@D@0@QEAU__crt_locale_pointers@@@Z 000000014006d940 f i libucrtd:input.obj
 0001:0006c990       ??$tcsnlen@AEBQEBDAEB_K@?$__crt_char_traits@D@@SA_KAEBQEBDAEB_K@Z 000000014006d990 f i libucrtd:input.obj
 0001:0006c9c0       ??$tcstoull@PEBDPEAPEADH@?$__crt_char_traits@D@@SA_K$$QEAPEBD$$QEAPEAPEAD$$QEAH@Z 000000014006d9c0 f i libucrtd:input.obj
 0001:0006ca00       ??$write_floating_point@M@?$input_processor@DV?$string_input_adapter@D@__crt_stdio_input@@@__crt_stdio_input@@AEAA_NAEBM@Z 000000014006da00 f i libucrtd:input.obj
 0001:0006cba0       ??$write_floating_point@N@?$input_processor@DV?$string_input_adapter@D@__crt_stdio_input@@@__crt_stdio_input@@AEAA_NAEBN@Z 000000014006dba0 f i libucrtd:input.obj
 0001:0006cd90       ??0?$format_string_parser@D@__crt_stdio_input@@QEAA@_KQEBE@Z 000000014006dd90 f i libucrtd:input.obj
 0001:0006cdf0       ??0?$input_adapter_character_source@V?$string_input_adapter@D@__crt_stdio_input@@@__crt_strtox@@QEAA@QEAV?$string_input_adapter@D@__crt_stdio_input@@_KQEA_N@Z 000000014006ddf0 f i libucrtd:input.obj
 0001:0006ce50       ??0?$input_processor@DV?$string_input_adapter@D@__crt_stdio_input@@@__crt_stdio_input@@QEAA@AEBV?$string_input_adapter@D@1@_KQEBDQEAU__crt_locale_pointers@@QEAD@Z 000000014006de50 f i libucrtd:input.obj
 0001:0006cef0       ??0?$scanset_buffer@E@__crt_stdio_input@@QEAA@XZ 000000014006def0 f i libucrtd:input.obj
 0001:0006cf10       ??0?$scanset_storage@$00@__crt_stdio_input@@QEAA@XZ 000000014006df10 f i libucrtd:input.obj
 0001:0006cf30       ??0?$string_input_adapter@D@__crt_stdio_input@@QEAA@QEBD_K@Z 000000014006df30 f i libucrtd:input.obj
 0001:0006cf80       ??4big_integer@__crt_strtox@@QEAAAEAU01@AEBU01@@Z 000000014006df80 f i libucrtd:input.obj
 0001:0006cf80       ??0big_integer@__crt_strtox@@QEAA@AEBU01@@Z 000000014006df80 f i libucrtd:input.obj
 0001:0006cfe0       ??0big_integer@__crt_strtox@@QEAA@XZ 000000014006dfe0 f i libucrtd:input.obj
 0001:0006d020       ??0floating_point_value@__crt_strtox@@QEAA@QEAM@Z 000000014006e020 f i libucrtd:input.obj
 0001:0006d090       ??0floating_point_value@__crt_strtox@@QEAA@QEAN@Z 000000014006e090 f i libucrtd:input.obj
 0001:0006d100       ??1?$input_adapter_character_source@V?$string_input_adapter@D@__crt_stdio_input@@@__crt_strtox@@QEAA@XZ 000000014006e100 f i libucrtd:input.obj
 0001:0006d130       ??M__crt_strtox@@YA_NAEBUbig_integer@0@0@Z 000000014006e130 f i libucrtd:input.obj
 0001:0006d220       ?accumulate_decimal_digits_into_big_integer@__crt_strtox@@YAXQEBE0AEAUbig_integer@1@@Z 000000014006e220 f i libucrtd:input.obj
 0001:0006d2f0       ?add@__crt_strtox@@YA_NAEAUbig_integer@1@I@Z 000000014006e2f0 f i libucrtd:input.obj
 0001:0006d410       ?add_carry@__crt_strtox@@YAIAEAIII@Z 000000014006e410 f i libucrtd:input.obj
 0001:0006d460       ?add_multiply_carry@__crt_strtox@@YAIAEAIIII@Z 000000014006e460 f i libucrtd:input.obj
 0001:0006d4c0       ?advance@?$format_string_parser@D@__crt_stdio_input@@QEAA_NXZ 000000014006e4c0 f i libucrtd:input.obj
 0001:0006d6a0       ?as_double@floating_point_value@__crt_strtox@@QEBAAEANXZ 000000014006e6a0 f i libucrtd:input.obj
 0001:0006d740       ?as_float@floating_point_value@__crt_strtox@@QEBAAEAMXZ 000000014006e740 f i libucrtd:input.obj
 0001:0006d7e0       ?assemble_floating_point_infinity@__crt_strtox@@YAX_NAEBVfloating_point_value@1@@Z 000000014006e7e0 f i libucrtd:input.obj
 0001:0006d840       ?assemble_floating_point_value@__crt_strtox@@YA?AW4SLD_STATUS@@_KH_N1AEBVfloating_point_value@1@@Z 000000014006e840 f i libucrtd:input.obj
 0001:0006daf0       ?assemble_floating_point_value_from_big_integer@__crt_strtox@@YA?AW4SLD_STATUS@@AEBUbig_integer@1@I_N1AEBVfloating_point_value@1@@Z 000000014006eaf0 f i libucrtd:input.obj
 0001:0006df30       ?assemble_floating_point_zero@__crt_strtox@@YAX_NAEBVfloating_point_value@1@@Z 000000014006ef30 f i libucrtd:input.obj
 0001:0006df90       ?bit_scan_reverse@__crt_strtox@@YAIAEBUbig_integer@1@@Z 000000014006ef90 f i libucrtd:input.obj
 0001:0006dfe0       ?bit_scan_reverse@__crt_strtox@@YAII@Z 000000014006efe0 f i libucrtd:input.obj
 0001:0006e020       ?bit_scan_reverse@__crt_strtox@@YAI_K@Z 000000014006f020 f i libucrtd:input.obj
 0001:0006e070       ?characters_read@?$string_input_adapter@D@__crt_stdio_input@@QEBA_KXZ 000000014006f070 f i libucrtd:input.obj
 0001:0006e090       ?convert_decimal_string_to_floating_type_common@__crt_strtox@@YA?AW4SLD_STATUS@@AEBUfloating_point_string@1@AEBVfloating_point_value@1@@Z 000000014006f090 f i libucrtd:input.obj
 0001:0006e6b0       ?convert_hexadecimal_string_to_floating_type_common@__crt_strtox@@YA?AW4SLD_STATUS@@AEBUfloating_point_string@1@AEBVfloating_point_value@1@@Z 000000014006f6b0 f i libucrtd:input.obj
 0001:0006e7f0       ?count_sequential_high_zeroes@__crt_strtox@@YAII@Z 000000014006f7f0 f i libucrtd:input.obj
 0001:0006e830       ?denormal_mantissa_mask@floating_point_value@__crt_strtox@@QEBA_KXZ 000000014006f830 f i libucrtd:input.obj
 0001:0006e870       ?divide@__crt_strtox@@YA_KAEAUbig_integer@1@AEBU21@@Z 000000014006f870 f i libucrtd:input.obj
 0001:0006f240       ?error_code@?$format_string_parser@D@__crt_stdio_input@@QEBAHXZ 0000000140070240 f i libucrtd:input.obj
 0001:0006f250       ?exponent_bias@floating_point_value@__crt_strtox@@QEBAHXZ 0000000140070250 f i libucrtd:input.obj
 0001:0006f250       ?maximum_binary_exponent@floating_point_value@__crt_strtox@@QEBAHXZ 0000000140070250 f i libucrtd:input.obj
 0001:0006f280       ?get@?$input_adapter_character_source@V?$string_input_adapter@D@__crt_stdio_input@@@__crt_strtox@@QEAADXZ 0000000140070280 f i libucrtd:input.obj
 0001:0006f2f0       ?get@?$string_input_adapter@D@__crt_stdio_input@@QEAAHXZ 00000001400702f0 f i libucrtd:input.obj
 0001:0006f340       ?invert@?$scanset_buffer@E@__crt_stdio_input@@QEAAXXZ 0000000140070340 f i libucrtd:input.obj
 0001:0006f3c0       ?is_character_allowed_in_string@?$input_processor@DV?$string_input_adapter@D@__crt_stdio_input@@@__crt_stdio_input@@AEBA_NW4conversion_mode@2@H@Z 00000001400703c0 f i libucrtd:input.obj
 0001:0006f460       ?is_digit_or_nondigit@__crt_strtox@@YA_NH@Z 0000000140070460 f i libucrtd:input.obj
 0001:0006f4b0       ?is_double@floating_point_value@__crt_strtox@@QEBA_NXZ 00000001400704b0 f i libucrtd:input.obj
 0001:0006f4c0       ?is_length_valid@__crt_stdio_input@@YA_NW4conversion_mode@1@W4length_modifier@1@@Z 00000001400704c0 f i libucrtd:input.obj
 0001:0006f510       ?is_space@__crt_strtox@@YA_NDQEAU__crt_locale_pointers@@@Z 0000000140070510 f i libucrtd:input.obj
 0001:0006f560       ?is_space@__crt_strtox@@YA_N_WPEAU__crt_locale_pointers@@@Z 0000000140070560 f i libucrtd:input.obj
 0001:0006f5a0       ?is_usable@?$scanset_buffer@E@__crt_stdio_input@@QEAA_NXZ 00000001400705a0 f i libucrtd:input.obj
 0001:0006f5e0       ?kind@?$format_string_parser@D@__crt_stdio_input@@QEBA?AW4format_directive_kind@2@XZ 00000001400705e0 f i libucrtd:input.obj
 0001:0006f5f0       ?length@?$format_string_parser@D@__crt_stdio_input@@QEBA_KXZ 00000001400705f0 f i libucrtd:input.obj
 0001:0006f6e0       ?literal_character_lead@?$format_string_parser@D@__crt_stdio_input@@QEBAEXZ 00000001400706e0 f i libucrtd:input.obj
 0001:0006f740       ?literal_character_trail@?$format_string_parser@D@__crt_stdio_input@@QEBAEXZ 0000000140070740 f i libucrtd:input.obj
 0001:0006f7a0       ?make_big_integer@__crt_strtox@@YA?AUbig_integer@1@_K@Z 00000001400707a0 f i libucrtd:input.obj
 0001:0006f870       ?mantissa_bits@floating_point_value@__crt_strtox@@QEBAHXZ 0000000140070870 f i libucrtd:input.obj
 0001:0006f8a0       ?maximum_signed_value@__crt_strtox@@YA_J_K@Z 00000001400708a0 f i libucrtd:input.obj
 0001:0006f8b0       ?minimum_binary_exponent@floating_point_value@__crt_strtox@@QEBAHXZ 00000001400708b0 f i libucrtd:input.obj
 0001:0006f8e0       ?minimum_signed_value@__crt_strtox@@YA_J_K@Z 00000001400708e0 f i libucrtd:input.obj
 0001:0006f8f0       ?mode@?$format_string_parser@D@__crt_stdio_input@@QEBA?AW4conversion_mode@2@XZ 00000001400708f0 f i libucrtd:input.obj
 0001:0006f950       ?multiply@__crt_strtox@@YA_NAEAUbig_integer@1@AEBU21@@Z 0000000140070950 f i libucrtd:input.obj
 0001:0006fcd0       ?multiply@__crt_strtox@@YA_NAEAUbig_integer@1@I@Z 0000000140070cd0 f i libucrtd:input.obj
 0001:0006fdf0       ?multiply_64_32@__crt_strtox@@YA_K_KI@Z 0000000140070df0 f i libucrtd:input.obj
 0001:0006fe10       ?multiply_by_power_of_ten@__crt_strtox@@YA_NAEAUbig_integer@1@I@Z 0000000140070e10 f i libucrtd:input.obj
 0001:0006ffc0       ?multiply_core@__crt_strtox@@YAIQEAIII@Z 0000000140070fc0 f i libucrtd:input.obj
 0001:00070040       ?normal_mantissa_mask@floating_point_value@__crt_strtox@@QEBA_KXZ 0000000140071040 f i libucrtd:input.obj
 0001:00070080       ?parse_digit@__crt_strtox@@YAID@Z 0000000140071080 f i libucrtd:input.obj
 0001:000700f0       ?parse_digit@__crt_strtox@@YAI_W@Z 00000001400710f0 f i libucrtd:input.obj
 0001:00070140       ?process@?$input_processor@DV?$string_input_adapter@D@__crt_stdio_input@@@__crt_stdio_input@@QEAAHXZ 0000000140071140 f i libucrtd:input.obj
 0001:00070310       ?process_character_count_specifier@?$input_processor@DV?$string_input_adapter@D@__crt_stdio_input@@@__crt_stdio_input@@AEAA_NXZ 0000000140071310 f i libucrtd:input.obj
 0001:00070360       ?process_conversion_specifier@?$input_processor@DV?$string_input_adapter@D@__crt_stdio_input@@@__crt_stdio_input@@AEAA_NXZ 0000000140071360 f i libucrtd:input.obj
 0001:00070480       ?process_floating_point_specifier@?$input_processor@DV?$string_input_adapter@D@__crt_stdio_input@@@__crt_stdio_input@@AEAA_NXZ 0000000140071480 f i libucrtd:input.obj
 0001:000704e0       ?process_integer_specifier@?$input_processor@DV?$string_input_adapter@D@__crt_stdio_input@@@__crt_stdio_input@@AEAA_NI_N@Z 00000001400714e0 f i libucrtd:input.obj
 0001:000705a0       ?process_literal_character@?$input_processor@DV?$string_input_adapter@D@__crt_stdio_input@@@__crt_stdio_input@@AEAA_NXZ 00000001400715a0 f i libucrtd:input.obj
 0001:00070610       ?process_literal_character_tchar@?$input_processor@DV?$string_input_adapter@D@__crt_stdio_input@@@__crt_stdio_input@@AEAA_ND@Z 0000000140071610 f i libucrtd:input.obj
 0001:000706a0       ?process_state@?$input_processor@DV?$string_input_adapter@D@__crt_stdio_input@@@__crt_stdio_input@@AEAA_NXZ 00000001400716a0 f i libucrtd:input.obj
 0001:00070760       ?process_string_specifier@?$input_processor@DV?$string_input_adapter@D@__crt_stdio_input@@@__crt_stdio_input@@AEAA_NW4conversion_mode@2@@Z 0000000140071760 f i libucrtd:input.obj
 0001:000707e0       ?process_whitespace@?$input_processor@DV?$string_input_adapter@D@__crt_stdio_input@@@__crt_stdio_input@@AEAA_NXZ 00000001400717e0 f i libucrtd:input.obj
 0001:00070820       ?reset@?$scanset_buffer@E@__crt_stdio_input@@QEAAXXZ 0000000140071820 f i libucrtd:input.obj
 0001:00070870       ?reset_token_state@?$format_string_parser@D@__crt_stdio_input@@AEAAXXZ 0000000140071870 f i libucrtd:input.obj
 0001:000708d0       ?reset_token_state_for_error@?$format_string_parser@D@__crt_stdio_input@@AEAAXH@Z 00000001400718d0 f i libucrtd:input.obj
 0001:00070900       ?restore_state@?$input_adapter_character_source@V?$string_input_adapter@D@__crt_stdio_input@@@__crt_strtox@@QEAA_N_K@Z 0000000140071900 f i libucrtd:input.obj
 0001:00070930       ?right_shift_with_rounding@__crt_strtox@@YA_K_N_KI0@Z 0000000140071930 f i libucrtd:input.obj
 0001:00070aa0       ?data@?$__crt_win32_buffer@DU__crt_win32_buffer_internal_dynamic_resizing@@@@QEAAPEADXZ 0000000140071aa0 f i libucrtd:argv_wildcards.obj
 0001:00070aa0       ?data@?$__crt_win32_buffer@DU__crt_win32_buffer_no_resizing@@@@QEAAPEADXZ 0000000140071aa0 f i libucrtd:getmodulefilenamea.obj
 0001:00070aa0       ?data@?$__crt_win32_buffer@_WU__crt_win32_buffer_internal_dynamic_resizing@@@@QEAAPEA_WXZ 0000000140071aa0 f i libucrtd:argv_wildcards.obj
 0001:00070aa0       ?save_state@?$input_adapter_character_source@V?$string_input_adapter@D@__crt_stdio_input@@@__crt_strtox@@QEBA_KXZ 0000000140071aa0 f i libucrtd:input.obj
 0001:00070ab0       ?scan_conversion_specifier@?$format_string_parser@D@__crt_stdio_input@@AEAA_NXZ 0000000140071ab0 f i libucrtd:input.obj
 0001:00070d80       ?scan_optional_assignment_suppressor@?$format_string_parser@D@__crt_stdio_input@@AEAAXXZ 0000000140071d80 f i libucrtd:input.obj
 0001:00070dc0       ?scan_optional_field_width@?$format_string_parser@D@__crt_stdio_input@@AEAA_NXZ 0000000140071dc0 f i libucrtd:input.obj
 0001:00070e80       ?scan_optional_length_modifier@?$format_string_parser@D@__crt_stdio_input@@AEAAXXZ 0000000140071e80 f i libucrtd:input.obj
 0001:00071230       ?scan_optional_literal_character_trail_bytes_tchar@?$format_string_parser@D@__crt_stdio_input@@AEAA_ND@Z 0000000140072230 f i libucrtd:input.obj
 0001:000712b0       ?scan_optional_wide_modifier@?$format_string_parser@D@__crt_stdio_input@@AEAAXXZ 00000001400722b0 f i libucrtd:input.obj
 0001:00071320       ?scan_scanset_range@?$format_string_parser@D@__crt_stdio_input@@AEAA_NXZ 0000000140072320 f i libucrtd:input.obj
 0001:000715c0       ?scanset@?$format_string_parser@D@__crt_stdio_input@@QEBAAEBV?$scanset_buffer@E@2@XZ 00000001400725c0 f i libucrtd:input.obj
 0001:00071630       ?secure_buffers@?$input_processor@DV?$string_input_adapter@D@__crt_stdio_input@@@__crt_stdio_input@@AEBA_NXZ 0000000140072630 f i libucrtd:input.obj
 0001:00071670       ?set@?$scanset_buffer@E@__crt_stdio_input@@QEAAXE@Z 0000000140072670 f i libucrtd:input.obj
 0001:000716f0       ?set_wide_for_c_s_or_scanset@?$format_string_parser@D@__crt_stdio_input@@AEAAXXZ 00000001400726f0 f i libucrtd:input.obj
 0001:00071740       ?shift_left@__crt_strtox@@YA_NAEAUbig_integer@1@I@Z 0000000140072740 f i libucrtd:input.obj
 0001:00071a20       ?should_default_to_wide@?$format_string_parser@D@__crt_stdio_input@@AEAA_NE@Z 0000000140072a20 f i libucrtd:input.obj
 0001:00071a60       ?should_round_up@__crt_strtox@@YA_N_N000@Z 0000000140072a60 f i libucrtd:input.obj
 0001:00071b90       ?size@?$scanset_storage@$00@__crt_stdio_input@@QEBA_KXZ 0000000140072b90 f i libucrtd:input.obj
 0001:00071ba0       ?suppress_assignment@?$format_string_parser@D@__crt_stdio_input@@QEBA_NXZ 0000000140072ba0 f i libucrtd:input.obj
 0001:00071c00       ?test@?$scanset_buffer@E@__crt_stdio_input@@QEBA_NE@Z 0000000140072c00 f i libucrtd:input.obj
 0001:00071c90       ?to_floating_point_length@__crt_stdio_input@@YA_KW4length_modifier@1@@Z 0000000140072c90 f i libucrtd:input.obj
 0001:00071d20       ?to_integer_length@__crt_stdio_input@@YA_KW4length_modifier@1@@Z 0000000140072d20 f i libucrtd:input.obj
 0001:00071e10       ?unget@?$input_adapter_character_source@V?$string_input_adapter@D@__crt_stdio_input@@@__crt_strtox@@QEAAXD@Z 0000000140072e10 f i libucrtd:input.obj
 0001:00071e90       ?unget@?$string_input_adapter@D@__crt_stdio_input@@QEAAXH@Z 0000000140072e90 f i libucrtd:input.obj
 0001:00071ef0       ?validate@?$format_string_parser@D@__crt_stdio_input@@QEBA_NXZ 0000000140072ef0 f i libucrtd:input.obj
 0001:00071fb0       ?validate@?$input_adapter_character_source@V?$string_input_adapter@D@__crt_stdio_input@@@__crt_strtox@@QEBA_NXZ 0000000140072fb0 f i libucrtd:input.obj
 0001:00072110       ?validate@?$string_input_adapter@D@__crt_stdio_input@@QEAA_NXZ 0000000140073110 f i libucrtd:input.obj
 0001:00072280       ?wide_character_to_digit@__crt_strtox@@YAH_W@Z 0000000140073280 f i libucrtd:input.obj
 0001:000725f0       ?width@?$format_string_parser@D@__crt_stdio_input@@QEBA_KXZ 00000001400735f0 f i libucrtd:input.obj
 0001:00072650       ?write_character@?$input_processor@DV?$string_input_adapter@D@__crt_stdio_input@@@__crt_stdio_input@@AEAA_NQEAD_KAEAPEADAEA_KD@Z 0000000140073650 f i libucrtd:input.obj
 0001:000726a0       ?write_character@?$input_processor@DV?$string_input_adapter@D@__crt_stdio_input@@@__crt_stdio_input@@AEAA_NQEFA_W_KAEAPEFA_WAEA_KD@Z 00000001400736a0 f i libucrtd:input.obj
 0001:00072770       ?write_integer@?$input_processor@DV?$string_input_adapter@D@__crt_stdio_input@@@__crt_stdio_input@@AEAA_N_K@Z 0000000140073770 f i libucrtd:input.obj
 0001:00072960       __acrt_get_locale_data_prefix 0000000140073960 f i libucrtd:input.obj
 0001:00072980       __ascii_iswalpha           0000000140073980 f i libucrtd:input.obj
 0001:000729c0       __ascii_toupper            00000001400739c0 f i libucrtd:input.obj
 0001:000729e0       __ascii_towupper           00000001400739e0 f i libucrtd:input.obj
 0001:00072a00       __stdio_common_vsscanf     0000000140073a00 f   libucrtd:input.obj
 0001:00072a50       _chvalidchk_l              0000000140073a50 f i libucrtd:input.obj
 0001:00072a80       _invoke_watson_if_oneof    0000000140073a80 f i libucrtd:input.obj
 0001:00072ae0       _ischartype_l              0000000140073ae0 f i libucrtd:input.obj
 0001:00072b70       free                       0000000140073b70 f   libucrtd:free.obj
 0001:00072ba0       malloc                     0000000140073ba0 f   libucrtd:malloc.obj
 0001:00072bd0       realloc                    0000000140073bd0 f   libucrtd:realloc.obj
 0001:00072c10       ??$is_overflow_condition@K@__crt_strtox@@YA_NIK@Z 0000000140073c10 f i libucrtd:atox.obj
 0001:00072c80       ??$make_c_string_character_source@D$$T@__crt_strtox@@YA?AV?$c_string_character_source@D@0@QEBD$$T@Z 0000000140073c80 f i libucrtd:atox.obj
 0001:00072c80       ??$make_c_string_character_source@DPEAPEAD@__crt_strtox@@YA?AV?$c_string_character_source@D@0@QEBDQEAPEAD@Z 0000000140073c80 f i libucrtd:strtox.obj
 0001:00072c80       ??$make_c_string_character_source@_WPEAPEA_W@__crt_strtox@@YA?AV?$c_string_character_source@_W@0@QEB_WQEAPEA_W@Z 0000000140073c80 f i libucrtd:strtox.obj
 0001:00072cc0       ??$parse_integer@KV?$c_string_character_source@D@__crt_strtox@@@__crt_strtox@@YAKQEAU__crt_locale_pointers@@V?$c_string_character_source@D@0@H_N@Z 0000000140073cc0 f i libucrtd:atox.obj
 0001:00073150       ??$parse_integer@KV?$c_string_character_source@_W@__crt_strtox@@@__crt_strtox@@YAKQEAU__crt_locale_pointers@@V?$c_string_character_source@_W@0@H_N@Z 0000000140074150 f i libucrtd:atox.obj
 0001:00073600       ??$parse_integer@_KV?$c_string_character_source@D@__crt_strtox@@@__crt_strtox@@YA_KQEAU__crt_locale_pointers@@V?$c_string_character_source@D@0@H_N@Z 0000000140074600 f i libucrtd:atox.obj
 0001:00073b20       ??$parse_integer_from_string@JDPEAPEAD@__crt_strtox@@YAJQEBDQEAPEADHQEAU__crt_locale_pointers@@@Z 0000000140074b20 f i libucrtd:strtox.obj
 0001:00073b20       ??$parse_integer_from_string@JD$$T@__crt_strtox@@YAJQEBD$$THQEAU__crt_locale_pointers@@@Z 0000000140074b20 f i libucrtd:atox.obj
 0001:00073b70       ??0?$c_string_character_source@D@__crt_strtox@@QEAA@QEBDQEAPEBD@Z 0000000140074b70 f i libucrtd:atox.obj
 0001:00073b70       ??0?$c_string_character_source@_W@__crt_strtox@@QEAA@QEB_WQEAPEB_W@Z 0000000140074b70 f i libucrtd:atox.obj
 0001:00073bc0       ??1?$c_string_character_source@D@__crt_strtox@@QEAA@XZ 0000000140074bc0 f i libucrtd:atox.obj
 0001:00073bc0       ??1?$c_string_character_source@_W@__crt_strtox@@QEAA@XZ 0000000140074bc0 f i libucrtd:atox.obj
 0001:00073bf0       ?get@?$c_string_character_source@D@__crt_strtox@@QEAADXZ 0000000140074bf0 f i libucrtd:atox.obj
 0001:00073c30       ?get@?$c_string_character_source@_W@__crt_strtox@@QEAA_WXZ 0000000140074c30 f i libucrtd:atox.obj
 0001:00073c70       ?maximum_signed_value@__crt_strtox@@YAJK@Z 0000000140074c70 f i libucrtd:atox.obj
 0001:00073c80       ?minimum_signed_value@__crt_strtox@@YAJK@Z 0000000140074c80 f i libucrtd:atox.obj
 0001:00073c90       ?restore_state@?$c_string_character_source@_W@__crt_strtox@@QEAA_NQEB_W@Z 0000000140074c90 f i libucrtd:atox.obj
 0001:00073c90       ?restore_state@?$c_string_character_source@D@__crt_strtox@@QEAA_NQEBD@Z 0000000140074c90 f i libucrtd:atox.obj
 0001:00073cb0       ?unget@?$c_string_character_source@D@__crt_strtox@@QEAAXD@Z 0000000140074cb0 f i libucrtd:atox.obj
 0001:00073d90       ?unget@?$c_string_character_source@_W@__crt_strtox@@QEAAX_W@Z 0000000140074d90 f i libucrtd:atox.obj
 0001:00073e70       ?validate@?$c_string_character_source@D@__crt_strtox@@QEBA_NXZ 0000000140074e70 f i libucrtd:atox.obj
 0001:00073f30       ?validate@?$c_string_character_source@_W@__crt_strtox@@QEBA_NXZ 0000000140074f30 f i libucrtd:atox.obj
 0001:00073ff0       atoi                       0000000140074ff0 f   libucrtd:atox.obj
 0001:00074020       ??$parse_integer_from_string@J_WPEAPEA_W@__crt_strtox@@YAJQEB_WQEAPEA_WHQEAU__crt_locale_pointers@@@Z 0000000140075020 f i libucrtd:strtox.obj
 0001:00074070       ??$parse_integer_from_string@_KDPEAPEAD@__crt_strtox@@YA_KQEBDQEAPEADHQEAU__crt_locale_pointers@@@Z 0000000140075070 f i libucrtd:strtox.obj
 0001:000740c0       strtol                     00000001400750c0 f   libucrtd:strtox.obj
 0001:000740f0       strtoull                   00000001400750f0 f   libucrtd:strtox.obj
 0001:00074120       wcstol                     0000000140075120 f   libucrtd:strtox.obj
 0001:00074160       strncmp                    0000000140075160 f   libucrtd:strncmp.obj
 0001:000741e0       ldexp                      00000001400751e0 f   libucrtd:ldexp.obj
 0001:000744f0       roundf                     00000001400754f0 f   libucrtd:roundf.obj
 0001:000755f0       ??$ftprintf@PEAU_iobuf@@PEB_WAEBQEB_WAEBQEB_WAEBI@?$__crt_char_traits@_W@@SAH$$QEAPEAU_iobuf@@$$QEAPEB_WAEBQEB_W2AEBI@Z 00000001400765f0 f i libucrtd:assert.obj
 0001:00075640       ??$get_module_file_name@$$TAEAY0BAF@DH@?$__crt_char_traits@D@@SAK$$QEA$$TAEAY0BAF@D$$QEAH@Z 0000000140076640 f i libucrtd:argv_parsing.obj
 0001:00075640       ??$get_module_file_name@AEAPEAUHINSTANCE__@@AEAY0BAF@DK@?$__crt_char_traits@D@@SAKAEAPEAUHINSTANCE__@@AEAY0BAF@D$$QEAK@Z 0000000140076640 f i libucrtd:assert.obj
 0001:00075680       ??$get_module_file_name@AEAPEAUHINSTANCE__@@AEAY0BAF@_WK@?$__crt_char_traits@_W@@SAKAEAPEAUHINSTANCE__@@AEAY0BAF@_W$$QEAK@Z 0000000140076680 f i libucrtd:assert.obj
 0001:000756c0       ??$itot_s@AEBIPEA_W_KH@?$__crt_char_traits@_W@@SAHAEBI$$QEAPEA_W$$QEA_K$$QEAH@Z 00000001400766c0 f i libucrtd:assert.obj
 0001:00075710       ??$show_message_box@AEAY0CEA@_WPEB_WJ@?$__crt_char_traits@_W@@SAHAEAY0CEA@_W$$QEAPEB_W$$QEAJ@Z 0000000140076710 f i libucrtd:assert.obj
 0001:00075750       ??$tcscat_s@AEBQEA_WAEB_KAEBQEB_W@?$__crt_char_traits@_W@@SAHAEBQEA_WAEB_KAEBQEB_W@Z 0000000140076750 f i libucrtd:assert.obj
 0001:00075750       ??$tcscat_s@AEBQEA_WAEB_KPEB_W@?$__crt_char_traits@_W@@SAHAEBQEA_WAEB_K$$QEAPEB_W@Z 0000000140076750 f i libucrtd:assert.obj
 0001:00075750       ??$tcscat_s@AEBQEA_WAEB_KAEAPEA_W@?$__crt_char_traits@_W@@SAHAEBQEA_WAEB_KAEAPEA_W@Z 0000000140076750 f i libucrtd:assert.obj
 0001:00075790       ??$tcscpy_s@AEAY0BAF@D_KPEBD@?$__crt_char_traits@D@@SAHAEAY0BAF@D$$QEA_K$$QEAPEBD@Z 0000000140076790 f i libucrtd:assert.obj
 0001:000757d0       ??$tcscpy_s@AEAY0BAF@_W_KPEB_W@?$__crt_char_traits@_W@@SAHAEAY0BAF@_W$$QEA_K$$QEAPEB_W@Z 00000001400767d0 f i libucrtd:assert.obj
 0001:00075810       ??$tcscpy_s@AEBQEA_WAEB_KPEB_W@?$__crt_char_traits@_W@@SAHAEBQEA_WAEB_K$$QEAPEB_W@Z 0000000140076810 f i libucrtd:assert.obj
 0001:00075850       ??$tcslen@AEAY0BAF@D@?$__crt_char_traits@D@@SA_KAEAY0BAF@D@Z 0000000140076850 f i libucrtd:assert.obj
 0001:00075870       ??$tcslen@AEAY0BAF@_W@?$__crt_char_traits@_W@@SA_KAEAY0BAF@_W@Z 0000000140076870 f i libucrtd:assert.obj
 0001:00075890       ??$tcslen@AEBQEA_W@?$__crt_char_traits@_W@@SA_KAEBQEA_W@Z 0000000140076890 f i libucrtd:assert.obj
 0001:00075890       ??$tcslen@AEBQEB_W@?$__crt_char_traits@_W@@SA_KAEBQEB_W@Z 0000000140076890 f i libucrtd:assert.obj
 0001:000758b0       ??$tcslen@AEBQEBD@?$__crt_char_traits@D@@SA_KAEBQEBD@Z 00000001400768b0 f i libucrtd:assert.obj
 0001:000758d0       ??$tcsncat_s@AEBQEA_WAEB_KPEB_W_K@?$__crt_char_traits@_W@@SAHAEBQEA_WAEB_K$$QEAPEB_W$$QEA_K@Z 00000001400768d0 f i libucrtd:assert.obj
 0001:000758d0       ??$tcsncat_s@AEBQEA_WAEB_KAEBQEB_WAEB_K@?$__crt_char_traits@_W@@SAHAEBQEA_WAEB_KAEBQEB_W1@Z 00000001400768d0 f i libucrtd:assert.obj
 0001:000758d0       ??$tcsncat_s@AEBQEA_WAEB_KAEAPEB_W_K@?$__crt_char_traits@_W@@SAHAEBQEA_WAEB_KAEAPEB_W$$QEA_K@Z 00000001400768d0 f i libucrtd:assert.obj
 0001:00075af0       _invoke_watson_if_error    0000000140076af0 f i libucrtd:assert.obj
 0001:00075b40       _vfwprintf_l               0000000140076b40 f i libucrtd:assert.obj
 0001:00075b90       _vswprintf_c_l             0000000140076b90 f i libucrtd:assert.obj
 0001:00075c00       _wassert                   0000000140076c00 f   libucrtd:assert.obj
 0001:00075c40       fwprintf                   0000000140076c40 f i libucrtd:assert.obj
 0001:00075c90       swprintf                   0000000140076c90 f i libucrtd:assert.obj
 0001:00075cf0       acos                       0000000140076cf0 f   libucrtd:acos.obj
 0001:00076290       acosf                      0000000140077290 f   libucrtd:acosf.obj
 0001:000766c0       ceil                       00000001400776c0 f   libucrtd:ceil.obj
 0001:00076890       cos                        0000000140077890 f   libucrtd:cos.obj
 0001:00076e10       cosf                       0000000140077e10 f   libucrtd:cosf.obj
 0001:00077310       floor                      0000000140078310 f   libucrtd:floor.obj
 0001:000774c0       fmod                       00000001400784c0 f   libucrtd:fmod.obj
 0001:000777a0       pow                        00000001400787a0 f   libucrtd:pow.obj
 0001:00078e40       sinf                       0000000140079e40 f   libucrtd:sinf.obj
 0001:00079540       sqrt                       000000014007a540 f   libucrtd:sqrt.obj
 0001:000796e0       sqrtf                      000000014007a6e0 f   libucrtd:sqrtf.obj
 0001:00079820       tanf                       000000014007a820 f   libucrtd:tanf.obj
 0001:00079f10       _seh_filter_exe            000000014007af10 f   libucrtd:exception_filter.obj
 0001:0007a380       __acrt_report_runtime_error 000000014007b380 f   libucrtd:report_runtime_error.obj
 0001:0007a600       _query_app_type            000000014007b600 f   libucrtd:report_runtime_error.obj
 0001:0007a610       _set_app_type              000000014007b610 f   libucrtd:report_runtime_error.obj
 0001:0007a620       ??$__crt_fast_decode_pointer@P6AXPEB_W00I_K@Z@@YAP6AXPEB_W00I_K@ZQ6AX000I1@Z@Z 000000014007b620 f i libucrtd:invalid_parameter.obj
 0001:0007a620       ??$__crt_fast_decode_pointer@P6AH_K@Z@@YAP6AH_K@ZQ6AH0@Z@Z 000000014007b620 f i libucrtd:new_handler.obj
 0001:0007a620       ??$__crt_fast_decode_pointer@P6AXH@Z@@YAP6AXH@ZQ6AXH@Z@Z 000000014007b620 f i libucrtd:signal.obj
 0001:0007a620       ??$__crt_fast_decode_pointer@PEAX@@YAPEAXQEAX@Z 000000014007b620 f i libucrtd:winapi_thunks.obj
 0001:0007a620       ??$__crt_fast_decode_pointer@PEAP6AXXZ@@YAPEAP6AXXZQEAP6AXXZ@Z 000000014007b620 f i libucrtd:onexit.obj
 0001:0007a620       ??$__crt_fast_decode_pointer@P6AXXZ@@YAP6AXXZQ6AXXZ@Z 000000014007b620 f i libucrtd:onexit.obj
 0001:0007a620       ??$__crt_fast_decode_pointer@P6AHPEAU_exception@@@Z@@YAP6AHPEAU_exception@@@ZQ6AH0@Z@Z 000000014007b620 f i libucrtd:matherr.obj
 0001:0007a620       ??$__crt_fast_decode_pointer@P6AXPEAXK0@Z@@YAP6AXPEAXK0@ZQ6AX0K0@Z@Z 000000014007b620 f i libucrtd:exit.obj
 0001:0007a660       ??$__crt_fast_encode_pointer@P6AXXZ@@YAP6AXXZQ6AXXZ@Z 000000014007b660 f i libucrtd:onexit.obj
 0001:0007a660       ??$__crt_fast_encode_pointer@P6AHXZ@@YAP6AHXZQ6AHXZ@Z 000000014007b660 f i libucrtd:onexit.obj
 0001:0007a660       ??$__crt_fast_encode_pointer@PEAP6AXXZ@@YAPEAP6AXXZQEAP6AXXZ@Z 000000014007b660 f i libucrtd:onexit.obj
 0001:0007a660       ??$__crt_fast_encode_pointer@P6AXPEAXK0@Z@@YAP6AXPEAXK0@ZQ6AX0K0@Z@Z 000000014007b660 f i libucrtd:exit.obj
 0001:0007a660       ??$__crt_fast_encode_pointer@PEAX@@YAPEAXQEAX@Z 000000014007b660 f i libucrtd:initialization.obj
 0001:0007a660       ??$__crt_fast_encode_pointer@P6AXH@Z@@YAP6AXH@ZQ6AXH@Z@Z 000000014007b660 f i libucrtd:signal.obj
 0001:0007a660       ??$__crt_fast_encode_pointer@P6AHPEAU_exception@@@Z@@YAP6AHPEAU_exception@@@ZQ6AH0@Z@Z 000000014007b660 f i libucrtd:matherr.obj
 0001:0007a6a0       ?__crt_rotate_pointer_value@@YA_K_KH@Z 000000014007b6a0 f i libucrtd:matherr.obj
 0001:0007a6c0       ?initialize@?$dual_state_global@PEAU__crt_multibyte_data@@@__crt_state_management@@QEAAXQEAU__crt_multibyte_data@@@Z 000000014007b6c0 f i libucrtd:mbctype.obj
 0001:0007a6c0       ?initialize@?$dual_state_global@P6AHPEAU_exception@@@Z@__crt_state_management@@QEAAXQ6AHPEAU_exception@@@Z@Z 000000014007b6c0 f i libucrtd:matherr.obj
 0001:0007a6c0       ?initialize@?$dual_state_global@P6AH_K@Z@__crt_state_management@@QEAAXQ6AH_K@Z@Z 000000014007b6c0 f i libucrtd:new_handler.obj
 0001:0007a6c0       ?initialize@?$dual_state_global@PEAU__crt_locale_data@@@__crt_state_management@@QEAAXQEAU__crt_locale_data@@@Z 000000014007b6c0 f i libucrtd:initialization.obj
 0001:0007a6c0       ?initialize@?$dual_state_global@P6AXH@Z@__crt_state_management@@QEAAXQ6AXH@Z@Z 000000014007b6c0 f i libucrtd:signal.obj
 0001:0007a710       ?value@?$dual_state_global@P6AH_K@Z@__crt_state_management@@QEAAAEAP6AH_K@ZXZ 000000014007b710 f i libucrtd:new_handler.obj
 0001:0007a710       ?value@?$dual_state_global@PEAU__crt_multibyte_data@@@__crt_state_management@@QEAAAEAPEAU__crt_multibyte_data@@XZ 000000014007b710 f i libucrtd:locale_update.obj
 0001:0007a710       ?value@?$dual_state_global@P6AHPEAU_exception@@@Z@__crt_state_management@@QEAAAEAP6AHPEAU_exception@@@ZXZ 000000014007b710 f i libucrtd:matherr.obj
 0001:0007a710       ?value@?$dual_state_global@PEAE@__crt_state_management@@QEAAAEAPEAEXZ 000000014007b710 f i libucrtd:mbctype.obj
 0001:0007a710       ?value@?$dual_state_global@P6AXH@Z@__crt_state_management@@QEAAAEAP6AXH@ZXZ 000000014007b710 f i libucrtd:signal.obj
 0001:0007a710       ?value@?$dual_state_global@PEAU__crt_locale_data@@@__crt_state_management@@QEAAAEAPEAU__crt_locale_data@@XZ 000000014007b710 f i libucrtd:wsetlocale.obj
 0001:0007a710       ?value@?$dual_state_global@P6AXPEB_W00I_K@Z@__crt_state_management@@QEAAAEAP6AXPEB_W00I_K@ZXZ 000000014007b710 f i libucrtd:invalid_parameter.obj
 0001:0007a730       __acrt_has_user_matherr    000000014007b730 f   libucrtd:matherr.obj
 0001:0007a770       __acrt_initialize_user_matherr 000000014007b770 f   libucrtd:matherr.obj
 0001:0007a790       __acrt_invoke_user_matherr 000000014007b790 f   libucrtd:matherr.obj
 0001:0007a7e0       __setusermatherr           000000014007b7e0 f   libucrtd:matherr.obj
 0001:0007b040       ??$set_program_name@PEAD@?$__crt_char_traits@D@@SAX$$QEAPEAD@Z 000000014007c040 f i libucrtd:argv_parsing.obj
 0001:0007b170       __acrt_allocate_buffer_for_argv 000000014007c170 f   libucrtd:argv_parsing.obj
 0001:0007b290       _configure_narrow_argv     000000014007c290 f   libucrtd:argv_parsing.obj
 0001:0007b2b0       _set_pgmptr                000000014007c2b0 f i libucrtd:argv_parsing.obj
 0001:0007b5d0       ??$tcslen@AEAPEAD@?$__crt_char_traits@D@@SA_KAEAPEAD@Z 000000014007c5d0 f i libucrtd:environment_initialization.obj
 0001:0007b61c       ??B?$__crt_unique_heap_ptr@PEADU__crt_internal_free_policy@@@@QEBA_NXZ 000000014007c61c f i libucrtd:environment_initialization.obj
 0001:0007b624       ?detach@?$__crt_unique_heap_ptr@DU__crt_internal_free_policy@@@@QEAAPEADXZ 000000014007c624 f i libucrtd:environment_initialization.obj
 0001:0007b62c       __dcrt_get_or_create_narrow_environment_nolock 000000014007c62c f   libucrtd:environment_initialization.obj
 0001:0007b668       __dcrt_uninitialize_environments_nolock 000000014007c668 f   libucrtd:environment_initialization.obj
 0001:0007b6a0       _get_initial_narrow_environment 000000014007c6a0 f   libucrtd:environment_initialization.obj
 0001:0007b6f0       _initialize_narrow_environment 000000014007c6f0 f   libucrtd:environment_initialization.obj
 0001:0007b700       _initterm                  000000014007c700 f   libucrtd:initterm.obj
 0001:0007b760       _initterm_e                000000014007c760 f   libucrtd:initterm.obj
 0001:0007b7e0       ??$?B$$A6AXH@Z@__crt_fast_encoded_nullptr_t@@QEBAP6AXH@ZXZ 000000014007c7e0 f i libucrtd:signal.obj
 0001:0007b7e0       ??$?BP6AXXZ@__crt_fast_encoded_nullptr_t@@QEBAPEAP6AXXZXZ 000000014007c7e0 f i libucrtd:onexit.obj
 0001:0007b7e0       ??$?B$$A6AXPEAXK0@Z@__crt_fast_encoded_nullptr_t@@QEBAP6AXPEAXK0@ZXZ 000000014007c7e0 f i libucrtd:exit.obj
 0001:0007b7e0       ??$?B$$A6AXXZ@__crt_fast_encoded_nullptr_t@@QEBAP6AXXZXZ 000000014007c7e0 f i libucrtd:onexit.obj
 0001:0007b7e0       ??$?BX@__crt_fast_encoded_nullptr_t@@QEBAPEAXXZ 000000014007c7e0 f i libucrtd:initialization.obj
 0001:0007b890       ??$__crt_get_proc_address@P6AXI@Z@@YAP6AXI@ZQEAUHINSTANCE__@@QEBD@Z 000000014007c890 f i libucrtd:exit.obj
 0001:0007b8e0       ??1?$__crt_unique_handle_t@U__crt_hmodule_traits@@@@QEAA@XZ 000000014007c8e0 f i libucrtd:exit.obj
 0001:0007ba40       ?__acrt_select_exit_lock@@YA?AW4__acrt_lock_id@@XZ 000000014007ca40 f i libucrtd:exit.obj
 0001:0007ba50       ?__crt_fast_encode_pointer@@YA?AU__crt_fast_encoded_nullptr_t@@$$T@Z 000000014007ca50 f i libucrtd:exit.obj
 0001:0007ba90       ?close@?$__crt_unique_handle_t@U__crt_hmodule_traits@@@@QEAAXXZ 000000014007ca90 f i libucrtd:exit.obj
 0001:0007bad0       ?close@__crt_hmodule_traits@@SA_NPEAUHINSTANCE__@@@Z 000000014007cad0 f i libucrtd:exit.obj
 0001:0007bd90       __acrt_initialize_thread_local_exit_callback 000000014007cd90 f   libucrtd:exit.obj
 0001:0007bdb0       _c_exit                    000000014007cdb0 f   libucrtd:exit.obj
 0001:0007bdd0       _cexit                     000000014007cdd0 f   libucrtd:exit.obj
 0001:0007bdf0       _exit                      000000014007cdf0 f   libucrtd:exit.obj
 0001:0007be10       _register_thread_local_exe_atexit_callback 000000014007ce10 f   libucrtd:exit.obj
 0001:0007be60       exit                       000000014007ce60 f   libucrtd:exit.obj
 0001:0007be80       ?value@?$dual_state_global@H@__crt_state_management@@QEAAAEAHXZ 000000014007ce80 f i libucrtd:setmode.obj
 0001:0007be80       ?value@?$dual_state_global@J@__crt_state_management@@QEAAAEAJXZ 000000014007ce80 f i libucrtd:new_mode.obj
 0001:0007bea0       _get_fmode                 000000014007cea0 f   libucrtd:setmode.obj
 0001:0007bf70       _set_fmode                 000000014007cf70 f   libucrtd:setmode.obj
 0001:0007c050       _setmode_nolock            000000014007d050 f   libucrtd:setmode.obj
 0001:0007c310       __acrt_initialize_command_line 000000014007d310 f   libucrtd:argv_data.obj
 0001:0007c340       __acrt_uninitialize_command_line 000000014007d340 f   libucrtd:argv_data.obj
 0001:0007c350       __p___argc                 000000014007d350 f   libucrtd:argv_data.obj
 0001:0007c360       __p___argv                 000000014007d360 f   libucrtd:argv_data.obj
 0001:0007c4d0       __acrt_set_locale_changed  000000014007d4d0 f   libucrtd:wsetlocale.obj
 0001:0007c4e0       __acrt_uninitialize_locale 000000014007d4e0 f   libucrtd:wsetlocale.obj
 0001:0007c510       __ascii_tolower            000000014007d510 f i libucrtd:wsetlocale.obj
 0001:0007c530       __ascii_towlower           000000014007d530 f i libucrtd:wsetlocale.obj
 0001:0007c550       _configthreadlocale        000000014007d550 f   libucrtd:wsetlocale.obj
 0001:0007c6b0       _query_new_mode            000000014007d6b0 f   libucrtd:new_mode.obj
 0001:0007c6d0       _set_new_mode              000000014007d6d0 f   libucrtd:new_mode.obj
 0001:0007c7a0       __p__commode               000000014007d7a0 f   libucrtd:ncommode.obj
 0001:0007ce30       _crt_atexit                000000014007de30 f   libucrtd:onexit.obj
 0001:0007ce50       _execute_onexit_table      000000014007de50 f   libucrtd:onexit.obj
 0001:0007ce90       _initialize_onexit_table   000000014007de90 f   libucrtd:onexit.obj
 0001:0007cf10       _register_onexit_function  000000014007df10 f   libucrtd:onexit.obj
 0001:0007d1f0       __acrt_initialize          000000014007e1f0 f   libucrtd:initialization.obj
 0001:0007d220       __acrt_uninitialize        000000014007e220 f   libucrtd:initialization.obj
 0001:0007d250       terminate                  000000014007e250 f   libucrtd:terminate.obj
 0001:0007f260       _CrtCheckMemory            0000000140080260 f   libucrtd:debug_heap.obj
 0001:0007f3f0       _CrtDumpMemoryLeaks        00000001400803f0 f   libucrtd:debug_heap.obj
 0001:0007f4b0       _CrtIsValidHeapPointer     00000001400804b0 f   libucrtd:debug_heap.obj
 0001:0007f4f0       _CrtIsValidPointer         00000001400804f0 f   libucrtd:debug_heap.obj
 0001:0007f530       _CrtMemCheckpoint          0000000140080530 f   libucrtd:debug_heap.obj
 0001:0007f7b0       _CrtMemDumpAllObjectsSince 00000001400807b0 f   libucrtd:debug_heap.obj
 0001:0007f810       _CrtSetDbgFlag             0000000140080810 f   libucrtd:debug_heap.obj
 0001:0007f970       _CrtSetDumpClient          0000000140080970 f   libucrtd:debug_heap.obj
 0001:0007f9a0       _calloc_dbg                00000001400809a0 f   libucrtd:debug_heap.obj
 0001:0007fa40       _free_dbg                  0000000140080a40 f   libucrtd:debug_heap.obj
 0001:0007fab0       _malloc_dbg                0000000140080ab0 f   libucrtd:debug_heap.obj
 0001:0007faf0       _msize_dbg                 0000000140080af0 f   libucrtd:debug_heap.obj
 0001:0007fc90       _realloc_dbg               0000000140080c90 f   libucrtd:debug_heap.obj
 0001:0007fd00       _recalloc_dbg              0000000140080d00 f   libucrtd:debug_heap.obj
 0001:000802d0       strcpy_s                   00000001400812d0 f   libucrtd:strcpy_s.obj
 0001:00080310       strcmp                     0000000140081310 f   libucrtd:strcmp.obj
 0001:00080390       strlen                     0000000140081390 f   libucrtd:strlen.obj
 0001:00080440       abort                      0000000140081440 f   libucrtd:abort.obj
 0001:000804c0       ??$initialize_from_array@$$BY00Q6AXPEB_W00I_K@Z@?$dual_state_global@P6AXPEB_W00I_K@Z@__crt_state_management@@QEAAXAEAY00Q6AXPEB_W00I_K@Z@Z 00000001400814c0 f i libucrtd:invalid_parameter.obj
 0001:00080520       __acrt_call_reportfault    0000000140081520 f   libucrtd:invalid_parameter.obj
 0001:00080650       __acrt_initialize_invalid_parameter_handler 0000000140081650 f   libucrtd:invalid_parameter.obj
 0001:00080680       _invalid_parameter         0000000140081680 f   libucrtd:invalid_parameter.obj
 0001:00080780       _invalid_parameter_noinfo  0000000140081780 f   libucrtd:invalid_parameter.obj
 0001:000807b0       _invoke_watson             00000001400817b0 f   libucrtd:invalid_parameter.obj
 0001:000815f0       _CrtDbgReport              00000001400825f0 f   libucrtd:dbgrpt.obj
 0001:00081670       _CrtDbgReportW             0000000140082670 f   libucrtd:dbgrpt.obj
 0001:000816f0       __acrt_MessageWindowA      00000001400826f0 f   libucrtd:dbgrpt.obj
 0001:00081740       __acrt_MessageWindowW      0000000140082740 f   libucrtd:dbgrpt.obj
 0001:00081790       _snwprintf_s               0000000140082790 f i libucrtd:dbgrpt.obj
 0001:00081800       _vsnwprintf_s_l            0000000140082800 f i libucrtd:dbgrpt.obj
 0001:00081880       wcsncmp                    0000000140082880 f   libucrtd:wcsncmp.obj
 0001:00081910       __acrt_errno_from_os_error 0000000140082910 f   libucrtd:errno.obj
 0001:000819a0       __acrt_errno_map_os_error  00000001400829a0 f   libucrtd:errno.obj
 0001:000819d0       __doserrno                 00000001400829d0 f   libucrtd:errno.obj
 0001:00081a00       _errno                     0000000140082a00 f   libucrtd:errno.obj
 0001:000821d0       GetCurrentThreadEffectiveToken 00000001400831d0 f i libucrtd:winapi_thunks.obj
 0001:000821e0       __acrt_AppPolicyGetProcessTerminationMethodInternal 00000001400831e0 f   libucrtd:winapi_thunks.obj
 0001:00082230       __acrt_AppPolicyGetShowDeveloperDiagnosticInternal 0000000140083230 f   libucrtd:winapi_thunks.obj
 0001:00082280       __acrt_AppPolicyGetWindowingModelInternal 0000000140083280 f   libucrtd:winapi_thunks.obj
 0001:000822d0       __acrt_AreFileApisANSI     00000001400832d0 f   libucrtd:winapi_thunks.obj
 0001:00082310       __acrt_CompareStringEx     0000000140083310 f   libucrtd:winapi_thunks.obj
 0001:000823f0       __acrt_FlsAlloc            00000001400833f0 f   libucrtd:winapi_thunks.obj
 0001:00082440       __acrt_FlsFree             0000000140083440 f   libucrtd:winapi_thunks.obj
 0001:00082490       __acrt_FlsGetValue         0000000140083490 f   libucrtd:winapi_thunks.obj
 0001:000824e0       __acrt_FlsSetValue         00000001400834e0 f   libucrtd:winapi_thunks.obj
 0001:00082540       __acrt_InitializeCriticalSectionEx 0000000140083540 f   libucrtd:winapi_thunks.obj
 0001:000825a0       __acrt_LCMapStringEx       00000001400835a0 f   libucrtd:winapi_thunks.obj
 0001:00082680       __acrt_LocaleNameToLCID    0000000140083680 f   libucrtd:winapi_thunks.obj
 0001:000826d0       __acrt_MessageBoxW         00000001400836d0 f   libucrtd:winapi_thunks.obj
 0001:00082730       __acrt_can_show_message_box 0000000140083730 f   libucrtd:winapi_thunks.obj
 0001:00082770       __acrt_get_parent_window   0000000140083770 f   libucrtd:winapi_thunks.obj
 0001:000827f0       __acrt_initialize_winapi_thunks 00000001400837f0 f   libucrtd:winapi_thunks.obj
 0001:00082870       __acrt_is_interactive      0000000140083870 f   libucrtd:winapi_thunks.obj
 0001:00082950       __acrt_uninitialize_winapi_thunks 0000000140083950 f   libucrtd:winapi_thunks.obj
 0001:000829f0       _fcloseall                 00000001400839f0 f   libucrtd:closeall.obj
 0001:00083060       __acrt_stdio_flush_nolock  0000000140084060 f   libucrtd:fflush.obj
 0001:00083170       _fflush_nolock             0000000140084170 f   libucrtd:fflush.obj
 0001:00083200       _flushall                  0000000140084200 f   libucrtd:fflush.obj
 0001:00083210       fflush                     0000000140084210 f   libucrtd:fflush.obj
 0001:000832a0       __acrt_stdio_free_buffer_nolock 00000001400842a0 f   libucrtd:_freebuf.obj
 0001:00083720       __acrt_initialize_lowio    0000000140084720 f   libucrtd:ioinit.obj
 0001:00083770       __acrt_uninitialize_lowio  0000000140084770 f   libucrtd:ioinit.obj
 0001:000837f0       ?__acrt_stdio_allocate_stream@@YA?AV__crt_stdio_stream@@XZ 00000001400847f0 f   libucrtd:stream.obj
 0001:000838b0       ?__acrt_stdio_free_stream@@YAXV__crt_stdio_stream@@@Z 00000001400848b0 f   libucrtd:stream.obj
 0001:00083950       ?deallocate@__crt_stdio_stream@@QEAAXXZ 0000000140084950 f i libucrtd:stream.obj
 0001:00083b20       ?lock@__crt_stdio_stream@@QEBAXXZ 0000000140084b20 f i libucrtd:stream.obj
 0001:00083b40       ?try_allocate@__crt_stdio_stream@@QEAA_NXZ 0000000140084b40 f i libucrtd:stream.obj
 0001:00083bb0       ??$__acrt_stdio_parse_mode@D@@YA?AU__acrt_stdio_stream_mode@@QEBD@Z 0000000140084bb0 f i libucrtd:openfile.obj
 0001:00084900       ??$tcsncmp@AEAPEBDAEAY02$$CBD_K@?$__crt_char_traits@D@@SAHAEAPEBDAEAY02$$CBD$$QEA_K@Z 0000000140085900 f i libucrtd:openfile.obj
 0001:00084940       ??$tcsnicmp@AEAPEBDAEAY07$$CBD_K@?$__crt_char_traits@D@@SAHAEAPEBDAEAY07$$CBD$$QEA_K@Z 0000000140085940 f i libucrtd:openfile.obj
 0001:00084940       ??$tcsnicmp@AEAPEBDAEAY04$$CBD_K@?$__crt_char_traits@D@@SAHAEAPEBDAEAY04$$CBD$$QEA_K@Z 0000000140085940 f i libucrtd:openfile.obj
 0001:00084940       ??$tcsnicmp@AEAPEBDAEAY06$$CBD_K@?$__crt_char_traits@D@@SAHAEAPEBDAEAY06$$CBD$$QEA_K@Z 0000000140085940 f i libucrtd:openfile.obj
 0001:00084980       ??$tsopen_s@PEAHAEBQEBDAEBHAEBHH@?$__crt_char_traits@D@@SAH$$QEAPEAHAEBQEBDAEBH2$$QEAH@Z 0000000140085980 f i libucrtd:openfile.obj
 0001:000849d0       ?__acrt_stdio_parse_mode_D@@YA_NAEAU__acrt_stdio_stream_mode@@@Z 00000001400859d0 f i libucrtd:openfile.obj
 0001:00084a00       ?__acrt_stdio_parse_mode_N@@YA_NAEAU__acrt_stdio_stream_mode@@@Z 0000000140085a00 f i libucrtd:openfile.obj
 0001:00084a20       ?__acrt_stdio_parse_mode_R@@YA_NAEAU__acrt_stdio_stream_mode@@AEA_N@Z 0000000140085a20 f i libucrtd:openfile.obj
 0001:00084a60       ?__acrt_stdio_parse_mode_S@@YA_NAEAU__acrt_stdio_stream_mode@@AEA_N@Z 0000000140085a60 f i libucrtd:openfile.obj
 0001:00084aa0       ?__acrt_stdio_parse_mode_T@@YA_NAEAU__acrt_stdio_stream_mode@@@Z 0000000140085aa0 f i libucrtd:openfile.obj
 0001:00084ad0       ?__acrt_stdio_parse_mode_b@@YA_NAEAU__acrt_stdio_stream_mode@@@Z 0000000140085ad0 f i libucrtd:openfile.obj
 0001:00084b00       ?__acrt_stdio_parse_mode_c@@YA_NAEAU__acrt_stdio_stream_mode@@AEA_N@Z 0000000140085b00 f i libucrtd:openfile.obj
 0001:00084b40       ?__acrt_stdio_parse_mode_n@@YA_NAEAU__acrt_stdio_stream_mode@@AEA_N@Z 0000000140085b40 f i libucrtd:openfile.obj
 0001:00084b80       ?__acrt_stdio_parse_mode_plus@@YA_NAEAU__acrt_stdio_stream_mode@@AEA_N@Z 0000000140085b80 f i libucrtd:openfile.obj
 0001:00084c00       ?__acrt_stdio_parse_mode_t@@YA_NAEAU__acrt_stdio_stream_mode@@@Z 0000000140085c00 f i libucrtd:openfile.obj
 0001:00084c30       ?__acrt_stdio_parse_mode_x@@YA_NAEAU__acrt_stdio_stream_mode@@@Z 0000000140085c30 f i libucrtd:openfile.obj
 0001:00084c60       _openfile                  0000000140085c60 f   libucrtd:openfile.obj
 0001:00084f20       _close                     0000000140085f20 f   libucrtd:close.obj
 0001:00085110       _close_nolock              0000000140086110 f   libucrtd:close.obj
 0001:00085180       _fileno                    0000000140086180 f   libucrtd:fileno.obj
 0001:00085700       __acrt_stdio_refill_and_read_narrow_nolock 0000000140086700 f   libucrtd:_filbuf.obj
 0001:00086530       _read                      0000000140087530 f   libucrtd:read.obj
 0001:00086880       _read_nolock               0000000140087880 f   libucrtd:read.obj
 0001:00087a40       _lseeki64                  0000000140088a40 f   libucrtd:lseek.obj
 0001:00087a70       _lseeki64_nolock           0000000140088a70 f   libucrtd:lseek.obj
 0001:00087aa0       __acrt_stdio_allocate_buffer_nolock 0000000140088aa0 f   libucrtd:_getbuf.obj
 0001:00087c20       _CrtGetDebugFillThreshold  0000000140088c20 f   libucrtd:debug_fill_threshold.obj
 0001:00087c30       _mbtowc_l                  0000000140088c30 f   libucrtd:mbtowc.obj
 0001:00088090       mbtowc                     0000000140089090 f   libucrtd:mbtowc.obj
 0001:000880c0       _wctomb_s_l                00000001400890c0 f   libucrtd:wctomb.obj
 0001:00088640       wctomb_s                   0000000140089640 f   libucrtd:wctomb.obj
 0001:000899f0       ??1?$__crt_simd_cleanup_guard@$00@@QEAA@XZ 000000014008a9f0 f i libucrtd:strnlen.obj
 0001:00089a00       ?compare_equals@?$__crt_simd_traits@$00E@@SA?AT__m256i@@T2@0@Z 000000014008aa00 f i libucrtd:strnlen.obj
 0001:00089a40       ?compare_equals@?$__crt_simd_traits@$00G@@SA?AT__m256i@@T2@0@Z 000000014008aa40 f i libucrtd:strnlen.obj
 0001:00089a80       ?compare_equals@?$__crt_simd_traits@$0A@E@@SA?AT__m128i@@T2@0@Z 000000014008aa80 f i libucrtd:strnlen.obj
 0001:00089ab0       ?compare_equals@?$__crt_simd_traits@$0A@G@@SA?AT__m128i@@T2@0@Z 000000014008aab0 f i libucrtd:strnlen.obj
 0001:00089ae0       ?compute_byte_mask@?$__crt_simd_pack_traits@$00@@SAHT__m256i@@@Z 000000014008aae0 f i libucrtd:strnlen.obj
 0001:00089b00       ?compute_byte_mask@?$__crt_simd_pack_traits@$0A@@@SAHT__m128i@@@Z 000000014008ab00 f i libucrtd:strnlen.obj
 0001:00089b20       ?get_zero_pack@?$__crt_simd_pack_traits@$00@@SA?AT__m256i@@XZ 000000014008ab20 f i libucrtd:strnlen.obj
 0001:00089b50       ?get_zero_pack@?$__crt_simd_pack_traits@$0A@@@SA?AT__m128i@@XZ 000000014008ab50 f i libucrtd:strnlen.obj
 0001:00089b70       strnlen                    000000014008ab70 f   libucrtd:strnlen.obj
 0001:00089ba0       wcslen                     000000014008aba0 f   libucrtd:strnlen.obj
 0001:00089bc0       wcsnlen                    000000014008abc0 f   libucrtd:strnlen.obj
 0001:00089e30       ??0__crt_scoped_get_last_error_reset@@QEAA@XZ 000000014008ae30 f i libucrtd:per_thread_data.obj
 0001:00089e50       ??1__crt_scoped_get_last_error_reset@@QEAA@XZ 000000014008ae50 f i libucrtd:per_thread_data.obj
 0001:0008a4f0       __acrt_getptd              000000014008b4f0 f   libucrtd:per_thread_data.obj
 0001:0008a520       __acrt_getptd_head         000000014008b520 f   libucrtd:per_thread_data.obj
 0001:0008a550       __acrt_getptd_noexit       000000014008b550 f   libucrtd:per_thread_data.obj
 0001:0008a560       __acrt_initialize_ptd      000000014008b560 f   libucrtd:per_thread_data.obj
 0001:0008a5a0       __acrt_uninitialize_ptd    000000014008b5a0 f   libucrtd:per_thread_data.obj
 0001:0008a5d0       __acrt_should_sync_with_global_locale 000000014008b5d0 f i libucrtd:locale_update.obj
 0001:0008a610       __acrt_update_locale_info  000000014008b610 f   libucrtd:locale_update.obj
 0001:0008a660       __acrt_update_multibyte_info 000000014008b660 f   libucrtd:locale_update.obj
 0001:0008a6b0       ?__acrt_fp_classify@@YA?AW4__acrt_fp_class@@AEBN@Z 000000014008b6b0 f i libucrtd:cvt.obj
 0001:0008a7b0       ?__acrt_fp_is_negative@@YA_NAEBN@Z 000000014008b7b0 f i libucrtd:cvt.obj
 0001:0008c180       ?strrchr@@YAPEADQEADH@Z    000000014008d180 f i libucrtd:cvt.obj
 0001:0008c1a0       __acrt_fp_format           000000014008d1a0 f   libucrtd:cvt.obj
 0001:0008c850       _fputwc_nolock             000000014008d850 f   libucrtd:fputwc.obj
 0001:0008cac0       _fputc_nolock              000000014008dac0 f   libucrtd:fputc.obj
 0001:0008cb70       _get_printf_count_output   000000014008db70 f   libucrtd:printf_count_output.obj
 0001:0008cba0       ?has_temporary_buffer@__crt_stdio_stream@@QEBA_NXZ 000000014008dba0 f i libucrtd:_sftbuf.obj
 0001:0008cbc0       __acrt_should_use_temporary_buffer 000000014008dbc0 f   libucrtd:_sftbuf.obj
 0001:0008cc10       __acrt_stdio_begin_temporary_buffering_nolock 000000014008dc10 f   libucrtd:_sftbuf.obj
 0001:0008ce50       __acrt_stdio_end_temporary_buffering_nolock 000000014008de50 f   libucrtd:_sftbuf.obj
 0001:0008cef0       __pctype_func              000000014008def0 f   libucrtd:ctype.obj
 0001:0008cf30       iswctype                   000000014008df30 f   libucrtd:iswctype.obj
 0001:0008cfc0       _chvalidator               000000014008dfc0 f   libucrtd:isctype.obj
 0001:0008d030       _chvalidator_l             000000014008e030 f   libucrtd:isctype.obj
 0001:0008d0e0       _isctype_l                 000000014008e0e0 f   libucrtd:isctype.obj
 0001:0008d310       _isleadbyte_fast_internal  000000014008e310 f i libucrtd:isctype.obj
 0001:0008d400       isspace                    000000014008e400 f   libucrtd:_ctype.obj
 0001:0008d420       fegetround                 000000014008e420 f   libucrtd:fegetround.obj
 0001:0008d440       _copysign                  000000014008e440 f   libucrtd:_copysign.obj
 0001:0008d4d0       _decomp                    000000014008e4d0 f   libucrtd:util.obj
 0001:0008d620       _set_exp                   000000014008e620 f   libucrtd:util.obj
 0001:0008d670       _sptype                    000000014008e670 f   libucrtd:util.obj
 0001:0008d6f0       _errcode                   000000014008e6f0 f   libucrtd:fpexcept.obj
 0001:0008d770       _except2                   000000014008e770 f   libucrtd:fpexcept.obj
 0001:0008d930       _handle_exc                000000014008e930 f   libucrtd:fpexcept.obj
 0001:0008dd90       _handle_qnan2              000000014008ed90 f   libucrtd:fpexcept.obj
 0001:0008ddc0       _raise_exc                 000000014008edc0 f   libucrtd:fpexcept.obj
 0001:0008de20       _raise_exc_ex              000000014008ee20 f   libucrtd:fpexcept.obj
 0001:0008e4a0       _raise_excf                000000014008f4a0 f   libucrtd:fpexcept.obj
 0001:0008e500       _set_errno_from_matherr    000000014008f500 f   libucrtd:fpexcept.obj
 0001:0008e550       _umatherr                  000000014008f550 f   libucrtd:fpexcept.obj
 0001:0008e620       _clrfp                     000000014008f620 f   libucrtd:fpctrl.obj
 0001:0008e650       _ctrlfp                    000000014008f650 f   libucrtd:fpctrl.obj
 0001:0008e700       _set_statfp                000000014008f700 f   libucrtd:fpctrl.obj
 0001:0008e740       _statfp                    000000014008f740 f   libucrtd:fpctrl.obj
 0001:0008e770       _fd_int                    000000014008f770 f   libucrtd:_test.obj
 0001:0008f590       _itoa_s                    0000000140090590 f   libucrtd:xtoa.obj
 0001:0008f5f0       _itow_s                    00000001400905f0 f   libucrtd:xtoa.obj
 0001:0008f650       _set_error_mode            0000000140090650 f   libucrtd:set_error_mode.obj
 0001:0008fdd0       wcscat_s                   0000000140090dd0 f   libucrtd:wcscat_s.obj
 0001:000902e0       wcscpy_s                   00000001400912e0 f   libucrtd:wcscpy_s.obj
 0001:00090aa0       wcsncat_s                  0000000140091aa0 f   libucrtd:wcsncat_s.obj
 0001:00091150       strcat_s                   0000000140092150 f   libucrtd:strcat_s.obj
 0001:00091320       ??$__acrt_wcs_to_mbs_cp@U__crt_win32_buffer_no_resizing@@@@YAHQEB_WAEAV?$__crt_win32_buffer@DU__crt_win32_buffer_no_resizing@@@@I@Z 0000000140092320 f i libucrtd:getmodulefilenamea.obj
 0001:00091370       ??0?$__crt_win32_buffer@DU__crt_win32_buffer_no_resizing@@@@QEAA@QEAD_K@Z 0000000140092370 f i libucrtd:getmodulefilenamea.obj
 0001:000913e0       ??1?$__crt_win32_buffer@DU__crt_win32_buffer_no_resizing@@@@QEAA@XZ 00000001400923e0 f i libucrtd:getmodulefilenamea.obj
 0001:00091470       ?__acrt_get_utf8_acp_compatibility_codepage@@YAIXZ 0000000140092470 f i libucrtd:getmodulefilenamea.obj
 0001:00091510       ?_deallocate@?$__crt_win32_buffer@DU__crt_win32_buffer_no_resizing@@@@AEAAXXZ 0000000140092510 f i libucrtd:getmodulefilenamea.obj
 0001:00091550       ?allocate@?$__crt_win32_buffer@DU__crt_win32_buffer_no_resizing@@@@QEAAH_K@Z 0000000140092550 f i libucrtd:getmodulefilenamea.obj
 0001:000915d0       ?allocate@__crt_win32_buffer_no_resizing@@SAHQEAPEAX_KAEBV__crt_win32_buffer_empty_debug_info@@@Z 00000001400925d0 f i libucrtd:getmodulefilenamea.obj
 0001:00091600       ?capacity@?$__crt_win32_buffer@DU__crt_win32_buffer_no_resizing@@@@QEBA_KXZ 0000000140092600 f i libucrtd:getmodulefilenamea.obj
 0001:00091600       ?capacity@?$__crt_win32_buffer@DU__crt_win32_buffer_internal_dynamic_resizing@@@@QEBA_KXZ 0000000140092600 f i libucrtd:argv_wildcards.obj
 0001:00091600       ?capacity@?$__crt_win32_buffer@_WU__crt_win32_buffer_internal_dynamic_resizing@@@@QEBA_KXZ 0000000140092600 f i libucrtd:argv_wildcards.obj
 0001:00091610       ?deallocate@__crt_win32_buffer_no_resizing@@SAXQEAXAEBV__crt_win32_buffer_empty_debug_info@@@Z 0000000140092610 f i libucrtd:getmodulefilenamea.obj
 0001:00091620       ?set_to_nullptr@?$__crt_win32_buffer@DU__crt_win32_buffer_no_resizing@@@@QEAAXXZ 0000000140092620 f i libucrtd:getmodulefilenamea.obj
 0001:00091660       ?size@?$__crt_win32_buffer@_WU__crt_win32_buffer_internal_dynamic_resizing@@@@QEAAX_K@Z 0000000140092660 f i libucrtd:argv_wildcards.obj
 0001:00091660       ?size@?$__crt_win32_buffer@DU__crt_win32_buffer_internal_dynamic_resizing@@@@QEAAX_K@Z 0000000140092660 f i libucrtd:argv_wildcards.obj
 0001:00091660       ?size@?$__crt_win32_buffer@DU__crt_win32_buffer_no_resizing@@@@QEAAX_K@Z 0000000140092660 f i libucrtd:getmodulefilenamea.obj
 0001:00091680       ?size@?$__crt_win32_buffer@DU__crt_win32_buffer_no_resizing@@@@QEBA_KXZ 0000000140092680 f i libucrtd:getmodulefilenamea.obj
 0001:00091690       __acrt_GetModuleFileNameA  0000000140092690 f   libucrtd:getmodulefilenamea.obj
 0001:000918b0       ??$message_box@$$TAEBQEB_WAEBQEB_WK@?$__crt_char_traits@_W@@SAH$$QEA$$TAEBQEB_W1$$QEAK@Z 00000001400928b0 f i libucrtd:crtmbox.obj
 0001:000918b0       ??$message_box@PEAUHWND__@@AEBQEB_WAEBQEB_WAEBI@?$__crt_char_traits@_W@@SAH$$QEAPEAUHWND__@@AEBQEB_W1AEBI@Z 00000001400928b0 f i libucrtd:crtmbox.obj
 0001:00091900       ??$output_debug_string@AEBQEB_W@?$__crt_char_traits@_W@@SAXAEBQEB_W@Z 0000000140092900 f i libucrtd:crtmbox.obj
 0001:00091920       __acrt_show_wide_message_box 0000000140092920 f   libucrtd:crtmbox.obj
 0001:00091bf0       setvbuf                    0000000140092bf0 f   libucrtd:setvbuf.obj
 0001:00092070       __acrt_get_sigabrt_handler 0000000140093070 f   libucrtd:signal.obj
 0001:000920a0       __acrt_initialize_signal_handlers 00000001400930a0 f   libucrtd:signal.obj
 0001:00092100       __fpecode                  0000000140093100 f   libucrtd:signal.obj
 0001:00092120       raise                      0000000140093120 f   libucrtd:signal.obj
 0001:000927b0       _handle_error              00000001400937b0 f   libucrtd:libm_error.obj
 0001:00092940       _handle_errorf             0000000140093940 f   libucrtd:libm_error.obj
 0001:00092ad0       _handle_nan                0000000140093ad0 f   libucrtd:libm_error.obj
 0001:00092b20       _handle_nanf               0000000140093b20 f   libucrtd:libm_error.obj
 0001:00092b60       __acrt_initialize_fma3     0000000140093b60 f   libucrtd:fma3_available.obj
 0001:00092c10       __remainder_piby2_forAsm   0000000140093c10 f   libucrtd:remainder_piby2_forasm.obj
 0001:00092e20       __remainder_piby2_cw_forAsm 0000000140093e20 f   libucrtd:remainder_piby2_forasm.obj
 0001:00092f60       __remainder_piby2_fma3     0000000140093f60 f   libucrtd:remainder_piby2_forfma3.obj
 0001:00093150       __remainder_piby2_fma3_bdl 0000000140094150 f   libucrtd:remainder_piby2_forfma3.obj
 0001:000931d0       _cos_special               00000001400941d0 f   libucrtd:sincos_special.obj
 0001:00093200       _cosf_special              0000000140094200 f   libucrtd:sincos_special.obj
 0001:00093440       _sinf_special              0000000140094440 f   libucrtd:sincos_special.obj
 0001:00093470       _tanf_special              0000000140094470 f   libucrtd:sincos_special.obj
 0001:000934a0       __remainder_piby2d2f_forAsm 00000001400944a0 f   libucrtd:remainder_piby2f_forasm.obj
 0001:000935f0       _pow_special               00000001400945f0 f   libucrtd:pow_special.obj
 0001:00093870       __remainder_piby2d2f_forC  0000000140094870 f   libucrtd:remainder_piby2f_forc.obj
 0001:000940a0       wcsncpy_s                  00000001400950a0 f   libucrtd:wcsncpy_s.obj
 0001:00094450       ??$__acrt_mbs_to_wcs_cp@U__crt_win32_buffer_internal_dynamic_resizing@@@@YAHQEBDAEAV?$__crt_win32_buffer@_WU__crt_win32_buffer_internal_dynamic_resizing@@@@I@Z 0000000140095450 f i libucrtd:argv_wildcards.obj
 0001:000944a0       ??$__acrt_wcs_to_mbs_cp@U__crt_win32_buffer_internal_dynamic_resizing@@@@YAHQEB_WAEAV?$__crt_win32_buffer@DU__crt_win32_buffer_internal_dynamic_resizing@@@@I@Z 00000001400954a0 f i libucrtd:argv_wildcards.obj
 0001:00094ef0       ??$tcsncpy_s@PEADAEB_KAEBQEBDAEB_K@?$__crt_char_traits@D@@SAH$$QEAPEADAEB_KAEBQEBD1@Z 0000000140095ef0 f i libucrtd:argv_wildcards.obj
 0001:00094ef0       ??$tcsncpy_s@AEAPEAD_KAEAPEADAEB_K@?$__crt_char_traits@D@@SAHAEAPEAD$$QEA_K0AEB_K@Z 0000000140095ef0 f i libucrtd:argv_wildcards.obj
 0001:00094ef0       ??$tcsncpy_s@PEAD_KAEBQEBDAEB_K@?$__crt_char_traits@D@@SAH$$QEAPEAD$$QEA_KAEBQEBDAEB_K@Z 0000000140095ef0 f i libucrtd:argv_wildcards.obj
 0001:00094f40       ??$tcspbrk@AEAPEADAEAY02$$CBD@?$__crt_char_traits@D@@SAPEADAEAPEADAEAY02$$CBD@Z 0000000140095f40 f i libucrtd:argv_wildcards.obj
 0001:00094f70       ??0?$__crt_win32_buffer@_WU__crt_win32_buffer_internal_dynamic_resizing@@@@QEAA@XZ 0000000140095f70 f i libucrtd:argv_wildcards.obj
 0001:00094f70       ??0?$__crt_win32_buffer@DU__crt_win32_buffer_internal_dynamic_resizing@@@@QEAA@XZ 0000000140095f70 f i libucrtd:argv_wildcards.obj
 0001:00095010       ??1?$__crt_unique_handle_t@U__crt_findfile_traits@@@@QEAA@XZ 0000000140096010 f i libucrtd:argv_wildcards.obj
 0001:00095030       ??1?$__crt_win32_buffer@DU__crt_win32_buffer_internal_dynamic_resizing@@@@QEAA@XZ 0000000140096030 f i libucrtd:argv_wildcards.obj
 0001:00095030       ??1?$__crt_win32_buffer@_WU__crt_win32_buffer_internal_dynamic_resizing@@@@QEAA@XZ 0000000140096030 f i libucrtd:argv_wildcards.obj
 0001:000951c0       ?_deallocate@?$__crt_win32_buffer@DU__crt_win32_buffer_internal_dynamic_resizing@@@@AEAAXXZ 00000001400961c0 f i libucrtd:argv_wildcards.obj
 0001:000951c0       ?_deallocate@?$__crt_win32_buffer@_WU__crt_win32_buffer_internal_dynamic_resizing@@@@AEAAXXZ 00000001400961c0 f i libucrtd:argv_wildcards.obj
 0001:00095200       ?allocate@?$__crt_win32_buffer@DU__crt_win32_buffer_internal_dynamic_resizing@@@@QEAAH_K@Z 0000000140096200 f i libucrtd:argv_wildcards.obj
 0001:00095280       ?allocate@?$__crt_win32_buffer@_WU__crt_win32_buffer_internal_dynamic_resizing@@@@QEAAH_K@Z 0000000140096280 f i libucrtd:argv_wildcards.obj
 0001:00095310       ?allocate@__crt_win32_buffer_internal_dynamic_resizing@@SAHQEAPEAX_KAEBV__crt_win32_buffer_empty_debug_info@@@Z 0000000140096310 f i libucrtd:argv_wildcards.obj
 0001:000953e0       ?close@?$__crt_unique_handle_t@U__crt_findfile_traits@@@@QEAAXXZ 00000001400963e0 f i libucrtd:argv_wildcards.obj
 0001:00095420       ?close@__crt_findfile_traits@@SA_NPEAX@Z 0000000140096420 f i libucrtd:argv_wildcards.obj
 0001:00095460       ?deallocate@__crt_win32_buffer_internal_dynamic_resizing@@SAXQEAXAEBV__crt_win32_buffer_empty_debug_info@@@Z 0000000140096460 f i libucrtd:argv_wildcards.obj
 0001:00095750       ?set_to_nullptr@?$__crt_win32_buffer@DU__crt_win32_buffer_internal_dynamic_resizing@@@@QEAAXXZ 0000000140096750 f i libucrtd:argv_wildcards.obj
 0001:00095750       ?set_to_nullptr@?$__crt_win32_buffer@_WU__crt_win32_buffer_internal_dynamic_resizing@@@@QEAAXXZ 0000000140096750 f i libucrtd:argv_wildcards.obj
 0001:000957b0       ?strpbrk@@YAPEADQEADQEBD@Z 00000001400967b0 f i libucrtd:argv_wildcards.obj
 0001:000957e0       __acrt_expand_narrow_argv_wildcards 00000001400967e0 f   libucrtd:argv_wildcards.obj
 0001:000958a0       ??$initialize_from_array@$$BY10BAA@E@?$dual_state_global@PEAE@__crt_state_management@@QEAAXAEAY10BAA@E@Z 00000001400968a0 f i libucrtd:mbctype.obj
 0001:00095910       ??$initialize_from_array@$$BY10BAB@E@?$dual_state_global@PEAE@__crt_state_management@@QEAAXAEAY10BAB@E@Z 0000000140096910 f i libucrtd:mbctype.obj
 0001:00096480       __acrt_initialize_multibyte 0000000140097480 f   libucrtd:mbctype.obj
 0001:00096550       __acrt_update_thread_multibyte_data 0000000140097550 f   libucrtd:mbctype.obj
 0001:00096580       _setmbcp_nolock            0000000140097580 f   libucrtd:mbctype.obj
 0001:00096ae0       _ismbblead                 0000000140097ae0 f   libucrtd:ismbbyte.obj
 0001:00096ba0       __acrt_MultiByteToWideChar 0000000140097ba0 f   libucrtd:multibytetowidechar.obj
 0001:00096ca0       __acrt_WideCharToMultiByte 0000000140097ca0 f   libucrtd:widechartomultibyte.obj
 0001:00096dd0       __dcrt_get_narrow_environment_from_os 0000000140097dd0 f   libucrtd:get_environment_from_os.obj
 0001:000974a0       __dcrt_set_variable_in_narrow_environment_nolock 00000001400984a0 f   libucrtd:setenv.obj
 0001:000974b0       __acrt_initialize_locks    00000001400984b0 f   libucrtd:locks.obj
 0001:00097520       __acrt_lock                0000000140098520 f   libucrtd:locks.obj
 0001:00097550       __acrt_uninitialize_locks  0000000140098550 f   libucrtd:locks.obj
 0001:000975b0       __acrt_unlock              00000001400985b0 f   libucrtd:locks.obj
 0001:000978c0       __acrt_get_developer_information_policy 00000001400988c0 f   libucrtd:win_policies.obj
 0001:000978e0       __acrt_get_process_end_policy 00000001400988e0 f   libucrtd:win_policies.obj
 0001:000978f0       __acrt_get_windowing_model_policy 00000001400988f0 f   libucrtd:win_policies.obj
 0001:00097910       __acrt_lowio_create_handle_array 0000000140098910 f   libucrtd:osfinfo.obj
 0001:00097ad0       __acrt_lowio_destroy_handle_array 0000000140098ad0 f   libucrtd:osfinfo.obj
 0001:00097b50       __acrt_lowio_ensure_fh_exists 0000000140098b50 f   libucrtd:osfinfo.obj
 0001:00097cb0       __acrt_lowio_lock_fh       0000000140098cb0 f   libucrtd:osfinfo.obj
 0001:00097cf0       __acrt_lowio_set_os_handle 0000000140098cf0 f   libucrtd:osfinfo.obj
 0001:00097e00       __acrt_lowio_unlock_fh     0000000140098e00 f   libucrtd:osfinfo.obj
 0001:00097e40       _alloc_osfhnd              0000000140098e40 f   libucrtd:osfinfo.obj
 0001:00098050       _free_osfhnd               0000000140099050 f   libucrtd:osfinfo.obj
 0001:00098180       _get_osfhandle             0000000140099180 f   libucrtd:osfinfo.obj
 0001:00098380       __acrt_initialize_fmode    0000000140099380 f   libucrtd:txtmode.obj
 0001:000983e0       __acrt_locale_free_monetary 00000001400993e0 f   libucrtd:initmon.obj
 0001:000985f0       __acrt_locale_free_numeric 00000001400995f0 f   libucrtd:initnum.obj
 0001:00098790       __acrt_locale_free_time    0000000140099790 f   libucrtd:inittime.obj
 0001:00098900       ??1?$__crt_scoped_stack_ptr@_W@@QEAA@XZ 0000000140099900 f i libucrtd:getstringtypea.obj
 0001:00098920       _MallocaComputeSize        0000000140099920 f i libucrtd:getstringtypea.obj
 0001:00098960       _MarkAllocaS               0000000140099960 f i libucrtd:getstringtypea.obj
 0001:00098990       __acrt_GetStringTypeA      0000000140099990 f   libucrtd:getstringtypea.obj
 0001:00098bf0       _freea_crt                 0000000140099bf0 f i libucrtd:getstringtypea.obj
 0001:00098c90       __acrt_add_locale_ref      0000000140099c90 f   libucrtd:locale_refcounting.obj
 0001:00098df0       __acrt_free_locale         0000000140099df0 f   libucrtd:locale_refcounting.obj
 0001:00099170       __acrt_locale_add_lc_time_reference 000000014009a170 f   libucrtd:locale_refcounting.obj
 0001:000991b0       __acrt_locale_free_lc_time_if_unreferenced 000000014009a1b0 f   libucrtd:locale_refcounting.obj
 0001:00099210       __acrt_locale_release_lc_time_reference 000000014009a210 f   libucrtd:locale_refcounting.obj
 0001:00099250       __acrt_release_locale_ref  000000014009a250 f   libucrtd:locale_refcounting.obj
 0001:000993c0       __acrt_update_thread_locale_data 000000014009a3c0 f   libucrtd:locale_refcounting.obj
 0001:00099460       _updatetlocinfoEx_nolock   000000014009a460 f   libucrtd:locale_refcounting.obj
 0001:00099500       __acrt_initialize_heap     000000014009a500 f   libucrtd:heap_handle.obj
 0001:00099530       __acrt_uninitialize_heap   000000014009a530 f   libucrtd:heap_handle.obj
 0001:00099550       __acrt_execute_initializers 000000014009a550 f   libucrtd:shared_initialization.obj
 0001:00099640       __acrt_execute_uninitializers 000000014009a640 f   libucrtd:shared_initialization.obj
 0001:000996c0       __acrt_initialize_new_handler 000000014009a6c0 f   libucrtd:new_handler.obj
 0001:000996e0       _callnewh                  000000014009a6e0 f   libucrtd:new_handler.obj
 0001:00099730       _query_new_handler         000000014009a730 f   libucrtd:new_handler.obj
 0001:00099780       _free_base                 000000014009a780 f   libucrtd:free_base.obj
 0001:000997e0       _realloc_base              000000014009a7e0 f   libucrtd:realloc_base.obj
 0001:00099900       _expand_base               000000014009a900 f   libucrtd:expand.obj
 0001:00099a90       _CrtDefaultAllocHook       000000014009aa90 f   libucrtd:debug_heap_hook.obj
 0001:00099ab0       _VCrtDbgReportA            000000014009aab0 f   libucrtd:dbgrptt.obj
 0001:0009a490       _VCrtDbgReportW            000000014009b490 f   libucrtd:dbgrptt.obj
 0001:0009b010       _snprintf_s                000000014009c010 f i libucrtd:dbgrptt.obj
 0001:0009b130       __acrt_DownlevelLocaleNameToLCID 000000014009c130 f   libucrtd:lcidtoname_downlevel.obj
 0001:0009b300       _commit                    000000014009c300 f   libucrtd:commit.obj
 0001:0009cee0       _write                     000000014009dee0 f   libucrtd:write.obj
 0001:0009d180       _write_nolock              000000014009e180 f   libucrtd:write.obj
 0001:0009d750       __ascii_wcsnicmp           000000014009e750 f   libucrtd:wcsnicmp.obj
 0001:0009d820       __ascii_strnicmp           000000014009e820 f   libucrtd:strnicmp.obj
 0001:0009d8f0       _strnicmp                  000000014009e8f0 f   libucrtd:strnicmp.obj
 0001:0009db40       _strnicmp_l                000000014009eb40 f   libucrtd:strnicmp.obj
 0001:0009e1c0       ??$tsopen_nolock@PEAHAEBQEAHAEBQEBDAEBHAEBHAEBHAEBH@?$__crt_char_traits@D@@SAH$$QEAPEAHAEBQEAHAEBQEBDAEBH333@Z 000000014009f1c0 f i libucrtd:open.obj
 0001:0009ef10       _sopen_dispatch            000000014009ff10 f   libucrtd:open.obj
 0001:0009ef60       _sopen_nolock              000000014009ff60 f   libucrtd:open.obj
 0001:0009f030       _sopen_s                   00000001400a0030 f   libucrtd:open.obj
 0001:0009f080       _wsopen_nolock             00000001400a0080 f   libucrtd:open.obj
 0001:0009f7f0       _isatty                    00000001400a07f0 f   libucrtd:isatty.obj
 0001:0009f900       _isleadbyte_l              00000001400a0900 f i libucrtd:_wctype.obj
 0001:0009f9d0       ?__mbrtowc_utf8@__crt_mbstring@@YA_KPEA_WPEBD_KPEAU_Mbstatet@@@Z 00000001400a09d0 f   libucrtd:mbrtowc.obj
 0001:0009fa40       ?__mbsrtowcs_utf8@__crt_mbstring@@YA_KPEA_WPEAPEBD_KPEAU_Mbstatet@@@Z 00000001400a0a40 f   libucrtd:mbrtowc.obj
 0001:0009fd40       ?__c32rtomb_utf8@__crt_mbstring@@YA_KPEAD_UPEAU_Mbstatet@@@Z 00000001400a0d40 f   libucrtd:c32rtomb.obj
 0001:0009ffc0       ?reset_and_return@__crt_mbstring@@YA_K_KPEAU_Mbstatet@@@Z 00000001400a0fc0 f i libucrtd:c32rtomb.obj
 0001:000a0000       ?return_illegal_sequence@__crt_mbstring@@YA_KPEAU_Mbstatet@@@Z 00000001400a1000 f i libucrtd:c32rtomb.obj
 0001:000a0040       c32rtomb                   00000001400a1040 f   libucrtd:c32rtomb.obj
 0001:000a0200       __acrt_fp_strflt_to_string 00000001400a1200 f   libucrtd:_fptostr.obj
 0001:000a0d80       ??8__crt_strtox@@YA_NAEBUbig_integer@0@0@Z 00000001400a1d80 f i libucrtd:cfout.obj
 0001:000a0df0       ??9__crt_strtox@@YA_NAEBUbig_integer@0@0@Z 00000001400a1df0 f i libucrtd:cfout.obj
 0001:000a0e30       ?is_zero@__crt_strtox@@YA_NAEBUbig_integer@1@@Z 00000001400a1e30 f i libucrtd:cfout.obj
 0001:000a0e60       ?make_big_integer_power_of_two@__crt_strtox@@YA?AUbig_integer@1@I@Z 00000001400a1e60 f i libucrtd:cfout.obj
 0001:000a0f30       __acrt_fltout              00000001400a1f30 f   libucrtd:cfout.obj
 0001:000a1d10       __acrt_stdio_flush_and_write_narrow_nolock 00000001400a2d10 f   libucrtd:_flsbuf.obj
 0001:000a1d40       __acrt_stdio_flush_and_write_wide_nolock 00000001400a2d40 f   libucrtd:_flsbuf.obj
 0001:000a1d70       __acrt_GetStringTypeW      00000001400a2d70 f   libucrtd:getstringtypew.obj
 0001:000a1db0       ??$__acrt_fenv_shift_bits@W4__acrt_fenv_abstract_status@@@@YA?AW4__acrt_fenv_abstract_status@@W40@0I@Z 00000001400a2db0 f i libucrtd:_fenvutils.obj
 0001:000a1db0       ??$__acrt_fenv_shift_bits@W4__acrt_fenv_abstract_control@@@@YA?AW4__acrt_fenv_abstract_control@@W40@0I@Z 00000001400a2db0 f i libucrtd:_fenvutils.obj
 0001:000a1de0       ??$__acrt_fenv_translate_bit@W4__acrt_fenv_abstract_control@@W4__acrt_fenv_machine_sse_control@@@@YA?AW4__acrt_fenv_abstract_control@@W4__acrt_fenv_machine_sse_control@@0W40@1@Z 00000001400a2de0 f i libucrtd:_fenvutils.obj
 0001:000a1e40       ??$__acrt_fenv_translate_bit@W4__acrt_fenv_machine_sse_status@@W4__acrt_fenv_abstract_status@@@@YA?AW4__acrt_fenv_machine_sse_status@@W4__acrt_fenv_abstract_status@@0W40@1@Z 00000001400a2e40 f i libucrtd:_fenvutils.obj
 0001:000a1e40       ??$__acrt_fenv_translate_bit@W4__acrt_fenv_abstract_status@@W4__acrt_fenv_machine_sse_status@@@@YA?AW4__acrt_fenv_abstract_status@@W4__acrt_fenv_machine_sse_status@@0W40@1@Z 00000001400a2e40 f i libucrtd:_fenvutils.obj
 0001:000a1e90       ??$__acrt_fenv_translate_bit@W4__acrt_fenv_machine_sse_control@@W4__acrt_fenv_abstract_control@@@@YA?AW4__acrt_fenv_machine_sse_control@@W4__acrt_fenv_abstract_control@@0W40@1@Z 00000001400a2e90 f i libucrtd:_fenvutils.obj
 0001:000a1ef0       ??$__acrt_fenv_unshift_bits@W4__acrt_fenv_abstract_status@@@@YA?AW4__acrt_fenv_abstract_status@@W40@0I@Z 00000001400a2ef0 f i libucrtd:_fenvutils.obj
 0001:000a1ef0       ??$__acrt_fenv_unshift_bits@W4__acrt_fenv_abstract_control@@@@YA?AW4__acrt_fenv_abstract_control@@W40@0I@Z 00000001400a2ef0 f i libucrtd:_fenvutils.obj
 0001:000a23e0       ??I@YA?AW4__acrt_fenv_abstract_status@@W40@0@Z 00000001400a33e0 f i libucrtd:_fenvutils.obj
 0001:000a23e0       ??I@YA?AW4__acrt_fenv_machine_sse_status@@W40@0@Z 00000001400a33e0 f i libucrtd:_fenvutils.obj
 0001:000a23e0       ??I@YA?AW4__acrt_fenv_abstract_control@@W40@0@Z 00000001400a33e0 f i libucrtd:_fenvutils.obj
 0001:000a2400       ??I@YA?AW4__acrt_fenv_machine_sse_control@@W40@0@Z 00000001400a3400 f i libucrtd:_fenvutils.obj
 0001:000a2420       ??U@YA?AW4__acrt_fenv_abstract_status@@W40@0@Z 00000001400a3420 f i libucrtd:_fenvutils.obj
 0001:000a2420       ??U@YA?AW4__acrt_fenv_abstract_control@@W40@0@Z 00000001400a3420 f i libucrtd:_fenvutils.obj
 0001:000a2440       ??U@YA?AW4__acrt_fenv_machine_sse_control@@W40@0@Z 00000001400a3440 f i libucrtd:_fenvutils.obj
 0001:000a2460       ??_5@YAAEAW4__acrt_fenv_machine_sse_status@@AEAW40@W40@@Z 00000001400a3460 f i libucrtd:_fenvutils.obj
 0001:000a2460       ??_5@YAAEAW4__acrt_fenv_abstract_status@@AEAW40@W40@@Z 00000001400a3460 f i libucrtd:_fenvutils.obj
 0001:000a2460       ??_5@YAAEAW4__acrt_fenv_abstract_control@@AEAW40@W40@@Z 00000001400a3460 f i libucrtd:_fenvutils.obj
 0001:000a2490       ??_5@YAAEAW4__acrt_fenv_machine_sse_control@@AEAW40@W40@@Z 00000001400a3490 f i libucrtd:_fenvutils.obj
 0001:000a24c0       ?__acrt_fenv_shift_abstract_sse_control@@YA?AW4__acrt_fenv_abstract_control@@W41@@Z 00000001400a34c0 f i libucrtd:_fenvutils.obj
 0001:000a2510       ?__acrt_fenv_shift_abstract_sse_status@@YA?AW4__acrt_fenv_abstract_status@@W41@@Z 00000001400a3510 f i libucrtd:_fenvutils.obj
 0001:000a2540       ?__acrt_fenv_unshift_abstract_sse_control@@YA?AW4__acrt_fenv_abstract_control@@W41@@Z 00000001400a3540 f i libucrtd:_fenvutils.obj
 0001:000a2590       ?__acrt_fenv_unshift_abstract_sse_status@@YA?AW4__acrt_fenv_abstract_status@@W41@@Z 00000001400a3590 f i libucrtd:_fenvutils.obj
 0001:000a2860       __acrt_fenv_get_common_round_control 00000001400a3860 f   libucrtd:_fenvutils.obj
 0001:000a2880       __acrt_fenv_get_control    00000001400a3880 f   libucrtd:_fenvutils.obj
 0001:000a28b0       __acrt_fenv_get_status     00000001400a38b0 f   libucrtd:_fenvutils.obj
 0001:000a28e0       __acrt_fenv_set_control    00000001400a38e0 f   libucrtd:_fenvutils.obj
 0001:000a2900       __acrt_fenv_set_status     00000001400a3900 f   libucrtd:_fenvutils.obj
 0001:000a2930       _get_fpsr                  00000001400a3930 f   libucrtd:fpsr.obj
 0001:000a2940       _set_fpsr                  00000001400a3940 f   libucrtd:fpsr.obj
 0001:000a294a       _fclrf                     00000001400a394a f   libucrtd:fpsr.obj
 0001:000a295e       _frnd                      00000001400a395e f   libucrtd:fpsr.obj
 0001:000a2980       __acrt_OutputDebugStringA  00000001400a3980 f   libucrtd:outputdebugstringa.obj
 0001:000a2bb0       qsort                      00000001400a3bb0 f   libucrtd:qsort.obj
 0001:000a3940       strncpy_s                  00000001400a4940 f   libucrtd:strncpy_s.obj
 0001:000a3ab0       strpbrk                    00000001400a4ab0 f   libucrtd:strpbrk.obj
 0001:000a43a0       _mbsdec                    00000001400a53a0 f   libucrtd:mbsdec.obj
 0001:000a43a8       _mbsdec_l                  00000001400a53a8 f   libucrtd:mbsdec.obj
 0001:000a4a90       __acrt_LCMapStringA        00000001400a5a90 f   libucrtd:lcmapstringa.obj
 0001:000a4b70       _strnicoll                 00000001400a5b70 f   libucrtd:strnicol.obj
 0001:000a4bd0       _strnicoll_l               00000001400a5bd0 f   libucrtd:strnicol.obj
 0001:000a4fb0       __acrt_SetEnvironmentVariableA 00000001400a5fb0 f   libucrtd:setenvironmentvariablea.obj
 0001:000a50c0       _malloc_base               00000001400a60c0 f   libucrtd:malloc_base.obj
 0001:000a5740       _mbstowcs_s_l              00000001400a6740 f   libucrtd:mbstowcs.obj
 0001:000a5d10       mbstowcs_s                 00000001400a6d10 f   libucrtd:mbstowcs.obj
 0001:000a66a0       _wcstombs_s_l              00000001400a76a0 f   libucrtd:wcstombs.obj
 0001:000a6be0       wcstombs_s                 00000001400a7be0 f   libucrtd:wcstombs.obj
 0001:000a6c2c       _putwch_nolock             00000001400a7c2c f   libucrtd:putwch.obj
 0001:000a6c70       ??0__crt_seek_guard@@QEAA@H_J@Z 00000001400a7c70 f i libucrtd:chsize.obj
 0001:000a6cf0       ??1__crt_seek_guard@@QEAA@XZ 00000001400a7cf0 f i libucrtd:chsize.obj
 0001:000a6d20       _chsize_nolock             00000001400a7d20 f   libucrtd:chsize.obj
 0001:000a6fa0       ?__mbrtoc32_utf8@__crt_mbstring@@YA_KPEA_UPEBD_KPEAU_Mbstatet@@@Z 00000001400a7fa0 f   libucrtd:mbrtoc32.obj
 0001:000a7360       log10                      00000001400a8360 f   libucrtd:log10.obj
 0001:000a7910       _controlfp_s               00000001400a8910 f   libucrtd:contrlfp.obj
 0001:000a7a40       fegetenv                   00000001400a8a40 f   libucrtd:fegetenv.obj
 0001:000a7a70       fesetenv                   00000001400a8a70 f   libucrtd:fesetenv.obj
 0001:000a7af0       feholdexcept               00000001400a8af0 f   libucrtd:feholdexcept.obj
 0001:000a7b60       __strncnt                  00000001400a8b60 f   libucrtd:strncnt.obj
 0001:000a8260       __acrt_CompareStringA      00000001400a9260 f   libucrtd:comparestringa.obj
 0001:000a8300       ?__wcsrtombs_utf8@__crt_mbstring@@YA_KPEADPEAPEB_W_KPEAU_Mbstatet@@@Z 00000001400a9300 f   libucrtd:wcrtomb.obj
 0001:000a8568       __dcrt_lowio_ensure_console_output_initialized 00000001400a9568 f   libucrtd:initcon.obj
 0001:000a85bc       __dcrt_terminate_console_output 00000001400a95bc f   libucrtd:initcon.obj
 0001:000a85d8       __dcrt_write_console       00000001400a95d8 f   libucrtd:initcon.obj
 0001:000a86a0       _log10_special             00000001400a96a0 f   libucrtd:log_special.obj
 0001:000a8a00       _clearfp                   00000001400a9a00 f   libucrtd:ieee.obj
 0001:000a8a20       _control87                 00000001400a9a20 f   libucrtd:ieee.obj
 0001:000a8cb0       ?__c16rtomb_utf8@__crt_mbstring@@YA_KPEAD_SPEAU_Mbstatet@@@Z 00000001400a9cb0 f   libucrtd:c16rtomb.obj
 0001:000a8ed0       _FindPESection             00000001400a9ed0 f   LIBCMTD:pesect.obj
 0001:000a8f80       _IsNonwritableInCurrentImage 00000001400a9f80 f   LIBCMTD:pesect.obj
 0001:000a9010       _ValidateImageBase         00000001400aa010 f   LIBCMTD:pesect.obj
 0001:000a9090       ??1type_info@@UEAA@XZ      00000001400aa090 f   LIBCMTD:std_type_info_static.obj
 0001:000a90b0       ??_Gtype_info@@UEAAPEAXI@Z 00000001400aa0b0 f i LIBCMTD:std_type_info_static.obj
 0001:000a90b0       ??_Etype_info@@UEAAPEAXI@Z 00000001400aa0b0 f i LIBCMTD:std_type_info_static.obj
 0001:000a90f0       ??3@YAXPEAX_K@Z            00000001400aa0f0 f   LIBCMTD:delete_scalar_size.obj
 0001:000a9110       __GSHandlerCheck_EH        00000001400aa110 f   LIBCMTD:gshandlereh.obj
 0001:000a91c0       ??3@YAXPEAX@Z              00000001400aa1c0 f   LIBCMTD:delete_scalar.obj
 0001:000a91e0       _local_unwind              00000001400aa1e0 f   libvcruntimed:jmpuwind.obj
 0001:000a9220       memcmp                     00000001400aa220 f   libvcruntimed:memcmp.obj
 0001:000a92f0       strrchr                    00000001400aa2f0 f   libvcruntimed:strrchr.obj
 0001:000a9710       strchr                     00000001400aa710 f   libvcruntimed:strchr.obj
 0001:000a98b0       _guard_dispatch_icall_nop  00000001400aa8b0 f   LIBCMTD:guard_dispatch.obj
 0001:000a98d0       _guard_xfg_dispatch_icall_nop 00000001400aa8d0 f   LIBCMTD:guard_xfg_dispatch.obj
 0002:00000000       __imp_SetPixelFormat       00000001400ac000     gdi32:GDI32.dll
 0002:00000008       __imp_GetDeviceCaps        00000001400ac008     gdi32:GDI32.dll
 0002:00000010       __imp_ChoosePixelFormat    00000001400ac010     gdi32:GDI32.dll
 0002:00000018       __imp_SwapBuffers          00000001400ac018     gdi32:GDI32.dll
 0002:00000020       \177GDI32_NULL_THUNK_DATA  00000001400ac020     gdi32:GDI32.dll
 0002:00000028       __imp_FlushFileBuffers     00000001400ac028     kernel32:KERNEL32.dll
 0002:00000030       __imp_HeapQueryInformation 00000001400ac030     kernel32:KERNEL32.dll
 0002:00000038       __imp_HeapReAlloc          00000001400ac038     kernel32:KERNEL32.dll
 0002:00000040       __imp_HeapFree             00000001400ac040     kernel32:KERNEL32.dll
 0002:00000048       __imp_GetProcessHeap       00000001400ac048     kernel32:KERNEL32.dll
 0002:00000050       __imp_GetStringTypeW       00000001400ac050     kernel32:KERNEL32.dll
 0002:00000058       __imp_SetStdHandle         00000001400ac058     kernel32:KERNEL32.dll
 0002:00000060       __imp_SetEnvironmentVariableW 00000001400ac060     kernel32:KERNEL32.dll
 0002:00000068       __imp_FreeEnvironmentStringsW 00000001400ac068     kernel32:KERNEL32.dll
 0002:00000070       __imp_GetEnvironmentStringsW 00000001400ac070     kernel32:KERNEL32.dll
 0002:00000078       __imp_WideCharToMultiByte  00000001400ac078     kernel32:KERNEL32.dll
 0002:00000080       __imp_MultiByteToWideChar  00000001400ac080     kernel32:KERNEL32.dll
 0002:00000088       __imp_GetConsoleOutputCP   00000001400ac088     kernel32:KERNEL32.dll
 0002:00000090       __imp_GetOEMCP             00000001400ac090     kernel32:KERNEL32.dll
 0002:00000098       __imp_GetACP               00000001400ac098     kernel32:KERNEL32.dll
 0002:000000a0       __imp_IsValidCodePage      00000001400ac0a0     kernel32:KERNEL32.dll
 0002:000000a8       __imp_FindNextFileW        00000001400ac0a8     kernel32:KERNEL32.dll
 0002:000000b0       __imp_FindFirstFileExW     00000001400ac0b0     kernel32:KERNEL32.dll
 0002:000000b8       __imp_FindClose            00000001400ac0b8     kernel32:KERNEL32.dll
 0002:000000c0       __imp_OutputDebugStringW   00000001400ac0c0     kernel32:KERNEL32.dll
 0002:000000c8       __imp_SetFilePointerEx     00000001400ac0c8     kernel32:KERNEL32.dll
 0002:000000d0       __imp_ReadConsoleW         00000001400ac0d0     kernel32:KERNEL32.dll
 0002:000000d8       __imp_GetConsoleMode       00000001400ac0d8     kernel32:KERNEL32.dll
 0002:000000e0       __imp_CreateFileW          00000001400ac0e0     kernel32:KERNEL32.dll
 0002:000000e8       __imp_GetFileSizeEx        00000001400ac0e8     kernel32:KERNEL32.dll
 0002:000000f0       __imp_SetEndOfFile         00000001400ac0f0     kernel32:KERNEL32.dll
 0002:000000f8       __imp_GetCPInfo            00000001400ac0f8     kernel32:KERNEL32.dll
 0002:00000100       __imp_IsDebuggerPresent    00000001400ac100     kernel32:KERNEL32.dll
 0002:00000108       __imp_GetCommandLineA      00000001400ac108     kernel32:KERNEL32.dll
 0002:00000110       __imp_SetCurrentDirectoryA 00000001400ac110     kernel32:KERNEL32.dll
 0002:00000118       __imp_OutputDebugStringA   00000001400ac118     kernel32:KERNEL32.dll
 0002:00000120       __imp_CloseHandle          00000001400ac120     kernel32:KERNEL32.dll
 0002:00000128       __imp_QueryPerformanceCounter 00000001400ac128     kernel32:KERNEL32.dll
 0002:00000130       __imp_QueryPerformanceFrequency 00000001400ac130     kernel32:KERNEL32.dll
 0002:00000138       __imp_ReleaseSemaphore     00000001400ac138     kernel32:KERNEL32.dll
 0002:00000140       __imp_ReleaseMutex         00000001400ac140     kernel32:KERNEL32.dll
 0002:00000148       __imp_WaitForSingleObject  00000001400ac148     kernel32:KERNEL32.dll
 0002:00000150       __imp_WaitForSingleObjectEx 00000001400ac150     kernel32:KERNEL32.dll
 0002:00000158       __imp_CreateMutexA         00000001400ac158     kernel32:KERNEL32.dll
 0002:00000160       __imp_CreateThread         00000001400ac160     kernel32:KERNEL32.dll
 0002:00000168       __imp_GetTickCount         00000001400ac168     kernel32:KERNEL32.dll
 0002:00000170       __imp_VirtualAlloc         00000001400ac170     kernel32:KERNEL32.dll
 0002:00000178       __imp_VirtualFree          00000001400ac178     kernel32:KERNEL32.dll
 0002:00000180       __imp_FreeLibrary          00000001400ac180     kernel32:KERNEL32.dll
 0002:00000188       __imp_GetModuleHandleA     00000001400ac188     kernel32:KERNEL32.dll
 0002:00000190       __imp_GetProcAddress       00000001400ac190     kernel32:KERNEL32.dll
 0002:00000198       __imp_LoadLibraryA         00000001400ac198     kernel32:KERNEL32.dll
 0002:000001a0       __imp_LoadLibraryW         00000001400ac1a0     kernel32:KERNEL32.dll
 0002:000001a8       __imp_GlobalSize           00000001400ac1a8     kernel32:KERNEL32.dll
 0002:000001b0       __imp_CreateSemaphoreExA   00000001400ac1b0     kernel32:KERNEL32.dll
 0002:000001b8       __imp_RtlCaptureContext    00000001400ac1b8     kernel32:KERNEL32.dll
 0002:000001c0       __imp_RtlLookupFunctionEntry 00000001400ac1c0     kernel32:KERNEL32.dll
 0002:000001c8       __imp_RtlVirtualUnwind     00000001400ac1c8     kernel32:KERNEL32.dll
 0002:000001d0       __imp_UnhandledExceptionFilter 00000001400ac1d0     kernel32:KERNEL32.dll
 0002:000001d8       __imp_SetUnhandledExceptionFilter 00000001400ac1d8     kernel32:KERNEL32.dll
 0002:000001e0       __imp_GetCurrentProcess    00000001400ac1e0     kernel32:KERNEL32.dll
 0002:000001e8       __imp_TerminateProcess     00000001400ac1e8     kernel32:KERNEL32.dll
 0002:000001f0       __imp_IsProcessorFeaturePresent 00000001400ac1f0     kernel32:KERNEL32.dll
 0002:000001f8       __imp_GetCurrentProcessId  00000001400ac1f8     kernel32:KERNEL32.dll
 0002:00000200       __imp_GetCurrentThreadId   00000001400ac200     kernel32:KERNEL32.dll
 0002:00000208       __imp_GetSystemTimeAsFileTime 00000001400ac208     kernel32:KERNEL32.dll
 0002:00000210       __imp_InitializeSListHead  00000001400ac210     kernel32:KERNEL32.dll
 0002:00000218       __imp_RtlUnwind            00000001400ac218     kernel32:KERNEL32.dll
 0002:00000220       __imp_GetStartupInfoW      00000001400ac220     kernel32:KERNEL32.dll
 0002:00000228       __imp_GetModuleHandleW     00000001400ac228     kernel32:KERNEL32.dll
 0002:00000230       __imp_RtlUnwindEx          00000001400ac230     kernel32:KERNEL32.dll
 0002:00000238       __imp_GetLastError         00000001400ac238     kernel32:KERNEL32.dll
 0002:00000240       __imp_SetLastError         00000001400ac240     kernel32:KERNEL32.dll
 0002:00000248       __imp_EnterCriticalSection 00000001400ac248     kernel32:KERNEL32.dll
 0002:00000250       __imp_LeaveCriticalSection 00000001400ac250     kernel32:KERNEL32.dll
 0002:00000258       __imp_DeleteCriticalSection 00000001400ac258     kernel32:KERNEL32.dll
 0002:00000260       __imp_InitializeCriticalSectionAndSpinCount 00000001400ac260     kernel32:KERNEL32.dll
 0002:00000268       __imp_TlsAlloc             00000001400ac268     kernel32:KERNEL32.dll
 0002:00000270       __imp_TlsGetValue          00000001400ac270     kernel32:KERNEL32.dll
 0002:00000278       __imp_TlsSetValue          00000001400ac278     kernel32:KERNEL32.dll
 0002:00000280       __imp_TlsFree              00000001400ac280     kernel32:KERNEL32.dll
 0002:00000288       __imp_LoadLibraryExW       00000001400ac288     kernel32:KERNEL32.dll
 0002:00000290       __imp_EncodePointer        00000001400ac290     kernel32:KERNEL32.dll
 0002:00000298       __imp_RaiseException       00000001400ac298     kernel32:KERNEL32.dll
 0002:000002a0       __imp_RtlPcToFileHeader    00000001400ac2a0     kernel32:KERNEL32.dll
 0002:000002a8       __imp_ReadFile             00000001400ac2a8     kernel32:KERNEL32.dll
 0002:000002b0       __imp_GetStdHandle         00000001400ac2b0     kernel32:KERNEL32.dll
 0002:000002b8       __imp_GetFileType          00000001400ac2b8     kernel32:KERNEL32.dll
 0002:000002c0       __imp_GetModuleFileNameW   00000001400ac2c0     kernel32:KERNEL32.dll
 0002:000002c8       __imp_GetModuleHandleExW   00000001400ac2c8     kernel32:KERNEL32.dll
 0002:000002d0       __imp_WriteConsoleW        00000001400ac2d0     kernel32:KERNEL32.dll
 0002:000002d8       __imp_WriteFile            00000001400ac2d8     kernel32:KERNEL32.dll
 0002:000002e0       __imp_ExitProcess          00000001400ac2e0     kernel32:KERNEL32.dll
 0002:000002e8       __imp_GetCommandLineW      00000001400ac2e8     kernel32:KERNEL32.dll
 0002:000002f0       __imp_HeapAlloc            00000001400ac2f0     kernel32:KERNEL32.dll
 0002:000002f8       __imp_HeapSize             00000001400ac2f8     kernel32:KERNEL32.dll
 0002:00000300       __imp_HeapValidate         00000001400ac300     kernel32:KERNEL32.dll
 0002:00000308       __imp_GetSystemInfo        00000001400ac308     kernel32:KERNEL32.dll
 0002:00000310       __imp_CompareStringW       00000001400ac310     kernel32:KERNEL32.dll
 0002:00000318       __imp_LCMapStringW         00000001400ac318     kernel32:KERNEL32.dll
 0002:00000320       \177KERNEL32_NULL_THUNK_DATA 00000001400ac320     kernel32:KERNEL32.dll
 0002:00000328       __imp_wglDeleteContext     00000001400ac328     opengl32:OPENGL32.dll
 0002:00000330       __imp_wglGetCurrentContext 00000001400ac330     opengl32:OPENGL32.dll
 0002:00000338       __imp_wglGetProcAddress    00000001400ac338     opengl32:OPENGL32.dll
 0002:00000340       __imp_wglMakeCurrent       00000001400ac340     opengl32:OPENGL32.dll
 0002:00000348       __imp_wglCreateContext     00000001400ac348     opengl32:OPENGL32.dll
 0002:00000350       \177OPENGL32_NULL_THUNK_DATA 00000001400ac350     opengl32:OPENGL32.dll
 0002:00000358       __imp_DispatchMessageA     00000001400ac358     user32:USER32.dll
 0002:00000360       __imp_PeekMessageA         00000001400ac360     user32:USER32.dll
 0002:00000368       __imp_DefWindowProcA       00000001400ac368     user32:USER32.dll
 0002:00000370       __imp_LoadImageA           00000001400ac370     user32:USER32.dll
 0002:00000378       __imp_LoadIconA            00000001400ac378     user32:USER32.dll
 0002:00000380       __imp_LoadCursorA          00000001400ac380     user32:USER32.dll
 0002:00000388       __imp_SetRect              00000001400ac388     user32:USER32.dll
 0002:00000390       __imp_ScreenToClient       00000001400ac390     user32:USER32.dll
 0002:00000398       __imp_GetCursorPos         00000001400ac398     user32:USER32.dll
 0002:000003a0       __imp_SetCursor            00000001400ac3a0     user32:USER32.dll
 0002:000003a8       __imp_AdjustWindowRectEx   00000001400ac3a8     user32:USER32.dll
 0002:000003b0       __imp_GetClientRect        00000001400ac3b0     user32:USER32.dll
 0002:000003b8       __imp_ReleaseDC            00000001400ac3b8     user32:USER32.dll
 0002:000003c0       __imp_GetDC                00000001400ac3c0     user32:USER32.dll
 0002:000003c8       __imp_UpdateWindow         00000001400ac3c8     user32:USER32.dll
 0002:000003d0       __imp_GetSystemMetrics     00000001400ac3d0     user32:USER32.dll
 0002:000003d8       __imp_GetClipboardData     00000001400ac3d8     user32:USER32.dll
 0002:000003e0       __imp_CloseClipboard       00000001400ac3e0     user32:USER32.dll
 0002:000003e8       __imp_OpenClipboard        00000001400ac3e8     user32:USER32.dll
 0002:000003f0       __imp_ShowWindow           00000001400ac3f0     user32:USER32.dll
 0002:000003f8       __imp_CreateWindowExA      00000001400ac3f8     user32:USER32.dll
 0002:00000400       __imp_RegisterClassExA     00000001400ac400     user32:USER32.dll
 0002:00000408       __imp_PostQuitMessage      00000001400ac408     user32:USER32.dll
 0002:00000410       __imp_TranslateMessage     00000001400ac410     user32:USER32.dll
 0002:00000418       \177USER32_NULL_THUNK_DATA 00000001400ac418     user32:USER32.dll
 0002:00000420       __imp_timeBeginPeriod      00000001400ac420     winmm:WINMM.dll
 0002:00000428       \177WINMM_NULL_THUNK_DATA  00000001400ac428     winmm:WINMM.dll
 0002:00000430       __guard_check_icall_fptr   00000001400ac430     LIBCMTD:guard_support.obj
 0002:00000438       __guard_xfg_check_icall_fptr 00000001400ac438     LIBCMTD:guard_support.obj
 0002:00000440       __guard_dispatch_icall_fptr 00000001400ac440     LIBCMTD:guard_support.obj
 0002:00000448       __guard_xfg_dispatch_icall_fptr 00000001400ac448     LIBCMTD:guard_support.obj
 0002:00000450       __guard_xfg_table_dispatch_icall_fptr 00000001400ac450     LIBCMTD:guard_support.obj
 0002:00000458       __castguard_check_failure_os_handled_fptr 00000001400ac458     LIBCMTD:guard_support.obj
 0002:00000460       __xc_a                     00000001400ac460     LIBCMTD:initializers.obj
 0002:000004a8       __xc_z                     00000001400ac4a8     LIBCMTD:initializers.obj
 0002:000004b0       __xi_a                     00000001400ac4b0     LIBCMTD:initializers.obj
 0002:000004c8       __acrt_stdio_initializer   00000001400ac4c8     libucrtd:stdio_initializer.obj
 0002:000004d0       __acrt_tran_fma3_initializer 00000001400ac4d0     libucrtd:fma3_initializer.obj
 0002:000004d8       __acrt_multibyte_initializer 00000001400ac4d8     libucrtd:multibyte_initializer.obj
 0002:000004e0       __acrt_fmode_initializer   00000001400ac4e0     libucrtd:fmode_initializer.obj
 0002:000004e8       __xi_z                     00000001400ac4e8     LIBCMTD:initializers.obj
 0002:000004f0       __xl_a                     00000001400ac4f0     LIBCMTD:tlssup.obj
 0002:000004f8       __xl_z                     00000001400ac4f8     LIBCMTD:tlssup.obj
 0002:00000500       __xp_a                     00000001400ac500     LIBCMTD:initializers.obj
 0002:00000508       __acrt_locale_terminator   00000001400ac508     libucrtd:locale_initializer.obj
 0002:00000510       __dcrt_console_output_terminator 00000001400ac510     libucrtd:console_output_initializer.obj
 0002:00000518       __acrt_stdio_terminator    00000001400ac518     libucrtd:stdio_initializer.obj
 0002:00000520       __xp_z                     00000001400ac520     LIBCMTD:initializers.obj
 0002:00000528       __xt_a                     00000001400ac528     LIBCMTD:initializers.obj
 0002:00000530       __xt_z                     00000001400ac530     LIBCMTD:initializers.obj
 0002:0000afd4       ??_C@_02DPKJAMEF@?$CFd@    00000001400b6fd4     audio_visualizer.obj
 0002:0000afd7       ??_C@_00CNPNBAHC@@         00000001400b6fd7     audio_visualizer.obj
 0002:0000b018       __real@00000000            00000001400b7018     audio_visualizer.obj
 0002:0000b020       __real@0000000000000000    00000001400b7020     audio_visualizer.obj
 0002:0000b028       __real@17800000            00000001400b7028     audio_visualizer.obj
 0002:0000b02c       __real@358637bd            00000001400b702c     audio_visualizer.obj
 0002:0000b030       __real@3b4d2e1c            00000001400b7030     audio_visualizer.obj
 0002:0000b034       __real@3c23d70a            00000001400b7034     audio_visualizer.obj
 0002:0000b038       __real@3c8efa39            00000001400b7038     audio_visualizer.obj
 0002:0000b03c       __real@3d25aee6            00000001400b703c     audio_visualizer.obj
 0002:0000b040       __real@3d4ccccd            00000001400b7040     audio_visualizer.obj
 0002:0000b044       __real@3d6147ae            00000001400b7044     audio_visualizer.obj
 0002:0000b048       __real@3dcccccd            00000001400b7048     audio_visualizer.obj
 0002:0000b050       __real@3eb0c6f7a0000000    00000001400b7050     audio_visualizer.obj
 0002:0000b058       __real@3eb33333            00000001400b7058     audio_visualizer.obj
 0002:0000b05c       __real@3f000000            00000001400b705c     audio_visualizer.obj
 0002:0000b060       __real@3f666666            00000001400b7060     audio_visualizer.obj
 0002:0000b064       __real@3f7d70a4            00000001400b7064     audio_visualizer.obj
 0002:0000b068       __real@3f7fffef            00000001400b7068     audio_visualizer.obj
 0002:0000b06c       __real@3f800000            00000001400b706c     audio_visualizer.obj
 0002:0000b070       __real@3f870a3d            00000001400b7070     audio_visualizer.obj
 0002:0000b074       __real@3f8ccccd            00000001400b7074     audio_visualizer.obj
 0002:0000b078       __real@3fc00000            00000001400b7078     audio_visualizer.obj
 0002:0000b080       __real@3fd5555560000000    00000001400b7080     audio_visualizer.obj
 0002:0000b088       __real@3fdaaaaaa0000000    00000001400b7088     audio_visualizer.obj
 0002:0000b090       __real@3fddb3d7            00000001400b7090     audio_visualizer.obj
 0002:0000b098       __real@3fe0000000000000    00000001400b7098     audio_visualizer.obj
 0002:0000b0a0       __real@3feccccccccccccd    00000001400b70a0     audio_visualizer.obj
 0002:0000b0a8       __real@3ff0000000000000    00000001400b70a8     audio_visualizer.obj
 0002:0000b0b0       __real@3ff028f5c0000000    00000001400b70b0     audio_visualizer.obj
 0002:0000b0b8       __real@3ff921fafc8b007a    00000001400b70b8     audio_visualizer.obj
 0002:0000b0c0       __real@40000000            00000001400b70c0     audio_visualizer.obj
 0002:0000b0c8       __real@4000000000000000    00000001400b70c8     audio_visualizer.obj
 0002:0000b0d0       __real@4003333340000000    00000001400b70d0     audio_visualizer.obj
 0002:0000b0d8       __real@40200000            00000001400b70d8     audio_visualizer.obj
 0002:0000b0dc       __real@40400000            00000001400b70dc     audio_visualizer.obj
 0002:0000b0e0       __real@40490fdb            00000001400b70e0     audio_visualizer.obj
 0002:0000b0e4       __real@40800000            00000001400b70e4     audio_visualizer.obj
 0002:0000b0e8       __real@40a00000            00000001400b70e8     audio_visualizer.obj
 0002:0000b0ec       __real@40c00000            00000001400b70ec     audio_visualizer.obj
 0002:0000b0f0       __real@40e00000            00000001400b70f0     audio_visualizer.obj
 0002:0000b0f4       __real@41000000            00000001400b70f4     audio_visualizer.obj
 0002:0000b0f8       __real@41100000            00000001400b70f8     audio_visualizer.obj
 0002:0000b0fc       __real@41200000            00000001400b70fc     audio_visualizer.obj
 0002:0000b100       __real@414eb852            00000001400b7100     audio_visualizer.obj
 0002:0000b104       __real@41800000            00000001400b7104     audio_visualizer.obj
 0002:0000b108       __real@41900000            00000001400b7108     audio_visualizer.obj
 0002:0000b10c       __real@41a80000            00000001400b710c     audio_visualizer.obj
 0002:0000b110       __real@41d80000            00000001400b7110     audio_visualizer.obj
 0002:0000b118       __real@41efffffffe00000    00000001400b7118     audio_visualizer.obj
 0002:0000b120       __real@42000000            00000001400b7120     audio_visualizer.obj
 0002:0000b124       __real@42100000            00000001400b7124     audio_visualizer.obj
 0002:0000b128       __real@42480000            00000001400b7128     audio_visualizer.obj
 0002:0000b12c       __real@42b40000            00000001400b712c     audio_visualizer.obj
 0002:0000b130       __real@42c80000            00000001400b7130     audio_visualizer.obj
 0002:0000b134       __real@437f0000            00000001400b7134     audio_visualizer.obj
 0002:0000b138       __real@43b40000            00000001400b7138     audio_visualizer.obj
 0002:0000b13c       __real@447a0000            00000001400b713c     audio_visualizer.obj
 0002:0000b140       __real@46800000            00000001400b7140     audio_visualizer.obj
 0002:0000b144       __real@46a41000            00000001400b7144     audio_visualizer.obj
 0002:0000b148       __real@46fffe00            00000001400b7148     audio_visualizer.obj
 0002:0000b14c       __real@47000000            00000001400b714c     audio_visualizer.obj
 0002:0000b150       __real@477fff00            00000001400b7150     audio_visualizer.obj
 0002:0000b154       __real@47800000            00000001400b7154     audio_visualizer.obj
 0002:0000b158       __real@497423f0            00000001400b7158     audio_visualizer.obj
 0002:0000b15c       __real@be4ccccd            00000001400b715c     audio_visualizer.obj
 0002:0000b160       __real@bf000000            00000001400b7160     audio_visualizer.obj
 0002:0000b164       __real@bf800000            00000001400b7164     audio_visualizer.obj
 0002:0000b168       __real@c0000000            00000001400b7168     audio_visualizer.obj
 0002:0000b16c       __real@c1400000            00000001400b716c     audio_visualizer.obj
 0002:0000b170       __real@c1d80000            00000001400b7170     audio_visualizer.obj
 0002:0000b174       __real@c2700000            00000001400b7174     audio_visualizer.obj
 0002:0000b178       __real@c4610000            00000001400b7178     audio_visualizer.obj
 0002:0000b180       __xmm@00000200000002000000020000000200 00000001400b7180     audio_visualizer.obj
 0002:0000b190       __xmm@00080008000800080008000800080008 00000001400b7190     audio_visualizer.obj
 0002:0000b1a0       __xmm@00ff00ff00ff00ff00ff00ff00ff00ff 00000001400b71a0     audio_visualizer.obj
 0002:0000b1b0       __xmm@01010000010100000101000001010000 00000001400b71b0     audio_visualizer.obj
 0002:0000b1c0       __xmm@08a914e808a914e808a914e808a914e8 00000001400b71c0     audio_visualizer.obj
 0002:0000b1d0       __xmm@11c8e09e11c8e09e11c8e09e11c8e09e 00000001400b71d0     audio_visualizer.obj
 0002:0000b1e0       __xmm@11c8f9c311c8f9c311c8f9c311c8f9c3 00000001400b71e0     audio_visualizer.obj
 0002:0000b1f0       __xmm@12d0046b12d0046b12d0046b12d0046b 00000001400b71f0     audio_visualizer.obj
 0002:0000b200       __xmm@166f166f166f166f166f166f166f166f 00000001400b7200     audio_visualizer.obj
 0002:0000b210       __xmm@1c5a1c5a1c5a1c5a1c5a1c5a1c5a1c5a 00000001400b7210     audio_visualizer.obj
 0002:0000b220       __xmm@7fffffffffffffff7fffffffffffffff 00000001400b7220     audio_visualizer.obj
 0002:0000b230       __xmm@80000000000000008000000000000000 00000001400b7230     audio_visualizer.obj
 0002:0000b240       __xmm@80000000800000008000000080000000 00000001400b7240     audio_visualizer.obj
 0002:0000b250       __xmm@80808080808080808080808080808080 00000001400b7250     audio_visualizer.obj
 0002:0000b260       __xmm@e09ee565e09ee565e09ee565e09ee565 00000001400b7260     audio_visualizer.obj
 0002:0000b270       __xmm@e9cf12d0e9cf12d0e9cf12d0e9cf12d0 00000001400b7270     audio_visualizer.obj
 0002:0000b280       __xmm@eb1a08a9eb1a08a9eb1a08a9eb1a08a9 00000001400b7280     audio_visualizer.obj
 0002:0000b290       __xmm@f493f493f493f493f493f493f493f493 00000001400b7290     audio_visualizer.obj
 0002:0000b2a0       __xmm@f9c31a9df9c31a9df9c31a9df9c31a9d 00000001400b72a0     audio_visualizer.obj
 0002:0000b2b0       __xmm@fa7efa7efa7efa7efa7efa7efa7efa7e 00000001400b72b0     audio_visualizer.obj
 0002:0000b2d0       _pDestructExceptionObject  00000001400b72d0     libvcruntimed:ehhelpers.obj
 0002:0000b2e0       ??_C@_0EN@KHDJKDCP@d?3?2a01?2_work?220?2s?2src?2vctools?2c@ 00000001400b72e0     libvcruntimed:per_thread_data.obj
 0002:0000ba40       ??_C@_08EHJDFFNH@__based?$CI@ 00000001400b7a40     libvcruntimed:undname.obj
 0002:0000ba50       ??_C@_07KOLFKCDI@__cdecl@  00000001400b7a50     libvcruntimed:undname.obj
 0002:0000ba58       ??_C@_08GHMPAG@__pascal@   00000001400b7a58     libvcruntimed:undname.obj
 0002:0000ba68       ??_C@_09IFJBGAPI@__stdcall@ 00000001400b7a68     libvcruntimed:undname.obj
 0002:0000ba78       ??_C@_0L@NPHFGOKO@__thiscall@ 00000001400b7a78     libvcruntimed:undname.obj
 0002:0000ba88       ??_C@_0L@JMKHOMEK@__fastcall@ 00000001400b7a88     libvcruntimed:undname.obj
 0002:0000ba98       ??_C@_0N@BCKKPABJ@__vectorcall@ 00000001400b7a98     libvcruntimed:undname.obj
 0002:0000baa8       ??_C@_09HIJEGCPM@__clrcall@ 00000001400b7aa8     libvcruntimed:undname.obj
 0002:0000bab4       ??_C@_06GHPCKEAG@__eabi@   00000001400b7ab4     libvcruntimed:undname.obj
 0002:0000bac0       ??_C@_09IOPIDJLG@__swift_1@ 00000001400b7ac0     libvcruntimed:undname.obj
 0002:0000bad0       ??_C@_09KFNFGKHF@__swift_2@ 00000001400b7ad0     libvcruntimed:undname.obj
 0002:0000bae0       ??_C@_09LMMOFLDE@__swift_3@ 00000001400b7ae0     libvcruntimed:undname.obj
 0002:0000baf0       ??_C@_07JOMMBBKO@__ptr64@  00000001400b7af0     libvcruntimed:undname.obj
 0002:0000baf8       ??_C@_0L@PILCLIHE@__restrict@ 00000001400b7af8     libvcruntimed:undname.obj
 0002:0000bb08       ??_C@_0M@GFIIJFMG@__unaligned@ 00000001400b7b08     libvcruntimed:undname.obj
 0002:0000bb18       ??_C@_09DHDLOLLB@restrict?$CI@ 00000001400b7b18     libvcruntimed:undname.obj
 0002:0000bb24       ??_C@_04NIHEBCM@?5new@     00000001400b7b24     libvcruntimed:undname.obj
 0002:0000bb30       ??_C@_07FPCDHGMM@?5delete@ 00000001400b7b30     libvcruntimed:undname.obj
 0002:0000bb38       ??_C@_01NEMOKFLO@?$DN@     00000001400b7b38     libvcruntimed:undname.obj
 0002:0000bb3c       ??_C@_02GPIOPFAK@?$DO?$DO@ 00000001400b7b3c     libvcruntimed:undname.obj
 0002:0000bb40       ??_C@_02FODMEDOG@?$DM?$DM@ 00000001400b7b40     libvcruntimed:undname.obj
 0002:0000bb44       ??_C@_01DCLJPIOD@?$CB@     00000001400b7b44     libvcruntimed:undname.obj
 0002:0000bb48       ??_C@_02EGOFBIJA@?$DN?$DN@ 00000001400b7b48     libvcruntimed:undname.obj
 0002:0000bb4c       ??_C@_02FDNJECIE@?$CB?$DN@ 00000001400b7b4c     libvcruntimed:undname.obj
 0002:0000bb50       ??_C@_02GPECMEKF@?$FL?$FN@ 00000001400b7b50     libvcruntimed:undname.obj
 0002:0000bb58       ??_C@_08LHJFAFGD@operator@ 00000001400b7b58     libvcruntimed:undname.obj
 0002:0000bb64       ??_C@_02HBOOOICD@?9?$DO@   00000001400b7b64     libvcruntimed:undname.obj
 0002:0000bb68       ??_C@_01NBENCBCI@?$CK@     00000001400b7b68     libvcruntimed:undname.obj
 0002:0000bb6c       ??_C@_02ECNGHCIF@?$CL?$CL@ 00000001400b7b6c     libvcruntimed:undname.obj
 0002:0000bb70       ??_C@_02BAABKJLB@?9?9@     00000001400b7b70     libvcruntimed:undname.obj
 0002:0000bb74       ??_C@_01JOAMLHOP@?9@       00000001400b7b74     libvcruntimed:undname.obj
 0002:0000bb78       ??_C@_01MIFGBAGJ@?$CL@     00000001400b7b78     libvcruntimed:undname.obj
 0002:0000bb7c       ??_C@_01HNPIGOCE@?$CG@     00000001400b7b7c     libvcruntimed:undname.obj
 0002:0000bb80       ??_C@_03MNHNFDLC@?9?$DO?$CK@ 00000001400b7b80     libvcruntimed:undname.obj
 0002:0000bb84       ??_C@_01KMDKNFGN@?1@       00000001400b7b84     libvcruntimed:undname.obj
 0002:0000bb88       ??_C@_01FGNFDNOH@?$CF@     00000001400b7b88     libvcruntimed:undname.obj
 0002:0000bb8c       ??_C@_01MNNFJEPP@?$DM@     00000001400b7b8c     libvcruntimed:undname.obj
 0002:0000bb90       ??_C@_02EHCHHCKH@?$DM?$DN@ 00000001400b7b90     libvcruntimed:undname.obj
 0002:0000bb94       ??_C@_01PPODPGHN@?$DO@     00000001400b7b94     libvcruntimed:undname.obj
 0002:0000bb98       ??_C@_02EEKDKGMJ@?$DO?$DN@ 00000001400b7b98     libvcruntimed:undname.obj
 0002:0000bb9c       ??_C@_01IHBHIGKO@?0@       00000001400b7b9c     libvcruntimed:undname.obj
 0002:0000bba0       ??_C@_02HCKGKOFO@?$CI?$CJ@ 00000001400b7ba0     libvcruntimed:undname.obj
 0002:0000bba4       ??_C@_01PJKLJHI@?$HO@      00000001400b7ba4     libvcruntimed:undname.obj
 0002:0000bba8       ??_C@_01JKBOJNNK@?$FO@     00000001400b7ba8     libvcruntimed:undname.obj
 0002:0000bbac       ??_C@_01DNKMNLPK@?$HM@     00000001400b7bac     libvcruntimed:undname.obj
 0002:0000bbb0       ??_C@_02PPKAJPJL@?$CG?$CG@ 00000001400b7bb0     libvcruntimed:undname.obj
 0002:0000bbb4       ??_C@_02NONPIBCD@?$HM?$HM@ 00000001400b7bb4     libvcruntimed:undname.obj
 0002:0000bbb8       ??_C@_02FPIMKNGF@?$CK?$DN@ 00000001400b7bb8     libvcruntimed:undname.obj
 0002:0000bbbc       ??_C@_02FOEOMHFC@?$CL?$DN@ 00000001400b7bbc     libvcruntimed:undname.obj
 0002:0000bbc0       ??_C@_02FKMDLLOA@?9?$DN@   00000001400b7bc0     libvcruntimed:undname.obj
 0002:0000bbc4       ??_C@_02FJEHGPIO@?1?$DN@   00000001400b7bc4     libvcruntimed:undname.obj
 0002:0000bbc8       ??_C@_02FENAOKFI@?$CF?$DN@ 00000001400b7bc8     libvcruntimed:undname.obj
 0002:0000bbcc       ??_C@_03IKFCCPFF@?$DO?$DO?$DN@ 00000001400b7bcc     libvcruntimed:undname.obj
 0002:0000bbd0       ??_C@_03CDNPDDLA@?$DM?$DM?$DN@ 00000001400b7bd0     libvcruntimed:undname.obj
 0002:0000bbd4       ??_C@_02FGJGFEAB@?$CG?$DN@ 00000001400b7bd4     libvcruntimed:undname.obj
 0002:0000bbd8       ??_C@_02DHLNPPGH@?$HM?$DN@ 00000001400b7bd8     libvcruntimed:undname.obj
 0002:0000bbdc       ??_C@_02MHEGNOJ@?$FO?$DN@  00000001400b7bdc     libvcruntimed:undname.obj
 0002:0000bbe0       ??_C@_09IFPLHPGF@?$GAvftable?8@ 00000001400b7be0     libvcruntimed:undname.obj
 0002:0000bbf0       ??_C@_09BLBHBJP@?$GAvbtable?8@ 00000001400b7bf0     libvcruntimed:undname.obj
 0002:0000bc00       ??_C@_07FEEIOKP@?$GAvcall?8@ 00000001400b7c00     libvcruntimed:undname.obj
 0002:0000bc08       ??_C@_08LLFFHHDJ@?$GAtypeof?8@ 00000001400b7c08     libvcruntimed:undname.obj
 0002:0000bc18       ??_C@_0BF@KDPPACIK@?$GAlocal?5static?5guard?8@ 00000001400b7c18     libvcruntimed:undname.obj
 0002:0000bc30       ??_C@_08OBABFOLI@?$GAstring?8@ 00000001400b7c30     libvcruntimed:undname.obj
 0002:0000bc40       ??_C@_0BD@JDLKDPAB@?$GAvbase?5destructor?8@ 00000001400b7c40     libvcruntimed:undname.obj
 0002:0000bc58       ??_C@_0BN@DEGPLNFK@?$GAvector?5deleting?5destructor?8@ 00000001400b7c58     libvcruntimed:undname.obj
 0002:0000bc78       ??_C@_0BO@OBMKPJIG@?$GAdefault?5constructor?5closure?8@ 00000001400b7c78     libvcruntimed:undname.obj
 0002:0000bc98       ??_C@_0BN@IMDCHIKM@?$GAscalar?5deleting?5destructor?8@ 00000001400b7c98     libvcruntimed:undname.obj
 0002:0000bcb8       ??_C@_0BO@PFGOCPJJ@?$GAvector?5constructor?5iterator?8@ 00000001400b7cb8     libvcruntimed:undname.obj
 0002:0000bcd8       ??_C@_0BN@LFPFMEDL@?$GAvector?5destructor?5iterator?8@ 00000001400b7cd8     libvcruntimed:undname.obj
 0002:0000bcf8       ??_C@_0CE@IKBNEHA@?$GAvector?5vbase?5constructor?5itera@ 00000001400b7cf8     libvcruntimed:undname.obj
 0002:0000bd20       ??_C@_0BL@NILFHHPC@?$GAvirtual?5displacement?5map?8@ 00000001400b7d20     libvcruntimed:undname.obj
 0002:0000bd40       ??_C@_0CB@JONCMFFK@?$GAeh?5vector?5constructor?5iterator@ 00000001400b7d40     libvcruntimed:undname.obj
 0002:0000bd68       ??_C@_0CA@GCEOPDGL@?$GAeh?5vector?5destructor?5iterator?8@ 00000001400b7d68     libvcruntimed:undname.obj
 0002:0000bd88       ??_C@_0CH@OOJPLCPH@?$GAeh?5vector?5vbase?5constructor?5it@ 00000001400b7d88     libvcruntimed:undname.obj
 0002:0000bdb0       ??_C@_0BL@LLKPOHJI@?$GAcopy?5constructor?5closure?8@ 00000001400b7db0     libvcruntimed:undname.obj
 0002:0000bdd0       ??_C@_0BA@KBCDOMBN@?$GAudt?5returning?8@ 00000001400b7dd0     libvcruntimed:undname.obj
 0002:0000bde0       ??_C@_03KLGMFNMG@?$GAEH@   00000001400b7de0     libvcruntimed:undname.obj
 0002:0000bde4       ??_C@_05KHLCHHI@?$GARTTI@  00000001400b7de4     libvcruntimed:undname.obj
 0002:0000bdf0       ??_C@_0BA@KKLDJDLB@?$GAlocal?5vftable?8@ 00000001400b7df0     libvcruntimed:undname.obj
 0002:0000be00       ??_C@_0CE@IIHCMGGL@?$GAlocal?5vftable?5constructor?5clos@ 00000001400b7e00     libvcruntimed:undname.obj
 0002:0000be24       ??_C@_06FHBGPFGH@?5new?$FL?$FN@ 00000001400b7e24     libvcruntimed:undname.obj
 0002:0000be30       ??_C@_09LBNFPBCA@?5delete?$FL?$FN@ 00000001400b7e30     libvcruntimed:undname.obj
 0002:0000be40       ??_C@_0P@HJKNJFNN@?$GAomni?5callsig?8@ 00000001400b7e40     libvcruntimed:undname.obj
 0002:0000be50       ??_C@_0BL@CNOONJFP@?$GAplacement?5delete?5closure?8@ 00000001400b7e50     libvcruntimed:undname.obj
 0002:0000be70       ??_C@_0BN@CKNJLHMB@?$GAplacement?5delete?$FL?$FN?5closure?8@ 00000001400b7e70     libvcruntimed:undname.obj
 0002:0000be90       ??_C@_0CG@CFDHKGGD@?$GAmanaged?5vector?5constructor?5ite@ 00000001400b7e90     libvcruntimed:undname.obj
 0002:0000beb8       ??_C@_0CF@IMGKMJNO@?$GAmanaged?5vector?5destructor?5iter@ 00000001400b7eb8     libvcruntimed:undname.obj
 0002:0000bee0       ??_C@_0CG@HLDDJMAG@?$GAeh?5vector?5copy?5constructor?5ite@ 00000001400b7ee0     libvcruntimed:undname.obj
 0002:0000bf08       ??_C@_0CM@FCBBDIGB@?$GAeh?5vector?5vbase?5copy?5construct@ 00000001400b7f08     libvcruntimed:undname.obj
 0002:0000bf38       ??_C@_0BL@CLIPGLGB@?$GAdynamic?5initializer?5for?5?8@ 00000001400b7f38     libvcruntimed:undname.obj
 0002:0000bf58       ??_C@_0CB@PDBIFEP@?$GAdynamic?5atexit?5destructor?5for?5@ 00000001400b7f58     libvcruntimed:undname.obj
 0002:0000bf80       ??_C@_0CD@CGAJBKEJ@?$GAvector?5copy?5constructor?5iterat@ 00000001400b7f80     libvcruntimed:undname.obj
 0002:0000bfa8       ??_C@_0CJ@GJELGAMM@?$GAvector?5vbase?5copy?5constructor?5@ 00000001400b7fa8     libvcruntimed:undname.obj
 0002:0000bfd8       ??_C@_0CL@FGIJHLCE@?$GAmanaged?5vector?5copy?5constructo@ 00000001400b7fd8     libvcruntimed:undname.obj
 0002:0000c008       ??_C@_0BM@PMGGMLDN@?$GAlocal?5static?5thread?5guard?8@ 00000001400b8008     libvcruntimed:undname.obj
 0002:0000c028       ??_C@_0N@BDNMDMOL@operator?5?$CC?$CC?5@ 00000001400b8028     libvcruntimed:undname.obj
 0002:0000c038       ??_C@_0BC@GGEBGALA@operator?5co_await@ 00000001400b8038     libvcruntimed:undname.obj
 0002:0000c050       ??_C@_0M@GAAIMMOH@operator?$DM?$DN?$DO@ 00000001400b8050     libvcruntimed:undname.obj
 0002:0000c060       ??_C@_0BC@DAFEJGAK@?5Type?5Descriptor?8@ 00000001400b8060     libvcruntimed:undname.obj
 0002:0000c078       ??_C@_0BM@LDKODKLH@?5Base?5Class?5Descriptor?5at?5?$CI@ 00000001400b8078     libvcruntimed:undname.obj
 0002:0000c098       ??_C@_0BD@LGICGFMM@?5Base?5Class?5Array?8@ 00000001400b8098     libvcruntimed:undname.obj
 0002:0000c0b0       ??_C@_0BN@MECKDCOJ@?5Class?5Hierarchy?5Descriptor?8@ 00000001400b80b0     libvcruntimed:undname.obj
 0002:0000c0d0       ??_C@_0BK@CFCOFLF@?5Complete?5Object?5Locator?8@ 00000001400b80d0     libvcruntimed:undname.obj
 0002:0000c0f0       ??_C@_0BG@JNJLAMPM@?$GAanonymous?5namespace?8@ 00000001400b80f0     libvcruntimed:undname.obj
 0002:0000c108       ??_C@_02DKCKIIND@?$CFs@    00000001400b8108     libvcruntimed:undname.obj
 0002:0000c10c       ??_C@_11LOCGONAA@@         00000001400b810c     libvcruntimed:undname.obj
 0002:0000c128       ??_C@_1DM@KHCHBNEB@?$AAa?$AAp?$AAi?$AA?9?$AAm?$AAs?$AA?9?$AAw?$AAi?$AAn?$AA?9?$AAc?$AAo?$AAr?$AAe@ 00000001400b8128     libvcruntimed:winapi_downlevel.obj
 0002:0000c168       ??_C@_1DK@LPPGFMPP@?$AAa?$AAp?$AAi?$AA?9?$AAm?$AAs?$AA?9?$AAw?$AAi?$AAn?$AA?9?$AAc?$AAo?$AAr?$AAe@ 00000001400b8168     libvcruntimed:winapi_downlevel.obj
 0002:0000c1a8       ??_C@_1BC@GDMECMAK@?$AAk?$AAe?$AAr?$AAn?$AAe?$AAl?$AA3?$AA2@ 00000001400b81a8     libvcruntimed:winapi_downlevel.obj
 0002:0000c1c0       ??_C@_17CNPHIMPH@?$AA?$CF?$AAl?$AAs@ 00000001400b81c0     libvcruntimed:winapi_downlevel.obj
 0002:0000c1c8       ??_C@_1BA@PFFKHIOG@?$AAa?$AAp?$AAi?$AA?9?$AAm?$AAs?$AA?9@ 00000001400b81c8     libvcruntimed:winapi_downlevel.obj
 0002:0000c1e0       ??_C@_1EM@LBIFGLGH@?$AAc?$AAa?$AAc?$AAh?$AAe?$AAd?$AA_?$AAh?$AAa?$AAn?$AAd?$AAl?$AAe?$AA?5?$AA?$DN@ 00000001400b81e0     libvcruntimed:winapi_downlevel.obj
 0002:0000c230       ??_C@_1JM@DNDMFGLJ@?$AAd?$AA?3?$AA?2?$AAa?$AA0?$AA1?$AA?2?$AA_?$AAw?$AAo?$AAr?$AAk?$AA?2?$AA2?$AA0@ 00000001400b8230     libvcruntimed:winapi_downlevel.obj
 0002:0000c2d0       ??_C@_1DI@MAHEDLDB@?$AAc?$AAa?$AAc?$AAh?$AAe?$AAd?$AA_?$AAh?$AAa?$AAn?$AAd?$AAl?$AAe?$AA?5?$AA?$DN@ 00000001400b82d0     libvcruntimed:winapi_downlevel.obj
 0002:0000c310       ??_C@_1FC@IBNCGNKL@?$AAc?$AAa?$AAc?$AAh?$AAe?$AAd?$AA_?$AAf?$AAp?$AA?5?$AA?$DN?$AA?$DN?$AA?5?$AAi?$AAn@ 00000001400b8310     libvcruntimed:winapi_downlevel.obj
 0002:0000c368       ??_C@_1CI@GDJBAGLP@?$AAc?$AAa?$AAc?$AAh?$AAe?$AAd?$AA_?$AAf?$AAp?$AA?5?$AA?$DN?$AA?$DN?$AA?5?$AAn?$AAe@ 00000001400b8368     libvcruntimed:winapi_downlevel.obj
 0002:0000c398       ??_C@_08KNHFBNJ@FlsAlloc@  00000001400b8398     libvcruntimed:winapi_downlevel.obj
 0002:0000c3b0       ??_C@_07PEJMOBNF@FlsFree@  00000001400b83b0     libvcruntimed:winapi_downlevel.obj
 0002:0000c3c0       ??_C@_0M@GDNOONDI@FlsGetValue@ 00000001400b83c0     libvcruntimed:winapi_downlevel.obj
 0002:0000c3d8       ??_C@_0M@JCPCPOEF@FlsSetValue@ 00000001400b83d8     libvcruntimed:winapi_downlevel.obj
 0002:0000c3f0       ??_C@_0BM@HCFOFFN@InitializeCriticalSectionEx@ 00000001400b83f0     libvcruntimed:winapi_downlevel.obj
 0002:0000c4b0       ??_7exception@std@@6B@     00000001400b84b0     libvcruntimed:frame.obj
 0002:0000c4c0       ??_C@_0BC@EOODALEL@Unknown?5exception@ 00000001400b84c0     libvcruntimed:frame.obj
 0002:0000c4e0       ??_7bad_exception@std@@6B@ 00000001400b84e0     libvcruntimed:frame.obj
 0002:0000c4f0       ??_C@_0O@DPKOEFFH@bad?5exception@ 00000001400b84f0     libvcruntimed:frame.obj
 0002:0000c500       ??_C@_1FK@OACNEHHA@?$AAt?$AAo?$AA?9?$AA?$DO?$AA_?$AAW?$AAh?$AAa?$AAt?$AA?5?$AA?$DN?$AA?$DN?$AA?5?$AAn?$AAu@ 00000001400b8500     libvcruntimed:std_exception.obj
 0002:0000c560       ??_C@_1IK@ODNPIGPI@?$AAd?$AA?3?$AA?2?$AAa?$AA0?$AA1?$AA?2?$AA_?$AAw?$AAo?$AAr?$AAk?$AA?2?$AA2?$AA0@ 00000001400b8560     libvcruntimed:std_exception.obj
 0002:0000c5f0       ??_C@_0CP@GDJHIDC@minkernel?2crts?2ucrt?2src?2appcrt?2@ 00000001400b85f0     libucrtd:_file.obj
 0002:0000c620       ??_C@_1DC@OGOLMDEL@?$AAp?$AAu?$AAb?$AAl?$AAi?$AAc?$AA_?$AAs?$AAt?$AAr?$AAe?$AAa?$AAm?$AA?5?$AA?$CB@ 00000001400b8620     libucrtd:_file.obj
 0002:0000c658       ??_C@_1CK@LLOEFJJG@?$AAf?$AAi?$AAl?$AAe?$AA_?$AAn?$AAa?$AAm?$AAe?$AA?5?$AA?$CB?$AA?$DN?$AA?5?$AAn?$AAu@ 00000001400b8658     libucrtd:fopen.obj
 0002:0000c690       ??_C@_1FO@JKHHBFCN@?$AAm?$AAi?$AAn?$AAk?$AAe?$AAr?$AAn?$AAe?$AAl?$AA?2?$AAc?$AAr?$AAt?$AAs?$AA?2@ 00000001400b8690     libucrtd:fopen.obj
 0002:0000c6f0       ??_C@_1BM@HBDCPLIA@?$AAc?$AAo?$AAm?$AAm?$AAo?$AAn?$AA_?$AAf?$AAs?$AAo?$AAp?$AAe?$AAn@ 00000001400b86f0     libucrtd:fopen.obj
 0002:0000c710       ??_C@_1CA@HJKPLBCC@?$AAm?$AAo?$AAd?$AAe?$AA?5?$AA?$CB?$AA?$DN?$AA?5?$AAn?$AAu?$AAl?$AAl?$AAp?$AAt?$AAr@ 00000001400b8710     libucrtd:fopen.obj
 0002:0000c730       ??_C@_1BG@HEFEIBLN@?$AA?$CK?$AAm?$AAo?$AAd?$AAe?$AA?5?$AA?$CB?$AA?$DN?$AA?5?$AA0@ 00000001400b8730     libucrtd:fopen.obj
 0002:0000c748       ??_C@_1CE@JMFACANE@?$AAr?$AAe?$AAs?$AAu?$AAl?$AAt?$AA?5?$AA?$CB?$AA?$DN?$AA?5?$AAn?$AAu?$AAl?$AAl?$AAp@ 00000001400b8748     libucrtd:fopen.obj
 0002:0000c770       ??_C@_1BO@JGGJAKB@?$AAc?$AAo?$AAm?$AAm?$AAo?$AAn?$AA_?$AAf?$AAo?$AAp?$AAe?$AAn?$AA_?$AAs@ 00000001400b8770     libucrtd:fopen.obj
 0002:0000c790       ??_C@_1BO@MHPFFFJJ@?$AAs?$AAt?$AAr?$AAe?$AAa?$AAm?$AA?4?$AAv?$AAa?$AAl?$AAi?$AAd?$AA?$CI?$AA?$CJ@ 00000001400b8790     libucrtd:fclose.obj
 0002:0000c7b0       ??_C@_1GA@DKNOMDCL@?$AAm?$AAi?$AAn?$AAk?$AAe?$AAr?$AAn?$AAe?$AAl?$AA?2?$AAc?$AAr?$AAt?$AAs?$AA?2@ 00000001400b87b0     libucrtd:fclose.obj
 0002:0000c810       ??_C@_1O@EGMJNCOI@?$AAf?$AAc?$AAl?$AAo?$AAs?$AAe@ 00000001400b8810     libucrtd:fclose.obj
 0002:0000c820       ??_C@_1BO@JINCABEC@?$AA_?$AAf?$AAc?$AAl?$AAo?$AAs?$AAe?$AA_?$AAn?$AAo?$AAl?$AAo?$AAc?$AAk@ 00000001400b8820     libucrtd:fclose.obj
 0002:0000c840       ??_C@_1GC@CMLBJHAF@?$AAm?$AAi?$AAn?$AAk?$AAe?$AAr?$AAn?$AAe?$AAl?$AA?2?$AAc?$AAr?$AAt?$AAs?$AA?2@ 00000001400b8840     libucrtd:feoferr.obj
 0002:0000c8a8       ??_C@_19LPGIFIDB@?$AAf?$AAe?$AAo?$AAf@ 00000001400b88a8     libucrtd:feoferr.obj
 0002:0000c8b8       ??_C@_1O@MOPHEPGP@?$AAf?$AAe?$AAr?$AAr?$AAo?$AAr@ 00000001400b88b8     libucrtd:feoferr.obj
 0002:0000c8d0       ??_C@_1BDG@MKBKGHOH@?$AA?$CI?$AA?5?$AA?$CI?$AA_?$AAS?$AAt?$AAr?$AAe?$AAa?$AAm?$AA?4?$AAi?$AAs?$AA_?$AAs@ 00000001400b88d0     libucrtd:fgetc.obj
 0002:0000ca10       ??_C@_1FO@HEEKIEFN@?$AAm?$AAi?$AAn?$AAk?$AAe?$AAr?$AAn?$AAe?$AAl?$AA?2?$AAc?$AAr?$AAt?$AAs?$AA?2@ 00000001400b8a10     libucrtd:fgetc.obj
 0002:0000ca70       ??_C@_1BM@ODJEACKA@?$AA_?$AAf?$AAg?$AAe?$AAt?$AAc?$AA_?$AAn?$AAo?$AAl?$AAo?$AAc?$AAk@ 00000001400b8a70     libucrtd:fgetc.obj
 0002:0000ca90       ??_C@_1M@FBFFFGJE@?$AAf?$AAg?$AAe?$AAt?$AAc@ 00000001400b8a90     libucrtd:fgetc.obj
 0002:0000caa0       ??_C@_1CE@JLIJLEKO@?$AAs?$AAt?$AAr?$AAe?$AAa?$AAm?$AA?5?$AA?$CB?$AA?$DN?$AA?5?$AAn?$AAu?$AAl?$AAl?$AAp@ 00000001400b8aa0     libucrtd:fread.obj
 0002:0000cad0       ??_C@_1FO@CIJKACCM@?$AAm?$AAi?$AAn?$AAk?$AAe?$AAr?$AAn?$AAe?$AAl?$AA?2?$AAc?$AAr?$AAt?$AAs?$AA?2@ 00000001400b8ad0     libucrtd:fread.obj
 0002:0000cb30       ??_C@_1BA@CMLCEIGG@?$AAf?$AAr?$AAe?$AAa?$AAd?$AA_?$AAs@ 00000001400b8b30     libucrtd:fread.obj
 0002:0000cb40       ??_C@_1CE@MCCHPLBM@?$AAb?$AAu?$AAf?$AAf?$AAe?$AAr?$AA?5?$AA?$CB?$AA?$DN?$AA?5?$AAn?$AAu?$AAl?$AAl?$AAp@ 00000001400b8b40     libucrtd:fread.obj
 0002:0000cb68       ??_C@_1CA@IDPOGFL@?$AA_?$AAf?$AAr?$AAe?$AAa?$AAd?$AA_?$AAn?$AAo?$AAl?$AAo?$AAc?$AAk?$AA_?$AAs@ 00000001400b8b68     libucrtd:fread.obj
 0002:0000cb90       ??_C@_1FG@KLKDPCLL@?$AAe?$AAl?$AAe?$AAm?$AAe?$AAn?$AAt?$AA_?$AAc?$AAo?$AAu?$AAn?$AAt?$AA?5?$AA?$DM@ 00000001400b8b90     libucrtd:fread.obj
 0002:0000cbf0       ??_C@_1LG@DCNDJCHK@?$AA?$CI?$AA?$CC?$AAI?$AAn?$AAc?$AAo?$AAn?$AAs?$AAi?$AAs?$AAt?$AAe?$AAn?$AAt?$AA?5@ 00000001400b8bf0     libucrtd:fread.obj
 0002:0000cca8       ??_C@_1DA@DKEFLDMG@?$AA?$CI?$AA?$CC?$AAb?$AAu?$AAf?$AAf?$AAe?$AAr?$AA?5?$AAt?$AAo?$AAo?$AA?5?$AAs?$AAm@ 00000001400b8ca8     libucrtd:fread.obj
 0002:0000cce0       ??_C@_1FO@KMPAKEKH@?$AAm?$AAi?$AAn?$AAk?$AAe?$AAr?$AAn?$AAe?$AAl?$AA?2?$AAc?$AAr?$AAt?$AAs?$AA?2@ 00000001400b8ce0     libucrtd:fseek.obj
 0002:0000cd40       ??_C@_1BK@HEPGDNON@?$AAc?$AAo?$AAm?$AAm?$AAo?$AAn?$AA_?$AAf?$AAs?$AAe?$AAe?$AAk@ 00000001400b8d40     libucrtd:fseek.obj
 0002:0000cd60       ??_C@_1HO@BJGCGJL@?$AAw?$AAh?$AAe?$AAn?$AAc?$AAe?$AA?5?$AA?$DN?$AA?$DN?$AA?5?$AAS?$AAE?$AAE?$AAK?$AA_@ 00000001400b8d60     libucrtd:fseek.obj
 0002:0000cde0       ??_C@_1CO@LBNDLIPC@?$AAs?$AAt?$AAr?$AAe?$AAa?$AAm?$AA?4?$AAp?$AAu?$AAb?$AAl?$AAi?$AAc?$AA_?$AAs@ 00000001400b8de0     libucrtd:ftell.obj
 0002:0000ce10       ??_C@_1FO@JHBALIAM@?$AAm?$AAi?$AAn?$AAk?$AAe?$AAr?$AAn?$AAe?$AAl?$AA?2?$AAc?$AAr?$AAt?$AAs?$AA?2@ 00000001400b8e10     libucrtd:ftell.obj
 0002:0000ce70       ??_C@_1CI@MOKEPKDC@?$AAc?$AAo?$AAm?$AAm?$AAo?$AAn?$AA_?$AAf?$AAt?$AAe?$AAl?$AAl?$AA_?$AAn?$AAo@ 00000001400b8e70     libucrtd:ftell.obj
 0002:0000cea0       ??_C@_1GM@EDHJGDLB@?$AA?$CI?$AAb?$AAu?$AAf?$AAf?$AAe?$AAr?$AA_?$AAl?$AAa?$AAs?$AAt?$AA?5?$AA?9?$AA?5@ 00000001400b8ea0     libucrtd:ftell.obj
 0002:0000cf10       ??_C@_1BK@CMPCEPOF@?$AAc?$AAo?$AAm?$AAm?$AAo?$AAn?$AA_?$AAf?$AAt?$AAe?$AAl?$AAl@ 00000001400b8f10     libucrtd:ftell.obj
 0002:0000cf30       ??_C@_1GA@JPJEOEOF@?$AAm?$AAi?$AAn?$AAk?$AAe?$AAr?$AAn?$AAe?$AAl?$AA?2?$AAc?$AAr?$AAt?$AAs?$AA?2@ 00000001400b8f30     libucrtd:ungetc.obj
 0002:0000cf90       ??_C@_1O@JDPLECOK@?$AAu?$AAn?$AAg?$AAe?$AAt?$AAc@ 00000001400b8f90     libucrtd:ungetc.obj
 0002:0000cfa0       ??_C@_1BO@OLMLKKEA@?$AA_?$AAu?$AAn?$AAg?$AAe?$AAt?$AAc?$AA_?$AAn?$AAo?$AAl?$AAo?$AAc?$AAk@ 00000001400b8fa0     libucrtd:ungetc.obj
 0002:0000cfc0       ?standard_lookup_table_spectre@__crt_stdio_output@@3V?$spectre_mitigated_lookup_table@Ustate_transition_pair@__crt_stdio_output@@$0IA@@1@B 00000001400b8fc0     libucrtd:output.obj
 0002:0000d3c0       ?format_validation_lookup_table_spectre@__crt_stdio_output@@3V?$spectre_mitigated_lookup_table@Ustate_transition_pair@__crt_stdio_output@@$0IA@@1@B 00000001400b93c0     libucrtd:output.obj
 0002:0000d7c0       ??_C@_1GC@LCDLABEA@?$AAm?$AAi?$AAn?$AAk?$AAe?$AAr?$AAn?$AAe?$AAl?$AA?2?$AAc?$AAr?$AAt?$AAs?$AA?2@ 00000001400b97c0     libucrtd:output.obj
 0002:0000d830       ??_C@_1II@DIIMCJOK@?$AA_?$AA_?$AAa?$AAc?$AAr?$AAt?$AA_?$AAs?$AAt?$AAd?$AAi?$AAo?$AA_?$AAc?$AAh@ 00000001400b9830     libucrtd:output.obj
 0002:0000d8c0       ??_C@_1GA@MOBAPGIO@?$AAm?$AAi?$AAn?$AAk?$AAe?$AAr?$AAn?$AAe?$AAl?$AA?2?$AAc?$AAr?$AAt?$AAs?$AA?2@ 00000001400b98c0     libucrtd:output.obj
 0002:0000d920       ??_C@_1CA@GELIJBMC@?$AAc?$AAo?$AAm?$AAm?$AAo?$AAn?$AA_?$AAv?$AAf?$AAp?$AAr?$AAi?$AAn?$AAt?$AAf@ 00000001400b9920     libucrtd:output.obj
 0002:0000d940       ??_C@_1CE@EAKLPBKK@?$AAf?$AAo?$AAr?$AAm?$AAa?$AAt?$AA?5?$AA?$CB?$AA?$DN?$AA?5?$AAn?$AAu?$AAl?$AAl?$AAp@ 00000001400b9940     libucrtd:output.obj
 0002:0000d968       ??_C@_1CA@PIMGHCEK@?$AAc?$AAo?$AAm?$AAm?$AAo?$AAn?$AA_?$AAv?$AAs?$AAp?$AAr?$AAi?$AAn?$AAt?$AAf@ 00000001400b9968     libucrtd:output.obj
 0002:0000d990       ??_C@_1EO@EGEEFEFM@?$AAb?$AAu?$AAf?$AAf?$AAe?$AAr?$AA_?$AAc?$AAo?$AAu?$AAn?$AAt?$AA?5?$AA?$DN?$AA?$DN@ 00000001400b9990     libucrtd:output.obj
 0002:0000d9e0       ??_C@_1CE@JEILLNB@?$AAc?$AAo?$AAm?$AAm?$AAo?$AAn?$AA_?$AAv?$AAs?$AAp?$AAr?$AAi?$AAn?$AAt?$AAf@ 00000001400b99e0     libucrtd:output.obj
 0002:0000da10       ??_C@_1EM@OAFHAOLH@?$AAb?$AAu?$AAf?$AAf?$AAe?$AAr?$AA?5?$AA?$CB?$AA?$DN?$AA?5?$AAn?$AAu?$AAl?$AAl?$AAp@ 00000001400b9a10     libucrtd:output.obj
 0002:0000da60       ??_C@_1DA@HPBFKMEB@?$AA?$CI?$AA?$CC?$AAB?$AAu?$AAf?$AAf?$AAe?$AAr?$AA?5?$AAt?$AAo?$AAo?$AA?5?$AAs?$AAm@ 00000001400b9a60     libucrtd:output.obj
 0002:0000da90       ??_C@_1CG@LHFJHFBB@?$AAc?$AAo?$AAm?$AAm?$AAo?$AAn?$AA_?$AAv?$AAs?$AAn?$AAp?$AAr?$AAi?$AAn?$AAt@ 00000001400b9a90     libucrtd:output.obj
 0002:0000dab8       ??_C@_1CM@JOIJBMEM@?$AA_?$AAf?$AAo?$AAr?$AAm?$AAa?$AAt?$AA_?$AAi?$AAt?$AA?5?$AA?$CB?$AA?$DN?$AA?5?$AAn@ 00000001400b9ab8     libucrtd:output.obj
 0002:0000daf0       ??_C@_1HA@DMAAKIJP@?$AAm?$AAi?$AAn?$AAk?$AAe?$AAr?$AAn?$AAe?$AAl?$AA?2?$AAc?$AAr?$AAt?$AAs?$AA?2@ 00000001400b9af0     libucrtd:output.obj
 0002:0000db60       ??_C@_1EE@DMAIGNBG@?$AA?$CI?$AA?$CC?$AAI?$AAn?$AAc?$AAo?$AAr?$AAr?$AAe?$AAc?$AAt?$AA?5?$AAf?$AAo?$AAr@ 00000001400b9b60     libucrtd:output.obj
 0002:0000dbb0       ??_C@_1BLI@IKDKMDHI@?$AA_?$AA_?$AAc?$AAr?$AAt?$AA_?$AAs?$AAt?$AAd?$AAi?$AAo?$AA_?$AAo?$AAu?$AAt@ 00000001400b9bb0     libucrtd:output.obj
 0002:0000dd70       ??_C@_1BKA@DNADAJMC@?$AA_?$AA_?$AAc?$AAr?$AAt?$AA_?$AAs?$AAt?$AAd?$AAi?$AAo?$AA_?$AAo?$AAu?$AAt@ 00000001400b9d70     libucrtd:output.obj
 0002:0000df10       ??_C@_1BLI@EEAAPJD@?$AA_?$AA_?$AAc?$AAr?$AAt?$AA_?$AAs?$AAt?$AAd?$AAi?$AAo?$AA_?$AAo?$AAu?$AAt@ 00000001400b9f10     libucrtd:output.obj
 0002:0000e0d0       ??_C@_1BKA@IIAAOGBO@?$AA_?$AA_?$AAc?$AAr?$AAt?$AA_?$AAs?$AAt?$AAd?$AAi?$AAo?$AA_?$AAo?$AAu?$AAt@ 00000001400ba0d0     libucrtd:output.obj
 0002:0000e270       ??_C@_1FG@OBJBDPAC@?$AA?$CI?$AA?$CC?$AAN?$AA?5?$AAl?$AAe?$AAn?$AAg?$AAt?$AAh?$AA?5?$AAm?$AAo?$AAd?$AAi@ 00000001400ba270     libucrtd:output.obj
 0002:0000e2d0       ??_C@_1EC@GJPNJDCN@?$AA_?$AAl?$AAe?$AAn?$AAg?$AAt?$AAh?$AA?5?$AA?$DN?$AA?$DN?$AA?5?$AAl?$AAe?$AAn?$AAg@ 00000001400ba2d0     libucrtd:output.obj
 0002:0000e318       ??_C@_1DG@CEJKFDMO@?$AAs?$AAt?$AAa?$AAt?$AAe?$AA_?$AAc?$AAa?$AAs?$AAe?$AA_?$AAn?$AAo?$AAr?$AAm@ 00000001400ba318     libucrtd:output.obj
 0002:0000e350       ??_C@_1BMI@KBPJOJJI@?$AA_?$AA_?$AAc?$AAr?$AAt?$AA_?$AAs?$AAt?$AAd?$AAi?$AAo?$AA_?$AAo?$AAu?$AAt@ 00000001400ba350     libucrtd:output.obj
 0002:0000e520       ??_C@_1BMM@PGHHMNDM@?$AA_?$AA_?$AAc?$AAr?$AAt?$AA_?$AAs?$AAt?$AAd?$AAi?$AAo?$AA_?$AAo?$AAu?$AAt@ 00000001400ba520     libucrtd:output.obj
 0002:0000e6f0       ??_C@_1CI@DDKMNCPP@?$AA_?$AAc?$AAo?$AAn?$AAt?$AAe?$AAx?$AAt?$AA?5?$AA?$CB?$AA?$DN?$AA?5?$AAn?$AAu?$AAl@ 00000001400ba6f0     libucrtd:output.obj
 0002:0000e720       ??_C@_1HK@IIPGOADH@?$AA_?$AA_?$AAc?$AAr?$AAt?$AA_?$AAs?$AAt?$AAd?$AAi?$AAo?$AA_?$AAo?$AAu?$AAt@ 00000001400ba720     libucrtd:output.obj
 0002:0000e7a0       ??_C@_1BLA@MEDMHIOH@?$AA_?$AA_?$AAc?$AAr?$AAt?$AA_?$AAs?$AAt?$AAd?$AAi?$AAo?$AA_?$AAo?$AAu?$AAt@ 00000001400ba7a0     libucrtd:output.obj
 0002:0000e950       ??_C@_1BLE@LCKPBJON@?$AA_?$AA_?$AAc?$AAr?$AAt?$AA_?$AAs?$AAt?$AAd?$AAi?$AAo?$AA_?$AAo?$AAu?$AAt@ 00000001400ba950     libucrtd:output.obj
 0002:0000eb10       ??_C@_1HE@IACOMEJF@?$AA_?$AA_?$AAc?$AAr?$AAt?$AA_?$AAs?$AAt?$AAd?$AAi?$AAo?$AA_?$AAo?$AAu?$AAt@ 00000001400bab10     libucrtd:output.obj
 0002:0000eb90       ??_C@_1GC@BNMHNGKM@?$AA_?$AAs?$AAt?$AAa?$AAt?$AAe?$AA?5?$AA?$DN?$AA?$DN?$AA?5?$AAs?$AAt?$AAa?$AAt?$AAe@ 00000001400bab90     libucrtd:output.obj
 0002:0000ec00       ??_C@_1BMI@DNMDMAAN@?$AA_?$AA_?$AAc?$AAr?$AAt?$AA_?$AAs?$AAt?$AAd?$AAi?$AAo?$AA_?$AAo?$AAu?$AAt@ 00000001400bac00     libucrtd:output.obj
 0002:0000edd0       ??_C@_1BMM@JHGFKAND@?$AA_?$AA_?$AAc?$AAr?$AAt?$AA_?$AAs?$AAt?$AAd?$AAi?$AAo?$AA_?$AAo?$AAu?$AAt@ 00000001400badd0     libucrtd:output.obj
 0002:0000efa0       ??_C@_1CA@ONEGMNAN@?$AA_?$AAs?$AAt?$AAr?$AAe?$AAa?$AAm?$AA?4?$AAv?$AAa?$AAl?$AAi?$AAd?$AA?$CI?$AA?$CJ@ 00000001400bafa0     libucrtd:output.obj
 0002:0000efc0       ??_C@_1HK@MPBCDOK@?$AA_?$AA_?$AAc?$AAr?$AAt?$AA_?$AAs?$AAt?$AAd?$AAi?$AAo?$AA_?$AAo?$AAu?$AAt@ 00000001400bafc0     libucrtd:output.obj
 0002:0000f040       ??_C@_1BLA@GJNGKGIK@?$AA_?$AA_?$AAc?$AAr?$AAt?$AA_?$AAs?$AAt?$AAd?$AAi?$AAo?$AA_?$AAo?$AAu?$AAt@ 00000001400bb040     libucrtd:output.obj
 0002:0000f1f0       ??_C@_1BLE@PAACOKDK@?$AA_?$AA_?$AAc?$AAr?$AAt?$AA_?$AAs?$AAt?$AAd?$AAi?$AAo?$AA_?$AAo?$AAu?$AAt@ 00000001400bb1f0     libucrtd:output.obj
 0002:0000f3b0       ??_C@_1HE@FGKHNBNL@?$AA_?$AA_?$AAc?$AAr?$AAt?$AA_?$AAs?$AAt?$AAd?$AAi?$AAo?$AA_?$AAo?$AAu?$AAt@ 00000001400bb3b0     libucrtd:output.obj
 0002:0000f430       ??_C@_1BEC@NDOOKIMC@?$AA_?$AA_?$AAc?$AAr?$AAt?$AA_?$AAs?$AAt?$AAd?$AAi?$AAo?$AA_?$AAo?$AAu?$AAt@ 00000001400bb430     libucrtd:output.obj
 0002:0000f580       ??_C@_1EK@PNGFDECN@?$AA?$CI?$AA?$CC?$AA?8?$AAn?$AA?8?$AA?5?$AAf?$AAo?$AAr?$AAm?$AAa?$AAt?$AA?5?$AAs?$AAp@ 00000001400bb580     libucrtd:output.obj
 0002:0000f5d0       ??_C@_1EO@GHKFGFKL@?$AA?$CI?$AA?$CC?$AAI?$AAn?$AAv?$AAa?$AAl?$AAi?$AAd?$AA?5?$AAi?$AAn?$AAt?$AAe?$AAg@ 00000001400bb5d0     libucrtd:output.obj
 0002:0000f620       ??_C@_1BDG@KOLEFKPF@?$AA_?$AA_?$AAc?$AAr?$AAt?$AA_?$AAs?$AAt?$AAd?$AAi?$AAo?$AA_?$AAo?$AAu?$AAt@ 00000001400bb620     libucrtd:output.obj
 0002:0000f760       ??_C@_1BMA@IHIBOLMD@?$AA_?$AA_?$AAc?$AAr?$AAt?$AA_?$AAs?$AAt?$AAd?$AAi?$AAo?$AA_?$AAo?$AAu?$AAt@ 00000001400bb760     libucrtd:output.obj
 0002:0000f920       ??_C@_1BKI@CJEIGDAI@?$AA_?$AA_?$AAc?$AAr?$AAt?$AA_?$AAs?$AAt?$AAd?$AAi?$AAo?$AA_?$AAo?$AAu?$AAt@ 00000001400bb920     libucrtd:output.obj
 0002:0000fad0       ??_C@_1BMA@PGOJAHFP@?$AA_?$AA_?$AAc?$AAr?$AAt?$AA_?$AAs?$AAt?$AAd?$AAi?$AAo?$AA_?$AAo?$AAu?$AAt@ 00000001400bbad0     libucrtd:output.obj
 0002:0000fc90       ??_C@_1BKI@NDKBCDGP@?$AA_?$AA_?$AAc?$AAr?$AAt?$AA_?$AAs?$AAt?$AAd?$AAi?$AAo?$AA_?$AAo?$AAu?$AAt@ 00000001400bbc90     libucrtd:output.obj
 0002:0000fe38       ??_C@_1O@CEDCILHN@?$AA?$CI?$AAn?$AAu?$AAl?$AAl?$AA?$CJ@ 00000001400bbe38     libucrtd:output.obj
 0002:0000fe48       ??_C@_06OJHGLDPL@?$CInull?$CJ@ 00000001400bbe48     libucrtd:output.obj
 0002:0000fe50       ??_C@_1CK@LGDCECDH@?$AA_?$AAf?$AAo?$AAr?$AAm?$AAa?$AAt?$AA_?$AAc?$AAh?$AAa?$AAr?$AA?5?$AA?$CB?$AA?$DN@ 00000001400bbe50     libucrtd:output.obj
 0002:0000fe80       ??_C@_1BMM@MBMBCJIF@?$AA_?$AA_?$AAc?$AAr?$AAt?$AA_?$AAs?$AAt?$AAd?$AAi?$AAo?$AA_?$AAo?$AAu?$AAt@ 00000001400bbe80     libucrtd:output.obj
 0002:00010050       ??_C@_1BLE@IFBJPNFE@?$AA_?$AA_?$AAc?$AAr?$AAt?$AA_?$AAs?$AAt?$AAd?$AAi?$AAo?$AA_?$AAo?$AAu?$AAt@ 00000001400bc050     libucrtd:output.obj
 0002:00010210       ??_C@_1BMA@FANDDEHK@?$AA_?$AA_?$AAc?$AAr?$AAt?$AA_?$AAs?$AAt?$AAd?$AAi?$AAo?$AA_?$AAo?$AAu?$AAt@ 00000001400bc210     libucrtd:output.obj
 0002:000103d0       ??_C@_1BMM@KANDEEGK@?$AA_?$AA_?$AAc?$AAr?$AAt?$AA_?$AAs?$AAt?$AAd?$AAi?$AAo?$AA_?$AAo?$AAu?$AAt@ 00000001400bc3d0     libucrtd:output.obj
 0002:000105a0       ??_C@_1BLE@MHLEAOID@?$AA_?$AA_?$AAc?$AAr?$AAt?$AA_?$AAs?$AAt?$AAd?$AAi?$AAo?$AA_?$AAo?$AAu?$AAt@ 00000001400bc5a0     libucrtd:output.obj
 0002:00010760       ??_C@_1BMA@MEBEEDJE@?$AA_?$AA_?$AAc?$AAr?$AAt?$AA_?$AAs?$AAt?$AAd?$AAi?$AAo?$AA_?$AAo?$AAu?$AAt@ 00000001400bc760     libucrtd:output.obj
 0002:00010920       ??_C@_0DI@KIFBHMNO@minkernel?2crts?2ucrt?2inc?2corecrt@ 00000001400bc920     libucrtd:output.obj
 0002:00010960       ??_C@_1BMK@JGIBNIA@?$AA_?$AA_?$AAc?$AAr?$AAt?$AA_?$AAs?$AAt?$AAd?$AAi?$AAo?$AA_?$AAo?$AAu?$AAt@ 00000001400bc960     libucrtd:output.obj
 0002:00010b30       ??_C@_1BLC@INKIGOCN@?$AA_?$AA_?$AAc?$AAr?$AAt?$AA_?$AAs?$AAt?$AAd?$AAi?$AAo?$AA_?$AAo?$AAu?$AAt@ 00000001400bcb30     libucrtd:output.obj
 0002:00010cf0       ??_C@_1BNK@KHNJGCCP@?$AA_?$AA_?$AAc?$AAr?$AAt?$AA_?$AAs?$AAt?$AAd?$AAi?$AAo?$AA_?$AAo?$AAu?$AAt@ 00000001400bccf0     libucrtd:output.obj
 0002:00010ed0       ??_C@_1BNO@OHFFMOOJ@?$AA_?$AA_?$AAc?$AAr?$AAt?$AA_?$AAs?$AAt?$AAd?$AAi?$AAo?$AA_?$AAo?$AAu?$AAt@ 00000001400bced0     libucrtd:output.obj
 0002:000110b0       ??_C@_1BMC@FAGJFBLI@?$AA_?$AA_?$AAc?$AAr?$AAt?$AA_?$AAs?$AAt?$AAd?$AAi?$AAo?$AA_?$AAo?$AAu?$AAt@ 00000001400bd0b0     libucrtd:output.obj
 0002:00011280       ??_C@_1BMG@CGPDIFDK@?$AA_?$AA_?$AAc?$AAr?$AAt?$AA_?$AAs?$AAt?$AAd?$AAi?$AAo?$AA_?$AAo?$AAu?$AAt@ 00000001400bd280     libucrtd:output.obj
 0002:00011450       ??_C@_1BNC@OHPDPPJK@?$AA_?$AA_?$AAc?$AAr?$AAt?$AA_?$AAs?$AAt?$AAd?$AAi?$AAo?$AA_?$AAo?$AAu?$AAt@ 00000001400bd450     libucrtd:output.obj
 0002:00011630       ??_C@_1BLK@FOLFMPJH@?$AA_?$AA_?$AAc?$AAr?$AAt?$AA_?$AAs?$AAt?$AAd?$AAi?$AAo?$AA_?$AAo?$AAu?$AAt@ 00000001400bd630     libucrtd:output.obj
 0002:000117f0       ??_C@_1BNO@NAODCKFA@?$AA_?$AA_?$AAc?$AAr?$AAt?$AA_?$AAs?$AAt?$AAd?$AAi?$AAo?$AA_?$AAo?$AAu?$AAt@ 00000001400bd7f0     libucrtd:output.obj
 0002:000119d0       ??_C@_1BMG@BBEFGBID@?$AA_?$AA_?$AAc?$AAr?$AAt?$AA_?$AAs?$AAt?$AAd?$AAi?$AAo?$AA_?$AAo?$AAu?$AAt@ 00000001400bd9d0     libucrtd:output.obj
 0002:00011ba0       ??_C@_1BNC@JPKLPOHO@?$AA_?$AA_?$AAc?$AAr?$AAt?$AA_?$AAs?$AAt?$AAd?$AAi?$AAo?$AA_?$AAo?$AAu?$AAt@ 00000001400bdba0     libucrtd:output.obj
 0002:00011d80       ?large_power_data@?1??multiply_by_power_of_ten@__crt_strtox@@YA_NAEAUbig_integer@2@I@Z@4QBIB 00000001400bdd80     libucrtd:input.obj
 0002:00012690       ?large_power_indices@?1??multiply_by_power_of_ten@__crt_strtox@@YA_NAEAUbig_integer@2@I@Z@4QBUunpack_index@?1??12@YA_N0I@Z@B 00000001400be690     libucrtd:input.obj
 0002:00012728       ?small_powers_of_ten@?1??multiply_by_power_of_ten@__crt_strtox@@YA_NAEAUbig_integer@2@I@Z@4QBIB 00000001400be728     libucrtd:input.obj
 0002:00012750       ??_C@_1DI@GICAMMFM@?$AA?$CI?$AA?$CC?$AAD?$AAi?$AAv?$AAi?$AAs?$AAi?$AAo?$AAn?$AA?5?$AAb?$AAy?$AA?5?$AAz@ 00000001400be750     libucrtd:input.obj
 0002:00012790       ??_C@_1GO@BFGDDONN@?$AAm?$AAi?$AAn?$AAk?$AAe?$AAr?$AAn?$AAe?$AAl?$AA?2?$AAc?$AAr?$AAt?$AAs?$AA?2@ 00000001400be790     libucrtd:input.obj
 0002:00012800       ??_C@_1CC@MOAOAFND@?$AAv?$AAa?$AAl?$AAu?$AAe?$AA?5?$AA?$CB?$AA?$DN?$AA?5?$AAn?$AAu?$AAl?$AAl?$AAp?$AAt@ 00000001400be800     libucrtd:input.obj
 0002:00012830       ??_C@_1GE@DPGDJKLM@?$AAm?$AAi?$AAn?$AAk?$AAe?$AAr?$AAn?$AAe?$AAl?$AA?2?$AAc?$AAr?$AAt?$AAs?$AA?2@ 00000001400be830     libucrtd:input.obj
 0002:00012898       ??_C@_1BK@ICEICMHI@?$AA?$CI?$AA_?$AAi?$AAs?$AA_?$AAd?$AAo?$AAu?$AAb?$AAl?$AAe?$AA?$CJ@ 00000001400be898     libucrtd:input.obj
 0002:000128c0       ??_C@_1FM@FELNCOBF@?$AA_?$AA_?$AAc?$AAr?$AAt?$AA_?$AAs?$AAt?$AAr?$AAt?$AAo?$AAx?$AA?3?$AA?3?$AAf@ 00000001400be8c0     libucrtd:input.obj
 0002:00012920       ??_C@_1BG@GEMHBGAF@?$AA_?$AAi?$AAs?$AA_?$AAd?$AAo?$AAu?$AAb?$AAl?$AAe@ 00000001400be920     libucrtd:input.obj
 0002:00012938       ??_C@_1BM@CEPACFMA@?$AA?$CI?$AA?$CB?$AA_?$AAi?$AAs?$AA_?$AAd?$AAo?$AAu?$AAb?$AAl?$AAe?$AA?$CJ@ 00000001400be938     libucrtd:input.obj
 0002:00012960       ??_C@_1FK@JOJELFFO@?$AA_?$AA_?$AAc?$AAr?$AAt?$AA_?$AAs?$AAt?$AAr?$AAt?$AAo?$AAx?$AA?3?$AA?3?$AAf@ 00000001400be960     libucrtd:input.obj
 0002:000129c0       ??_C@_1BI@BANMPGJI@?$AA?$CB?$AA_?$AAi?$AAs?$AA_?$AAd?$AAo?$AAu?$AAb?$AAl?$AAe@ 00000001400be9c0     libucrtd:input.obj
 0002:000129e0       ??_C@_1EI@OBAKGPDD@?$AA?$CI?$AA?$CC?$AAu?$AAn?$AAe?$AAx?$AAp?$AAe?$AAc?$AAt?$AAe?$AAd?$AA?5?$AAr?$AAo@ 00000001400be9e0     libucrtd:input.obj
 0002:00012a30       ??_C@_1EO@PJGDGGHA@?$AA?$CI?$AA?$CC?$AAU?$AAn?$AAe?$AAx?$AAp?$AAe?$AAc?$AAt?$AAe?$AAd?$AA?5?$AAl?$AAe@ 00000001400bea30     libucrtd:input.obj
 0002:00012a80       ??_C@_1GO@BHHMHLJN@?$AAm?$AAi?$AAn?$AAk?$AAe?$AAr?$AAn?$AAe?$AAl?$AA?2?$AAc?$AAr?$AAt?$AAs?$AA?2@ 00000001400bea80     libucrtd:input.obj
 0002:00012af0       ?constraints@?1??is_length_valid@__crt_stdio_input@@YA_NW4conversion_mode@2@W4length_modifier@2@@Z@4QAY0M@$$CBEA 00000001400beaf0     libucrtd:input.obj
 0002:00012b70       ??_C@_1FO@IJCHOKBM@?$AAm?$AAi?$AAn?$AAk?$AAe?$AAr?$AAn?$AAe?$AAl?$AA?2?$AAc?$AAr?$AAt?$AAs?$AA?2@ 00000001400beb70     libucrtd:input.obj
 0002:00012bd0       ??_C@_1BO@KIEHMAMA@?$AAc?$AAo?$AAm?$AAm?$AAo?$AAn?$AA_?$AAv?$AAs?$AAs?$AAc?$AAa?$AAn?$AAf@ 00000001400bebd0     libucrtd:input.obj
 0002:00012bf0       ??_C@_1EC@CKJPDGHD@?$AA_?$AAf?$AAo?$AAr?$AAm?$AAa?$AAt?$AA_?$AAp?$AAa?$AAr?$AAs?$AAe?$AAr?$AA?4@ 00000001400bebf0     libucrtd:input.obj
 0002:00012c40       ??_C@_1MO@OMPGGAA@?$AA_?$AA_?$AAc?$AAr?$AAt?$AA_?$AAs?$AAt?$AAd?$AAi?$AAo?$AA_?$AAi?$AAn?$AAp@ 00000001400bec40     libucrtd:input.obj
 0002:00012d10       ??_C@_1BO@JKIEMPPA@?$AA_?$AAi?$AAt?$AA?5?$AA?$CB?$AA?$DN?$AA?5?$AAn?$AAu?$AAl?$AAl?$AAp?$AAt?$AAr@ 00000001400bed10     libucrtd:input.obj
 0002:00012d30       ??_C@_1BK@DPJMGFFG@?$AA_?$AAi?$AAt?$AA?5?$AA?$DM?$AA?$DN?$AA?5?$AA_?$AAl?$AAa?$AAs?$AAt@ 00000001400bed30     libucrtd:input.obj
 0002:00012d50       ??_C@_1HA@NLLONGLH@?$AA_?$AA_?$AAc?$AAr?$AAt?$AA_?$AAs?$AAt?$AAd?$AAi?$AAo?$AA_?$AAi?$AAn?$AAp@ 00000001400bed50     libucrtd:input.obj
 0002:00012dc0       ??_C@_1HA@IKGGPHAH@?$AA_?$AA_?$AAc?$AAr?$AAt?$AA_?$AAs?$AAt?$AAd?$AAi?$AAo?$AA_?$AAi?$AAn?$AAp@ 00000001400bedc0     libucrtd:input.obj
 0002:00012e30       ??_C@_1GK@CFAIGKIJ@?$AA_?$AAk?$AAi?$AAn?$AAd?$AA?5?$AA?$DN?$AA?$DN?$AA?5?$AAf?$AAo?$AAr?$AAm?$AAa?$AAt@ 00000001400bee30     libucrtd:input.obj
 0002:00012ea0       ??_C@_1GE@HNDDIBON@?$AA_?$AAk?$AAi?$AAn?$AAd?$AA?5?$AA?$DN?$AA?$DN?$AA?5?$AAf?$AAo?$AAr?$AAm?$AAa?$AAt@ 00000001400beea0     libucrtd:input.obj
 0002:00012f08       ??_C@_1DE@FGKJBHKH@?$AAr?$AAe?$AAs?$AAu?$AAl?$AAt?$AA_?$AAp?$AAo?$AAi?$AAn?$AAt?$AAe?$AAr?$AA?5@ 00000001400bef08     libucrtd:input.obj
 0002:00012f40       ??_C@_1NK@MGMDLCAF@?$AA_?$AA_?$AAc?$AAr?$AAt?$AA_?$AAs?$AAt?$AAd?$AAi?$AAo?$AA_?$AAi?$AAn?$AAp@ 00000001400bef40     libucrtd:input.obj
 0002:00013020       ??_C@_1EO@MLJCKPIB@?$AAb?$AAa?$AAs?$AAe?$AA?5?$AA?$DN?$AA?$DN?$AA?5?$AA0?$AA?5?$AA?$HM?$AA?$HM?$AA?5?$AA?$CI?$AA2@ 00000001400bf020     libucrtd:input.obj
 0002:00013070       ??_C@_1DI@BANODKFL@?$AA_?$AA_?$AAc?$AAr?$AAt?$AA_?$AAs?$AAt?$AAr?$AAt?$AAo?$AAx?$AA?3?$AA?3?$AAp@ 00000001400bf070     libucrtd:input.obj
 0002:000130b0       ??_C@_1PM@CNEAEDGI@?$AA_?$AA_?$AAc?$AAr?$AAt?$AA_?$AAs?$AAt?$AAd?$AAi?$AAo?$AA_?$AAi?$AAn?$AAp@ 00000001400bf0b0     libucrtd:input.obj
 0002:000131b0       ??_C@_1DE@KIFHIDDL@?$AA_?$AAi?$AAn?$AAp?$AAu?$AAt?$AA_?$AAa?$AAd?$AAa?$AAp?$AAt?$AAe?$AAr?$AA?5@ 00000001400bf1b0     libucrtd:input.obj
 0002:000131e8       ??_C@_1CM@HNIGBHEE@?$AA_?$AAs?$AAu?$AAc?$AAc?$AAe?$AAe?$AAd?$AAe?$AAd?$AA?5?$AA?$CB?$AA?$DN?$AA?5?$AAn@ 00000001400bf1e8     libucrtd:input.obj
 0002:00013220       ??_C@_1NK@HHNCOIMJ@?$AA_?$AA_?$AAc?$AAr?$AAt?$AA_?$AAs?$AAt?$AAr?$AAt?$AAo?$AAx?$AA?3?$AA?3?$AAi@ 00000001400bf220     libucrtd:input.obj
 0002:00013300       ??_C@_1LE@HBGIHGAM@?$AA_?$AAk?$AAi?$AAn?$AAd?$AA?5?$AA?$DN?$AA?$DN?$AA?5?$AAf?$AAo?$AAr?$AAm?$AAa?$AAt@ 00000001400bf300     libucrtd:input.obj
 0002:000133c0       ??_C@_1EG@HNBONIDJ@?$AA_?$AA_?$AAc?$AAr?$AAt?$AA_?$AAs?$AAt?$AAr?$AAt?$AAo?$AAx?$AA?3?$AA?3?$AAp@ 00000001400bf3c0     libucrtd:input.obj
 0002:00013408       ??_C@_1CE@KDGPAKOD@?$AAl?$AAo?$AAc?$AAa?$AAl?$AAe?$AA?5?$AA?$CB?$AA?$DN?$AA?5?$AAn?$AAu?$AAl?$AAl?$AAp@ 00000001400bf408     libucrtd:input.obj
 0002:00013430       ??_C@_1GA@INBNJPHA@?$AAs?$AAi?$AAz?$AAe?$AAo?$AAf?$AA?$CI?$AAF?$AAl?$AAo?$AAa?$AAt?$AAi?$AAn?$AAg@ 00000001400bf430     libucrtd:input.obj
 0002:00013490       ??_C@_1OI@BOLKHOLE@?$AA_?$AA_?$AAc?$AAr?$AAt?$AA_?$AAs?$AAt?$AAd?$AAi?$AAo?$AA_?$AAi?$AAn?$AAp@ 00000001400bf490     libucrtd:input.obj
 0002:00013578       ??_C@_1M@HLGKFCJM@?$AAf?$AAa?$AAl?$AAs?$AAe@ 00000001400bf578     libucrtd:input.obj
 0002:00013584       ?inf_uppercase@?1???$parse_floating_point_possible_infinity@DV?$input_adapter_character_source@V?$string_input_adapter@D@__crt_stdio_input@@@__crt_strtox@@_K@__crt_strtox@@YA?AW4floating_point_parse_result@1@AEADAEAV?$input_adapter_character_source@V?$string_input_adapter@D@__crt_stdio_input@@@1@_K@Z@4QBDB 00000001400bf584     libucrtd:input.obj
 0002:00013588       ?inf_lowercase@?1???$parse_floating_point_possible_infinity@DV?$input_adapter_character_source@V?$string_input_adapter@D@__crt_stdio_input@@@__crt_strtox@@_K@__crt_strtox@@YA?AW4floating_point_parse_result@1@AEADAEAV?$input_adapter_character_source@V?$string_input_adapter@D@__crt_stdio_input@@@1@_K@Z@4QBDB 00000001400bf588     libucrtd:input.obj
 0002:0001358c       ?inity_uppercase@?1???$parse_floating_point_possible_infinity@DV?$input_adapter_character_source@V?$string_input_adapter@D@__crt_stdio_input@@@__crt_strtox@@_K@__crt_strtox@@YA?AW4floating_point_parse_result@1@AEADAEAV?$input_adapter_character_source@V?$string_input_adapter@D@__crt_stdio_input@@@1@_K@Z@4QBDB 00000001400bf58c     libucrtd:input.obj
 0002:00013594       ?inity_lowercase@?1???$parse_floating_point_possible_infinity@DV?$input_adapter_character_source@V?$string_input_adapter@D@__crt_stdio_input@@@__crt_strtox@@_K@__crt_strtox@@YA?AW4floating_point_parse_result@1@AEADAEAV?$input_adapter_character_source@V?$string_input_adapter@D@__crt_stdio_input@@@1@_K@Z@4QBDB 00000001400bf594     libucrtd:input.obj
 0002:0001359c       ?uppercase@?1???$parse_floating_point_possible_nan@DV?$input_adapter_character_source@V?$string_input_adapter@D@__crt_stdio_input@@@__crt_strtox@@_K@__crt_strtox@@YA?AW4floating_point_parse_result@1@AEADAEAV?$input_adapter_character_source@V?$string_input_adapter@D@__crt_stdio_input@@@1@_K@Z@4QBDB 00000001400bf59c     libucrtd:input.obj
 0002:000135a0       ?lowercase@?1???$parse_floating_point_possible_nan@DV?$input_adapter_character_source@V?$string_input_adapter@D@__crt_stdio_input@@@__crt_strtox@@_K@__crt_strtox@@YA?AW4floating_point_parse_result@1@AEADAEAV?$input_adapter_character_source@V?$string_input_adapter@D@__crt_stdio_input@@@1@_K@Z@4QBDB 00000001400bf5a0     libucrtd:input.obj
 0002:000135a4       ?uppercase@?1???$parse_floating_point_possible_nan_is_snan@DV?$input_adapter_character_source@V?$string_input_adapter@D@__crt_stdio_input@@@__crt_strtox@@@__crt_strtox@@YA_NAEADAEAV?$input_adapter_character_source@V?$string_input_adapter@D@__crt_stdio_input@@@1@@Z@4QBDB 00000001400bf5a4     libucrtd:input.obj
 0002:000135ac       ?lowercase@?1???$parse_floating_point_possible_nan_is_snan@DV?$input_adapter_character_source@V?$string_input_adapter@D@__crt_stdio_input@@@__crt_strtox@@@__crt_strtox@@YA_NAEADAEAV?$input_adapter_character_source@V?$string_input_adapter@D@__crt_stdio_input@@@1@@Z@4QBDB 00000001400bf5ac     libucrtd:input.obj
 0002:000135b4       ?uppercase@?1???$parse_floating_point_possible_nan_is_ind@DV?$input_adapter_character_source@V?$string_input_adapter@D@__crt_stdio_input@@@__crt_strtox@@@__crt_strtox@@YA_NAEADAEAV?$input_adapter_character_source@V?$string_input_adapter@D@__crt_stdio_input@@@1@@Z@4QBDB 00000001400bf5b4     libucrtd:input.obj
 0002:000135b8       ?lowercase@?1???$parse_floating_point_possible_nan_is_ind@DV?$input_adapter_character_source@V?$string_input_adapter@D@__crt_stdio_input@@@__crt_strtox@@@__crt_strtox@@YA_NAEADAEAV?$input_adapter_character_source@V?$string_input_adapter@D@__crt_stdio_input@@@1@@Z@4QBDB 00000001400bf5b8     libucrtd:input.obj
 0002:000135c0       ??_C@_1CM@GJENOOEJ@?$AAc?$AA?5?$AA?$DN?$AA?$DN?$AA?5?$AA?8?$AA?2?$AA0?$AA?8?$AA?5?$AA?$HM?$AA?$HM?$AA?5?$AA?$CK?$AA_@ 00000001400bf5c0     libucrtd:atox.obj
 0002:000135f0       ??_C@_1HA@CONLANFI@?$AA_?$AA_?$AAc?$AAr?$AAt?$AA_?$AAs?$AAt?$AAr?$AAt?$AAo?$AAx?$AA?3?$AA?3?$AAc@ 00000001400bf5f0     libucrtd:atox.obj
 0002:00013660       ??_C@_1BM@PNEBBBDO@?$AA_?$AAp?$AA?5?$AA?$CB?$AA?$DN?$AA?5?$AAn?$AAu?$AAl?$AAl?$AAp?$AAt?$AAr@ 00000001400bf660     libucrtd:atox.obj
 0002:00013680       ??_C@_1HG@FCDBLOEG@?$AA_?$AA_?$AAc?$AAr?$AAt?$AA_?$AAs?$AAt?$AAr?$AAt?$AAo?$AAx?$AA?3?$AA?3?$AAc@ 00000001400bf680     libucrtd:atox.obj
 0002:00013700       ??_C@_1GK@MNHIDABG@?$AA_?$AA_?$AAc?$AAr?$AAt?$AA_?$AAs?$AAt?$AAr?$AAt?$AAo?$AAx?$AA?3?$AA?3?$AAc@ 00000001400bf700     libucrtd:atox.obj
 0002:00013770       ??_C@_1HA@MKKIHBHP@?$AA_?$AA_?$AAc?$AAr?$AAt?$AA_?$AAs?$AAt?$AAr?$AAt?$AAo?$AAx?$AA?3?$AA?3?$AAc@ 00000001400bf770     libucrtd:atox.obj
 0002:000137e0       ??_C@_1FE@LHBLIKM@?$AAA?$AAs?$AAs?$AAe?$AAr?$AAt?$AAi?$AAo?$AAn?$AA?5?$AAf?$AAa?$AAi?$AAl?$AAe@ 00000001400bf7e0     libucrtd:assert.obj
 0002:00013840       ??_C@_1EK@MBDPDCGA@?$AAM?$AAi?$AAc?$AAr?$AAo?$AAs?$AAo?$AAf?$AAt?$AA?5?$AAV?$AAi?$AAs?$AAu?$AAa@ 00000001400bf840     libucrtd:assert.obj
 0002:00013890       ??_C@_0BC@LAIDCHCH@Assertion?5failed?$CB@ 00000001400bf890     libucrtd:assert.obj
 0002:000138a8       ??_C@_1CE@OJBNHDMO@?$AAA?$AAs?$AAs?$AAe?$AAr?$AAt?$AAi?$AAo?$AAn?$AA?5?$AAf?$AAa?$AAi?$AAl?$AAe@ 00000001400bf8a8     libucrtd:assert.obj
 0002:000138d0       ??_C@_1BE@PHKBBGE@?$AAP?$AAr?$AAo?$AAg?$AAr?$AAa?$AAm?$AA?3?$AA?5@ 00000001400bf8d0     libucrtd:assert.obj
 0002:000138e8       ??_C@_1O@HEMHKNDC@?$AAF?$AAi?$AAl?$AAe?$AA?3?$AA?5@ 00000001400bf8e8     libucrtd:assert.obj
 0002:000138f8       ??_C@_1O@KCAFKHJE@?$AAL?$AAi?$AAn?$AAe?$AA?3?$AA?5@ 00000001400bf8f8     libucrtd:assert.obj
 0002:00013908       ??_C@_1BK@PEDCIPMA@?$AAE?$AAx?$AAp?$AAr?$AAe?$AAs?$AAs?$AAi?$AAo?$AAn?$AA?3?$AA?5@ 00000001400bf908     libucrtd:assert.obj
 0002:00013930       ??_C@_1OA@EGMLFBHJ@?$AAF?$AAo?$AAr?$AA?5?$AAi?$AAn?$AAf?$AAo?$AAr?$AAm?$AAa?$AAt?$AAi?$AAo?$AAn@ 00000001400bf930     libucrtd:assert.obj
 0002:00013a10       ??_C@_1HK@POCJMFGK@?$AA?$CI?$AAP?$AAr?$AAe?$AAs?$AAs?$AA?5?$AAR?$AAe?$AAt?$AAr?$AAy?$AA?5?$AAt?$AAo@ 00000001400bfa10     libucrtd:assert.obj
 0002:00013a90       ??_C@_17LGKOMLJ@?$AA?4?$AA?4?$AA?4@ 00000001400bfa90     libucrtd:assert.obj
 0002:00013a98       ??_C@_01EEMJAFIK@?6@       00000001400bfa98     libucrtd:assert.obj
 0002:00013a9c       ??_C@_13LBAGMAIH@?$AA?6@   00000001400bfa9c     libucrtd:assert.obj
 0002:00013aa0       ??_C@_15IABLJNFO@?$AA?6?$AA?6@ 00000001400bfaa0     libucrtd:assert.obj
 0002:00013aa8       ??_C@_0BH@DNAGHKFM@?$DMprogram?5name?5unknown?$DO@ 00000001400bfaa8     libucrtd:assert.obj
 0002:00013ac0       ??_C@_1CO@EAEJAADC@?$AA?$DM?$AAp?$AAr?$AAo?$AAg?$AAr?$AAa?$AAm?$AA?5?$AAn?$AAa?$AAm?$AAe?$AA?5?$AAu@ 00000001400bfac0     libucrtd:assert.obj
 0002:00013af0       ??_C@_1GE@PMLOPPED@?$AAm?$AAi?$AAn?$AAk?$AAe?$AAr?$AAn?$AAe?$AAl?$AA?2?$AAc?$AAr?$AAt?$AAs?$AA?2@ 00000001400bfaf0     libucrtd:assert.obj
 0002:00013b60       ??_C@_1FE@LPBNNEBB@?$AAc?$AAo?$AAm?$AAm?$AAo?$AAn?$AA_?$AAa?$AAs?$AAs?$AAe?$AAr?$AAt?$AA_?$AAt@ 00000001400bfb60     libucrtd:assert.obj
 0002:00013bc0       ??_C@_1KC@PIMENJIN@?$AAt?$AAr?$AAa?$AAi?$AAt?$AAs?$AA?3?$AA?3?$AAt?$AAc?$AAs?$AAc?$AAp?$AAy?$AA_@ 00000001400bfbc0     libucrtd:assert.obj
 0002:00013c70       ??_C@_1KM@HGCBPADM@?$AAt?$AAr?$AAa?$AAi?$AAt?$AAs?$AA?3?$AA?3?$AAt?$AAc?$AAs?$AAc?$AAa?$AAt?$AA_@ 00000001400bfc70     libucrtd:assert.obj
 0002:00013d20       ??_C@_1KK@KDENILFB@?$AAt?$AAr?$AAa?$AAi?$AAt?$AAs?$AA?3?$AA?3?$AAt?$AAc?$AAs?$AAc?$AAa?$AAt?$AA_@ 00000001400bfd20     libucrtd:assert.obj
 0002:00013dd0       ??_C@_1PE@ECNALGCA@?$AAt?$AAr?$AAa?$AAi?$AAt?$AAs?$AA?3?$AA?3?$AAt?$AAc?$AAs?$AAc?$AAp?$AAy?$AA_@ 00000001400bfdd0     libucrtd:assert.obj
 0002:00013ed0       ??_C@_1BCM@OLNPCNDL@?$AAm?$AAe?$AAm?$AAc?$AAp?$AAy?$AA_?$AAs?$AA?$CI?$AA?5?$AAp?$AAc?$AAh?$AAP?$AAr@ 00000001400bfed0     libucrtd:assert.obj
 0002:00014000       ??_C@_1HM@LGKHMJCC@?$AAt?$AAr?$AAa?$AAi?$AAt?$AAs?$AA?3?$AA?3?$AAt?$AAc?$AAs?$AAc?$AAa?$AAt?$AA_@ 00000001400c0000     libucrtd:assert.obj
 0002:00014080       ??_C@_1JO@KJEGDHLC@?$AAt?$AAr?$AAa?$AAi?$AAt?$AAs?$AA?3?$AA?3?$AAt?$AAc?$AAs?$AAc?$AAa?$AAt?$AA_@ 00000001400c0080     libucrtd:assert.obj
 0002:00014120       ??_C@_1KE@NJCNOBGA@?$AAt?$AAr?$AAa?$AAi?$AAt?$AAs?$AA?3?$AA?3?$AAt?$AAc?$AAs?$AAc?$AAa?$AAt?$AA_@ 00000001400c0120     libucrtd:assert.obj
 0002:000141d0       ??_C@_1LC@HKLLCKBM@?$AAt?$AAr?$AAa?$AAi?$AAt?$AAs?$AA?3?$AA?3?$AAt?$AAc?$AAs?$AAn?$AAc?$AAa?$AAt@ 00000001400c01d0     libucrtd:assert.obj
 0002:00014290       ??_C@_1KI@JBNHIIKF@?$AAt?$AAr?$AAa?$AAi?$AAt?$AAs?$AA?3?$AA?3?$AAt?$AAc?$AAs?$AAc?$AAa?$AAt?$AA_@ 00000001400c0290     libucrtd:assert.obj
 0002:00014340       ??_C@_1IK@KKBPPOFO@?$AAt?$AAr?$AAa?$AAi?$AAt?$AAs?$AA?3?$AA?3?$AAt?$AAc?$AAs?$AAc?$AAa?$AAt?$AA_@ 00000001400c0340     libucrtd:assert.obj
 0002:000143d0       ??_C@_1LO@BFIEBOKI@?$AAt?$AAr?$AAa?$AAi?$AAt?$AAs?$AA?3?$AA?3?$AAt?$AAc?$AAs?$AAn?$AAc?$AAa?$AAt@ 00000001400c03d0     libucrtd:assert.obj
 0002:00014490       ??_C@_1KE@OEANDPDB@?$AAt?$AAr?$AAa?$AAi?$AAt?$AAs?$AA?3?$AA?3?$AAt?$AAc?$AAs?$AAn?$AAc?$AAa?$AAt@ 00000001400c0490     libucrtd:assert.obj
 0002:00014540       ??_C@_1LG@LMABGFBP@?$AAt?$AAr?$AAa?$AAi?$AAt?$AAs?$AA?3?$AA?3?$AAt?$AAc?$AAs?$AAc?$AAa?$AAt?$AA_@ 00000001400c0540     libucrtd:assert.obj
 0002:00014600       ??_C@_1IA@JPAKIPAA@?$AAt?$AAr?$AAa?$AAi?$AAt?$AAs?$AA?3?$AA?3?$AAt?$AAc?$AAs?$AAc?$AAa?$AAt?$AA_@ 00000001400c0600     libucrtd:assert.obj
 0002:00014680       ??_C@_1KE@PADDJOL@?$AAt?$AAr?$AAa?$AAi?$AAt?$AAs?$AA?3?$AA?3?$AAt?$AAc?$AAs?$AAc?$AAa?$AAt?$AA_@ 00000001400c0680     libucrtd:assert.obj
 0002:00014730       ??_C@_1BAK@NPHNFBPH@?$AAt?$AAr?$AAa?$AAi?$AAt?$AAs?$AA?3?$AA?3?$AAi?$AAt?$AAo?$AAt?$AA_?$AAs?$AA?$CI@ 00000001400c0730     libucrtd:assert.obj
 0002:00014840       ??_C@_1LA@JOKMAPHG@?$AAt?$AAr?$AAa?$AAi?$AAt?$AAs?$AA?3?$AA?3?$AAt?$AAc?$AAs?$AAc?$AAa?$AAt?$AA_@ 00000001400c0840     libucrtd:assert.obj
 0002:000148f0       ??_C@_1LA@IFFOJJCK@?$AAt?$AAr?$AAa?$AAi?$AAt?$AAs?$AA?3?$AA?3?$AAt?$AAc?$AAs?$AAn?$AAc?$AAa?$AAt@ 00000001400c08f0     libucrtd:assert.obj
 0002:000149a0       ??_C@_1KG@MFCBNPOK@?$AAt?$AAr?$AAa?$AAi?$AAt?$AAs?$AA?3?$AA?3?$AAt?$AAc?$AAs?$AAc?$AAa?$AAt?$AA_@ 00000001400c09a0     libucrtd:assert.obj
 0002:00014a50       ??_C@_1IC@EDHOAOJ@?$AAt?$AAr?$AAa?$AAi?$AAt?$AAs?$AA?3?$AA?3?$AAt?$AAc?$AAs?$AAc?$AAa?$AAt?$AA_@ 00000001400c0a50     libucrtd:assert.obj
 0002:00014ae0       ??_C@_1KE@NALOKOIG@?$AAt?$AAr?$AAa?$AAi?$AAt?$AAs?$AA?3?$AA?3?$AAt?$AAc?$AAs?$AAc?$AAa?$AAt?$AA_@ 00000001400c0ae0     libucrtd:assert.obj
 0002:00014b90       ??_C@_1KE@GGOFBC@?$AAt?$AAr?$AAa?$AAi?$AAt?$AAs?$AA?3?$AA?3?$AAt?$AAc?$AAs?$AAc?$AAa?$AAt?$AA_@ 00000001400c0b90     libucrtd:assert.obj
 0002:00014c58       ??_C@_04PDIFKINK@acos@     00000001400c0c58     libucrtd:acos.obj
 0002:00014c60       __real@3f0951665d321061    00000001400c0c60     libucrtd:acos.obj
 0002:00014c68       __real@3f51e5f887a62135    00000001400c0c68     libucrtd:acos.obj
 0002:00014c70       __real@3fbb1a422982ce76    00000001400c0c70     libucrtd:acos.obj
 0002:00014c78       __real@3fcd1e4180029834    00000001400c0c78     libucrtd:acos.obj
 0002:00014c80       __real@3fd1a2bec1b7ef59    00000001400c0c80     libucrtd:acos.obj
 0002:00014c88       __real@3ff5d6b12001f228    00000001400c0c88     libucrtd:acos.obj
 0002:00014c90       __real@40062021571dccfc    00000001400c0c90     libucrtd:acos.obj
 0002:00014c98       __real@bfac28d390c29690    00000001400c0c98     libucrtd:acos.obj
 0002:00014ca0       __real@bfdc7b297e269eac    00000001400c0ca0     libucrtd:acos.obj
 0002:00014ca8       __real@bfee324ab418f78d    00000001400c0ca8     libucrtd:acos.obj
 0002:00014cb0       __real@bff0000000000000    00000001400c0cb0     libucrtd:acos.obj
 0002:00014cb8       __real@c00a4646f903cdea    00000001400c0cb8     libucrtd:acos.obj
 0002:00014ce0       ??_C@_05FFFCHCED@acosf@    00000001400c0ce0     libucrtd:acosf.obj
 0002:00014ce8       __real@3b81ce6b            00000001400c0ce8     libucrtd:acosf.obj
 0002:00014cec       __real@3e3c94dc            00000001400c0cec     libucrtd:acosf.obj
 0002:00014cf0       __real@3f561f0d            00000001400c0cf0     libucrtd:acosf.obj
 0002:00014cf4       __real@3f8d6fa5            00000001400c0cf4     libucrtd:acosf.obj
 0002:00014cf8       __real@bc5b3fe1            00000001400c0cf8     libucrtd:acosf.obj
 0002:00014cfc       __real@bd678bdd            00000001400c0cfc     libucrtd:acosf.obj
 0002:00016460       ??_C@_04EIAKFFMI@sqrt@     00000001400c2460     libucrtd:sqrt.obj
 0002:00016468       ??_C@_05KGFAIMPG@sqrtf@    00000001400c2468     libucrtd:sqrtf.obj
 0002:00016560       __acrt_exception_action_table 00000001400c2560     libucrtd:exception_filter.obj
 0002:00016620       __acrt_signal_action_table_count 00000001400c2620     libucrtd:exception_filter.obj
 0002:00016628       __acrt_signal_action_first_fpe_index 00000001400c2628     libucrtd:exception_filter.obj
 0002:00016630       __acrt_signal_action_fpe_count 00000001400c2630     libucrtd:exception_filter.obj
 0002:00016640       ??_C@_1IC@DCNEKBE@?$AAm?$AAi?$AAn?$AAk?$AAe?$AAr?$AAn?$AAe?$AAl?$AA?2?$AAc?$AAr?$AAt?$AAs?$AA?2@ 00000001400c2640     libucrtd:report_runtime_error.obj
 0002:000166c8       ??_C@_1DI@BLFJHKKP@?$AA_?$AA_?$AAa?$AAc?$AAr?$AAt?$AA_?$AAr?$AAe?$AAp?$AAo?$AAr?$AAt?$AA_?$AAr@ 00000001400c26c8     libucrtd:report_runtime_error.obj
 0002:00016700       ??_C@_1LE@MHPGJGKE@?$AAw?$AAc?$AAs?$AAc?$AAp?$AAy?$AA_?$AAs?$AA?$CI?$AAo?$AAu?$AAt?$AAm?$AAs?$AAg@ 00000001400c2700     libucrtd:report_runtime_error.obj
 0002:000167b8       ??_C@_1DE@JNGNBFGO@?$AAR?$AAu?$AAn?$AAt?$AAi?$AAm?$AAe?$AA?5?$AAE?$AAr?$AAr?$AAo?$AAr?$AA?$CB?$AA?6@ 00000001400c27b8     libucrtd:report_runtime_error.obj
 0002:000167f0       ??_C@_1HK@FJJNAABO@?$AAw?$AAc?$AAs?$AAc?$AAp?$AAy?$AA_?$AAs?$AA?$CI?$AAp?$AAr?$AAo?$AAg?$AAn?$AAa@ 00000001400c27f0     libucrtd:report_runtime_error.obj
 0002:00016870       ??_C@_1HI@FLHKGEBE@?$AAw?$AAc?$AAs?$AAn?$AAc?$AAp?$AAy?$AA_?$AAs?$AA?$CI?$AAp?$AAc?$AAh?$AA?0?$AA?5@ 00000001400c2870     libucrtd:report_runtime_error.obj
 0002:000168f0       ??_C@_1IG@MNNKBLBI@?$AAw?$AAc?$AAs?$AAc?$AAa?$AAt?$AA_?$AAs?$AA?$CI?$AAo?$AAu?$AAt?$AAm?$AAs?$AAg@ 00000001400c28f0     libucrtd:report_runtime_error.obj
 0002:00016980       ??_C@_1IG@DFBBBDAN@?$AAw?$AAc?$AAs?$AAc?$AAa?$AAt?$AA_?$AAs?$AA?$CI?$AAo?$AAu?$AAt?$AAm?$AAs?$AAg@ 00000001400c2980     libucrtd:report_runtime_error.obj
 0002:00016a08       ??_C@_0DI@KNDIGDEP@minkernel?2crts?2ucrt?2src?2appcrt?2@ 00000001400c2a08     libucrtd:argv_parsing.obj
 0002:00016a40       ??_C@_1JO@PGBIJBAM@?$AAm?$AAo?$AAd?$AAe?$AA?5?$AA?$DN?$AA?$DN?$AA?5?$AA_?$AAc?$AAr?$AAt?$AA_?$AAa?$AAr@ 00000001400c2a40     libucrtd:argv_parsing.obj
 0002:00016ae0       ??_C@_1HA@JMLCANEE@?$AAm?$AAi?$AAn?$AAk?$AAe?$AAr?$AAn?$AAe?$AAl?$AA?2?$AAc?$AAr?$AAt?$AAs?$AA?2@ 00000001400c2ae0     libucrtd:argv_parsing.obj
 0002:00016b50       ??_C@_1CM@LHOJELIC@?$AAc?$AAo?$AAm?$AAm?$AAo?$AAn?$AA_?$AAc?$AAo?$AAn?$AAf?$AAi?$AAg?$AAu?$AAr@ 00000001400c2b50     libucrtd:argv_parsing.obj
 0002:00016b80       ??_C@_0EG@LEHKHOEH@minkernel?2crts?2ucrt?2src?2desktop@ 00000001400c2b80     libucrtd:environment_initialization.obj
 0002:00016bd0       ??_C@_1IM@IMOFFPLG@?$AAm?$AAi?$AAn?$AAk?$AAe?$AAr?$AAn?$AAe?$AAl?$AA?2?$AAc?$AAr?$AAt?$AAs?$AA?2@ 00000001400c2bd0     libucrtd:environment_initialization.obj
 0002:00016c60       ??_C@_1CG@MNNNBNAK@?$AAc?$AAr?$AAe?$AAa?$AAt?$AAe?$AA_?$AAe?$AAn?$AAv?$AAi?$AAr?$AAo?$AAn?$AAm@ 00000001400c2c60     libucrtd:environment_initialization.obj
 0002:00016c90       ??_C@_1HI@OOPIFFGA@?$AAt?$AAr?$AAa?$AAi?$AAt?$AAs?$AA?3?$AA?3?$AAt?$AAc?$AAs?$AAc?$AAp?$AAy?$AA_@ 00000001400c2c90     libucrtd:environment_initialization.obj
 0002:00016d08       ??_C@_1BI@BGOHAHKC@?$AAm?$AAs?$AAc?$AAo?$AAr?$AAe?$AAe?$AA?4?$AAd?$AAl?$AAl@ 00000001400c2d08     libucrtd:exit.obj
 0002:00016d20       ??_C@_0P@MIGLKIOC@CorExitProcess@ 00000001400c2d20     libucrtd:exit.obj
 0002:00016d30       ??_C@_1GC@CIJNGKLD@?$AAm?$AAi?$AAn?$AAk?$AAe?$AAr?$AAn?$AAe?$AAl?$AA?2?$AAc?$AAr?$AAt?$AAs?$AA?2@ 00000001400c2d30     libucrtd:setmode.obj
 0002:00016da0       ??_C@_1FO@LPCLHKGE@?$AA?$CI?$AAf?$AAh?$AA?5?$AA?$DO?$AA?$DN?$AA?5?$AA0?$AA?5?$AA?$CG?$AA?$CG?$AA?5?$AA?$CI?$AAu?$AAn@ 00000001400c2da0     libucrtd:setmode.obj
 0002:00016e00       ??_C@_1CM@OKGMMMDH@?$AA?$CI?$AA_?$AAo?$AAs?$AAf?$AAi?$AAl?$AAe?$AA?$CI?$AAf?$AAh?$AA?$CJ?$AA?5?$AA?$CG?$AA?5@ 00000001400c2e00     libucrtd:setmode.obj
 0002:00016e30       ??_C@_1JE@ECKHFIFP@?$AA?$CI?$AA?$CC?$AAI?$AAn?$AAv?$AAa?$AAl?$AAi?$AAd?$AA?5?$AAf?$AAi?$AAl?$AAe?$AA?5@ 00000001400c2e30     libucrtd:setmode.obj
 0002:00016ed0       ??_C@_1HC@GNDCDMJL@?$AAm?$AAo?$AAd?$AAe?$AA?5?$AA?$DN?$AA?$DN?$AA?5?$AA_?$AAO?$AA_?$AAT?$AAE?$AAX?$AAT@ 00000001400c2ed0     libucrtd:setmode.obj
 0002:00016f48       ??_C@_1BG@IEEHLOCL@?$AA_?$AAs?$AAe?$AAt?$AA_?$AAf?$AAm?$AAo?$AAd?$AAe@ 00000001400c2f48     libucrtd:setmode.obj
 0002:00016f60       ??_C@_1CC@ODGEBJBO@?$AAp?$AAM?$AAo?$AAd?$AAe?$AA?5?$AA?$CB?$AA?$DN?$AA?5?$AAn?$AAu?$AAl?$AAl?$AAp?$AAt@ 00000001400c2f60     libucrtd:setmode.obj
 0002:00016f88       ??_C@_1BG@CKGMPOFH@?$AA_?$AAg?$AAe?$AAt?$AA_?$AAf?$AAm?$AAo?$AAd?$AAe@ 00000001400c2f88     libucrtd:setmode.obj
 0002:00016fa0       ??_C@_1GA@LDEGDKD@?$AA?$CI?$AA?$CC?$AAI?$AAn?$AAv?$AAa?$AAl?$AAi?$AAd?$AA?5?$AAp?$AAa?$AAr?$AAa?$AAm@ 00000001400c2fa0     libucrtd:wsetlocale.obj
 0002:00017000       ??_C@_1GK@DPKNLBIE@?$AAm?$AAi?$AAn?$AAk?$AAe?$AAr?$AAn?$AAe?$AAl?$AA?2?$AAc?$AAr?$AAt?$AAs?$AA?2@ 00000001400c3000     libucrtd:wsetlocale.obj
 0002:00017070       ??_C@_1CI@FGIONOJM@?$AA_?$AAc?$AAo?$AAn?$AAf?$AAi?$AAg?$AAt?$AAh?$AAr?$AAe?$AAa?$AAd?$AAl?$AAo@ 00000001400c3070     libucrtd:wsetlocale.obj
 0002:00017098       ??_C@_1CO@JKFLNGDK@?$AAm?$AAo?$AAd?$AAe?$AA?5?$AA?$DN?$AA?$DN?$AA?5?$AA0?$AA?5?$AA?$HM?$AA?$HM?$AA?5?$AAm?$AAo@ 00000001400c3098     libucrtd:new_mode.obj
 0002:000170d0       ??_C@_1GC@PJMKBHEK@?$AAm?$AAi?$AAn?$AAk?$AAe?$AAr?$AAn?$AAe?$AAl?$AA?2?$AAc?$AAr?$AAt?$AAs?$AA?2@ 00000001400c30d0     libucrtd:new_mode.obj
 0002:00017138       ??_C@_1BM@PDPAKJNF@?$AA_?$AAs?$AAe?$AAt?$AA_?$AAn?$AAe?$AAw?$AA_?$AAm?$AAo?$AAd?$AAe@ 00000001400c3138     libucrtd:new_mode.obj
 0002:00017180       ??_C@_0DC@NBHMIIKL@minkernel?2crts?2ucrt?2src?2appcrt?2@ 00000001400c3180     libucrtd:onexit.obj
 0002:000172e8       ??_C@_04HJMOFLDF@Free@     00000001400c32e8     libucrtd:debug_heap.obj
 0002:000172f0       ??_C@_06EFAGIKOH@Normal@   00000001400c32f0     libucrtd:debug_heap.obj
 0002:000172f8       ??_C@_03OGPFLFLO@CRT@      00000001400c32f8     libucrtd:debug_heap.obj
 0002:000172fc       ??_C@_06KMEJCCGM@Ignore@   00000001400c32fc     libucrtd:debug_heap.obj
 0002:00017304       ??_C@_06PJIGMIJB@Client@   00000001400c3304     libucrtd:debug_heap.obj
 0002:00017310       ??_C@_1CE@LJFEPPMP@?$AA_?$AAC?$AAr?$AAt?$AAC?$AAh?$AAe?$AAc?$AAk?$AAM?$AAe?$AAm?$AAo?$AAr?$AAy@ 00000001400c3310     libucrtd:debug_heap.obj
 0002:00017340       ??_C@_1GG@OCLHPJPK@?$AAm?$AAi?$AAn?$AAk?$AAe?$AAr?$AAn?$AAe?$AAl?$AA?2?$AAc?$AAr?$AAt?$AAs?$AA?2@ 00000001400c3340     libucrtd:debug_heap.obj
 0002:000173a8       ??_C@_0DF@BBEGIFEK@Client?5hook?5allocation?5failure?5@ 00000001400c33a8     libucrtd:debug_heap.obj
 0002:000173e0       ??_C@_0CB@CCLOLAHO@Client?5hook?5allocation?5failure?4@ 00000001400c33e0     libucrtd:debug_heap.obj
 0002:00017408       ??_C@_0DC@JEMAGEKG@Error?3?5memory?5allocation?3?5bad?5m@ 00000001400c3408     libucrtd:debug_heap.obj
 0002:00017440       ??_C@_0DI@KKJPDPGM@Client?5hook?5re?9allocation?5failu@ 00000001400c3440     libucrtd:debug_heap.obj
 0002:00017478       ??_C@_0CE@DOFMDOL@Client?5hook?5re?9allocation?5failu@ 00000001400c3478     libucrtd:debug_heap.obj
 0002:000174a0       ??_C@_0FA@EFEIGJKG@Error?3?5memory?5allocation?3?5bad?5m@ 00000001400c34a0     libucrtd:debug_heap.obj
 0002:000174f0       ??_C@_0EM@LGFLMAGJ@The?5Block?5at?50x?$CFp?5was?5allocated@ 00000001400c34f0     libucrtd:debug_heap.obj
 0002:00017540       ??_C@_1DM@DEDLGNML@?$AA_?$AAC?$AAr?$AAt?$AAI?$AAs?$AAV?$AAa?$AAl?$AAi?$AAd?$AAH?$AAe?$AAa?$AAp@ 00000001400c3540     libucrtd:debug_heap.obj
 0002:00017580       ??_C@_1PC@MCGKJLN@?$AAo?$AAl?$AAd?$AA_?$AAh?$AAe?$AAa?$AAd?$AA?9?$AA?$DO?$AA_?$AAl?$AAi?$AAn?$AAe@ 00000001400c3580     libucrtd:debug_heap.obj
 0002:00017678       ??_C@_0DA@HFBKENN@Error?3?5possible?5heap?5corruption@ 00000001400c3678     libucrtd:debug_heap.obj
 0002:000176b0       ??_C@_1JM@MCMEPJEP@?$AAr?$AAe?$AAa?$AAl?$AAl?$AAo?$AAc?$AAa?$AAt?$AAi?$AAo?$AAn?$AA_?$AAi?$AAs@ 00000001400c36b0     libucrtd:debug_heap.obj
 0002:00017750       ??_C@_1DM@LNOPKAIJ@?$AA_?$AA_?$AAa?$AAc?$AAr?$AAt?$AA_?$AAl?$AAa?$AAs?$AAt?$AA_?$AAb?$AAl?$AAo@ 00000001400c3750     libucrtd:debug_heap.obj
 0002:00017790       ??_C@_1DO@HABCJBHO@?$AA_?$AA_?$AAa?$AAc?$AAr?$AAt?$AA_?$AAf?$AAi?$AAr?$AAs?$AAt?$AA_?$AAb?$AAl@ 00000001400c3790     libucrtd:debug_heap.obj
 0002:000177d0       ??_C@_1CC@CKEAHJPH@?$AAb?$AAl?$AAo?$AAc?$AAk?$AA?5?$AA?$CB?$AA?$DN?$AA?5?$AAn?$AAu?$AAl?$AAl?$AAp?$AAt@ 00000001400c37d0     libucrtd:debug_heap.obj
 0002:00017800       ??_C@_0EJ@HEIBCIMJ@The?5Block?5at?50x?$CFp?5was?5allocated@ 00000001400c3800     libucrtd:debug_heap.obj
 0002:00017850       ??_C@_0BL@KEIPLFAC@Client?5hook?5free?5failure?4?6@ 00000001400c3850     libucrtd:debug_heap.obj
 0002:00017870       ??_C@_1FA@KDNEBILF@?$AAi?$AAs?$AA_?$AAb?$AAl?$AAo?$AAc?$AAk?$AA_?$AAt?$AAy?$AAp?$AAe?$AA_?$AAv@ 00000001400c3870     libucrtd:debug_heap.obj
 0002:000178c0       ??_C@_0KI@JGFOHMEB@HEAP?5CORRUPTION?5DETECTED?3?5befor@ 00000001400c38c0     libucrtd:debug_heap.obj
 0002:00017970       ??_C@_0IK@PJCGLBOB@HEAP?5CORRUPTION?5DETECTED?3?5befor@ 00000001400c3970     libucrtd:debug_heap.obj
 0002:00017a00       ??_C@_0KE@MBMNHHHN@HEAP?5CORRUPTION?5DETECTED?3?5after@ 00000001400c3a00     libucrtd:debug_heap.obj
 0002:00017ab0       ??_C@_0IG@LEMBDCJK@HEAP?5CORRUPTION?5DETECTED?3?5after@ 00000001400c3ab0     libucrtd:debug_heap.obj
 0002:00017b40       ??_C@_1OK@GFEOEJAF@?$AAh?$AAe?$AAa?$AAd?$AAe?$AAr?$AA?9?$AA?$DO?$AA_?$AAl?$AAi?$AAn?$AAe?$AA_?$AAn@ 00000001400c3b40     libucrtd:debug_heap.obj
 0002:00017c30       ??_C@_1ME@GFALMLNA@?$AAh?$AAe?$AAa?$AAd?$AAe?$AAr?$AA?9?$AA?$DO?$AA_?$AAb?$AAl?$AAo?$AAc?$AAk?$AA_@ 00000001400c3c30     libucrtd:debug_heap.obj
 0002:00017cf8       ??_C@_1DI@ILNOPEPI@?$AA_?$AA_?$AAa?$AAc?$AAr?$AAt?$AA_?$AAl?$AAa?$AAs?$AAt?$AA_?$AAb?$AAl?$AAo@ 00000001400c3cf8     libucrtd:debug_heap.obj
 0002:00017d30       ??_C@_1DK@KEHFGDIJ@?$AA_?$AA_?$AAa?$AAc?$AAr?$AAt?$AA_?$AAf?$AAi?$AAr?$AAs?$AAt?$AA_?$AAb?$AAl@ 00000001400c3d30     libucrtd:debug_heap.obj
 0002:00017d70       ??_C@_1BG@MBKOGDLD@?$AA_?$AAm?$AAs?$AAi?$AAz?$AAe?$AA_?$AAd?$AAb?$AAg@ 00000001400c3d70     libucrtd:debug_heap.obj
 0002:00017d88       ??_C@_07OHKEFPKJ@DAMAGED@  00000001400c3d88     libucrtd:debug_heap.obj
 0002:00017d90       ??_C@_0KA@IHNJJKPL@HEAP?5CORRUPTION?5DETECTED?3?5on?5to@ 00000001400c3d90     libucrtd:debug_heap.obj
 0002:00017e30       ??_C@_0IC@BBJIOOJH@HEAP?5CORRUPTION?5DETECTED?3?5on?5to@ 00000001400c3e30     libucrtd:debug_heap.obj
 0002:00017ec0       ??_C@_0EG@DGJMPDBH@?$CFhs?5located?5at?50x?$CFp?5is?5?$CFIu?5byte@ 00000001400c3ec0     libucrtd:debug_heap.obj
 0002:00017f08       ??_C@_0CI@JMLBEDHJ@?$CFhs?5located?5at?50x?$CFp?5is?5?$CFIu?5byte@ 00000001400c3f08     libucrtd:debug_heap.obj
 0002:00017f30       ??_C@_0EG@GPFHANHO@Cycle?5in?5block?5list?5detected?5wh@ 00000001400c3f30     libucrtd:debug_heap.obj
 0002:00017f78       ??_C@_0BJ@ELMAOCAJ@Heap?5validation?5failed?4?6@ 00000001400c3f78     libucrtd:debug_heap.obj
 0002:00017fa0       ??_C@_1IE@BBIFDGEB@?$AAn?$AAe?$AAw?$AA_?$AAb?$AAi?$AAt?$AAs?$AA?5?$AA?$DN?$AA?$DN?$AA?5?$AA_?$AAC?$AAR@ 00000001400c3fa0     libucrtd:debug_heap.obj
 0002:00018028       ??_C@_1BO@GJFDNMNF@?$AA_?$AAC?$AAr?$AAt?$AAS?$AAe?$AAt?$AAD?$AAb?$AAg?$AAF?$AAl?$AAa?$AAg@ 00000001400c4028     libucrtd:debug_heap.obj
 0002:00018048       ??_C@_1CC@BBKMONGA@?$AAs?$AAt?$AAa?$AAt?$AAe?$AA?5?$AA?$CB?$AA?$DN?$AA?5?$AAn?$AAu?$AAl?$AAl?$AAp?$AAt@ 00000001400c4048     libucrtd:debug_heap.obj
 0002:00018070       ??_C@_1CE@NJJKELF@?$AA_?$AAC?$AAr?$AAt?$AAM?$AAe?$AAm?$AAC?$AAh?$AAe?$AAc?$AAk?$AAp?$AAo?$AAi@ 00000001400c4070     libucrtd:debug_heap.obj
 0002:00018098       ??_C@_0DP@LEFMFBOD@Bad?5memory?5block?5found?5at?50x?$CFp?4@ 00000001400c4098     libucrtd:debug_heap.obj
 0002:000180d8       ??_C@_0CB@EAAIGELO@Bad?5memory?5block?5found?5at?50x?$CFp?4@ 00000001400c40d8     libucrtd:debug_heap.obj
 0002:000180fc       ??_C@_05MKKEDADM@?$CF?42X?5@ 00000001400c40fc     libucrtd:debug_heap.obj
 0002:00018108       ??_C@_1CC@DIJAHFFJ@?$AAp?$AAr?$AAi?$AAn?$AAt?$AA_?$AAb?$AAl?$AAo?$AAc?$AAk?$AA_?$AAd?$AAa?$AAt@ 00000001400c4108     libucrtd:debug_heap.obj
 0002:00018130       ??_C@_1BI@KALLJECN@?$AA?$CI?$AA?$CK?$AA_?$AAe?$AAr?$AAr?$AAn?$AAo?$AA?$CI?$AA?$CJ?$AA?$CJ@ 00000001400c4130     libucrtd:debug_heap.obj
 0002:00018148       ??_C@_0BA@HJBKCELP@?5Data?3?5?$DM?$CFs?$DO?5?$CFs?6@ 00000001400c4148     libucrtd:debug_heap.obj
 0002:00018158       ??_C@_0BE@KCIPKCIA@Dumping?5objects?5?9?$DO?6@ 00000001400c4158     libucrtd:debug_heap.obj
 0002:00018170       ??_C@_0BE@OIEFNFL@?$CDFile?5Error?$CD?$CI?$CFd?$CJ?5?3?5@ 00000001400c4170     libucrtd:debug_heap.obj
 0002:00018188       ??_C@_0L@JMEFFCCJ@?$CFhs?$CI?$CFd?$CJ?5?3?5@ 00000001400c4188     libucrtd:debug_heap.obj
 0002:00018194       ??_C@_06PKLGBFGM@?$HL?$CFld?$HN?5@ 00000001400c4194     libucrtd:debug_heap.obj
 0002:000181a0       ??_C@_0DD@GHNAAKBB@client?5block?5at?50x?$CFp?0?5subtype?5?$CF@ 00000001400c41a0     libucrtd:debug_heap.obj
 0002:000181d8       ??_C@_0CH@FAGDDGPN@normal?5block?5at?50x?$CFp?0?5?$CFIu?5bytes@ 00000001400c41d8     libucrtd:debug_heap.obj
 0002:00018200       ??_C@_0DA@MDLBNIBM@crt?5block?5at?50x?$CFp?0?5subtype?5?$CFx?0?5@ 00000001400c4200     libucrtd:debug_heap.obj
 0002:00018230       ??_C@_0BH@GFGKJDCO@Object?5dump?5complete?4?6@ 00000001400c4230     libucrtd:debug_heap.obj
 0002:00018248       ??_C@_0BI@JBFPOEJA@Detected?5memory?5leaks?$CB?6@ 00000001400c4248     libucrtd:debug_heap.obj
 0002:00018260       ??_C@_1GI@BBAEIKL@?$AA?$CI?$AA?$CI?$AAd?$AAe?$AAs?$AAt?$AAi?$AAn?$AAa?$AAt?$AAi?$AAo?$AAn?$AA?$CJ?$AA?$CJ@ 00000001400c4260     libucrtd:strcpy_s.obj
 0002:000182d0       ??_C@_1HI@PBJPCEBC@?$AAm?$AAi?$AAn?$AAk?$AAe?$AAr?$AAn?$AAe?$AAl?$AA?2?$AAc?$AAr?$AAt?$AAs?$AA?2@ 00000001400c42d0     libucrtd:strcpy_s.obj
 0002:00018348       ??_C@_1CA@FHIAGDFH@?$AAc?$AAo?$AAm?$AAm?$AAo?$AAn?$AA_?$AAt?$AAc?$AAs?$AAc?$AAp?$AAy?$AA_?$AAs@ 00000001400c4348     libucrtd:strcpy_s.obj
 0002:00018368       ??_C@_1CK@EIOKGPJL@?$AA?$CI?$AA?$CI?$AA?$CI?$AAs?$AAo?$AAu?$AAr?$AAc?$AAe?$AA?$CJ?$AA?$CJ?$AA?$CJ?$AA?5?$AA?$CB?$AA?$DN@ 00000001400c4368     libucrtd:strcpy_s.obj
 0002:00018398       ??_C@_1CI@HCPHDDLE@?$AAB?$AAu?$AAf?$AAf?$AAe?$AAr?$AA?5?$AAi?$AAs?$AA?5?$AAt?$AAo?$AAo?$AA?5?$AAs@ 00000001400c4398     libucrtd:strcpy_s.obj
 0002:000183c0       ??_C@_1DM@MADKGDLO@?$AA?$CI?$AAL?$AA?$CC?$AAB?$AAu?$AAf?$AAf?$AAe?$AAr?$AA?5?$AAi?$AAs?$AA?5?$AAt?$AAo@ 00000001400c43c0     libucrtd:strcpy_s.obj
 0002:00018400       ??_C@_1DA@LLLMNMKI@?$AAa?$AAb?$AAo?$AAr?$AAt?$AA?$CI?$AA?$CJ?$AA?5?$AAh?$AAa?$AAs?$AA?5?$AAb?$AAe?$AAe@ 00000001400c4400     libucrtd:abort.obj
 0002:00018448       ??_C@_1BA@GLMCNLEM@?$AAW?$AAa?$AAr?$AAn?$AAi?$AAn?$AAg@ 00000001400c4448     libucrtd:dbgrpt.obj
 0002:00018458       ??_C@_1M@ILHOPKA@?$AAE?$AAr?$AAr?$AAo?$AAr@ 00000001400c4458     libucrtd:dbgrpt.obj
 0002:00018468       ??_C@_1CC@CGHMNGDG@?$AAA?$AAs?$AAs?$AAe?$AAr?$AAt?$AAi?$AAo?$AAn?$AA?5?$AAF?$AAa?$AAi?$AAl?$AAe@ 00000001400c4468     libucrtd:dbgrpt.obj
 0002:000184a0       ??_C@_1OG@PMPPFHAF@?$AA?6?$AA?6?$AAF?$AAo?$AAr?$AA?5?$AAi?$AAn?$AAf?$AAo?$AAr?$AAm?$AAa?$AAt?$AAi@ 00000001400c44a0     libucrtd:dbgrpt.obj
 0002:00018590       ??_C@_1MG@LJLILFFD@?$AAD?$AAe?$AAb?$AAu?$AAg?$AA?5?$AA?$CF?$AAl?$AAs?$AA?$CB?$AA?6?$AA?6?$AAP?$AAr?$AAo@ 00000001400c4590     libucrtd:dbgrpt.obj
 0002:00018660       ??_C@_1MG@OODCADGL@?$AAD?$AAe?$AAb?$AAu?$AAg?$AA?5?$AA?$CF?$AAl?$AAs?$AA?$CB?$AA?6?$AA?6?$AAP?$AAr?$AAo@ 00000001400c4660     libucrtd:dbgrpt.obj
 0002:00018730       ??_C@_1FO@GMJDLAJD@?$AAm?$AAi?$AAn?$AAk?$AAe?$AAr?$AAn?$AAe?$AAl?$AA?2?$AAc?$AAr?$AAt?$AAs?$AA?2@ 00000001400c4730     libucrtd:dbgrpt.obj
 0002:00018790       ??_C@_1CM@EHMOGBJJ@?$AAc?$AAo?$AAm?$AAm?$AAo?$AAn?$AA_?$AAm?$AAe?$AAs?$AAs?$AAa?$AAg?$AAe?$AA_@ 00000001400c4790     libucrtd:dbgrpt.obj
 0002:000187c0       ??_C@_1BA@GLLGCPCK@?$AA?6?$AAL?$AAi?$AAn?$AAe?$AA?3?$AA?5@ 00000001400c47c0     libucrtd:dbgrpt.obj
 0002:000187d0       ??_C@_1BA@LNHECFIM@?$AA?6?$AAF?$AAi?$AAl?$AAe?$AA?3?$AA?5@ 00000001400c47d0     libucrtd:dbgrpt.obj
 0002:000187e0       ??_C@_1BE@CGCJKGHI@?$AA?6?$AAM?$AAo?$AAd?$AAu?$AAl?$AAe?$AA?3?$AA?5@ 00000001400c47e0     libucrtd:dbgrpt.obj
 0002:00018800       ??_C@_1JM@IBOIJEOO@?$AAw?$AAc?$AAs?$AAc?$AAp?$AAy?$AA_?$AAs?$AA?$CI?$AAm?$AAe?$AAs?$AAs?$AAa?$AAg@ 00000001400c4800     libucrtd:dbgrpt.obj
 0002:000188a0       ??_C@_1FG@BBOLDHGF@?$AA_?$AAC?$AAr?$AAt?$AAD?$AAb?$AAg?$AAR?$AAe?$AAp?$AAo?$AAr?$AAt?$AA?3?$AA?5@ 00000001400c48a0     libucrtd:dbgrpt.obj
 0002:00018b10       ??_C@_1EA@JGEFHKEI@?$AAa?$AAp?$AAi?$AA?9?$AAm?$AAs?$AA?9?$AAw?$AAi?$AAn?$AA?9?$AAc?$AAo?$AAr?$AAe@ 00000001400c4b10     libucrtd:winapi_thunks.obj
 0002:00018b50       ??_C@_1DI@IJCEHOCB@?$AAa?$AAp?$AAi?$AA?9?$AAm?$AAs?$AA?9?$AAw?$AAi?$AAn?$AA?9?$AAc?$AAo?$AAr?$AAe@ 00000001400c4b50     libucrtd:winapi_thunks.obj
 0002:00018b90       ??_C@_1EI@MPIAOHOC@?$AAa?$AAp?$AAi?$AA?9?$AAm?$AAs?$AA?9?$AAw?$AAi?$AAn?$AA?9?$AAc?$AAo?$AAr?$AAe@ 00000001400c4b90     libucrtd:winapi_thunks.obj
 0002:00018be0       ??_C@_1FK@FPHCKFIE@?$AAa?$AAp?$AAi?$AA?9?$AAm?$AAs?$AA?9?$AAw?$AAi?$AAn?$AA?9?$AAc?$AAo?$AAr?$AAe@ 00000001400c4be0     libucrtd:winapi_thunks.obj
 0002:00018c40       ??_C@_1EM@DILCGIIO@?$AAa?$AAp?$AAi?$AA?9?$AAm?$AAs?$AA?9?$AAw?$AAi?$AAn?$AA?9?$AAc?$AAo?$AAr?$AAe@ 00000001400c4c40     libucrtd:winapi_thunks.obj
 0002:00018c90       ??_C@_1DM@LNCGDDPN@?$AAa?$AAp?$AAi?$AA?9?$AAm?$AAs?$AA?9?$AAw?$AAi?$AAn?$AA?9?$AAc?$AAo?$AAr?$AAe@ 00000001400c4c90     libucrtd:winapi_thunks.obj
 0002:00018cd0       ??_C@_1DO@FPAPJEMD@?$AAa?$AAp?$AAi?$AA?9?$AAm?$AAs?$AA?9?$AAw?$AAi?$AAn?$AA?9?$AAc?$AAo?$AAr?$AAe@ 00000001400c4cd0     libucrtd:winapi_thunks.obj
 0002:00018d10       ??_C@_1DK@NDHNAHIO@?$AAa?$AAp?$AAi?$AA?9?$AAm?$AAs?$AA?9?$AAw?$AAi?$AAn?$AA?9?$AAc?$AAo?$AAr?$AAe@ 00000001400c4d10     libucrtd:winapi_thunks.obj
 0002:00018d50       ??_C@_1DM@KGHDGBCM@?$AAa?$AAp?$AAi?$AA?9?$AAm?$AAs?$AA?9?$AAw?$AAi?$AAn?$AA?9?$AAc?$AAo?$AAr?$AAe@ 00000001400c4d50     libucrtd:winapi_thunks.obj
 0002:00018d90       ??_C@_1EO@IJIOEFOH@?$AAa?$AAp?$AAi?$AA?9?$AAm?$AAs?$AA?9?$AAw?$AAi?$AAn?$AA?9?$AAr?$AAt?$AAc?$AAo@ 00000001400c4d90     libucrtd:winapi_thunks.obj
 0002:00018de0       ??_C@_1FG@HHGEKANL@?$AAa?$AAp?$AAi?$AA?9?$AAm?$AAs?$AA?9?$AAw?$AAi?$AAn?$AA?9?$AAs?$AAe?$AAc?$AAu@ 00000001400c4de0     libucrtd:winapi_thunks.obj
 0002:00018e40       ??_C@_1EG@DBIOJECG@?$AAe?$AAx?$AAt?$AA?9?$AAm?$AAs?$AA?9?$AAw?$AAi?$AAn?$AA?9?$AAn?$AAt?$AAu?$AAs@ 00000001400c4e40     libucrtd:winapi_thunks.obj
 0002:00018e90       ??_C@_1EO@FIHMJCLF@?$AAe?$AAx?$AAt?$AA?9?$AAm?$AAs?$AA?9?$AAw?$AAi?$AAn?$AA?9?$AAn?$AAt?$AAu?$AAs@ 00000001400c4e90     libucrtd:winapi_thunks.obj
 0002:00018ee0       ??_C@_1BC@DNHGCMLG@?$AAa?$AAd?$AAv?$AAa?$AAp?$AAi?$AA3?$AA2@ 00000001400c4ee0     libucrtd:winapi_thunks.obj
 0002:00018ef8       ??_C@_1M@OAIMIKLP@?$AAn?$AAt?$AAd?$AAl?$AAl@ 00000001400c4ef8     libucrtd:winapi_thunks.obj
 0002:00018f10       ??_C@_1EG@DPGNFKGC@?$AAa?$AAp?$AAi?$AA?9?$AAm?$AAs?$AA?9?$AAw?$AAi?$AAn?$AA?9?$AAa?$AAp?$AAp?$AAm@ 00000001400c4f10     libucrtd:winapi_thunks.obj
 0002:00018f58       ??_C@_1O@BCCLBEOE@?$AAu?$AAs?$AAe?$AAr?$AA3?$AA2@ 00000001400c4f58     libucrtd:winapi_thunks.obj
 0002:00018f68       ??_C@_1BA@IAIFMGEF@?$AAe?$AAx?$AAt?$AA?9?$AAm?$AAs?$AA?9@ 00000001400c4f68     libucrtd:winapi_thunks.obj
 0002:00018f80       ??_C@_1HE@OILMBOBA@?$AAm?$AAi?$AAn?$AAk?$AAe?$AAr?$AAn?$AAe?$AAl?$AA?2?$AAc?$AAr?$AAt?$AAs?$AA?2@ 00000001400c4f80     libucrtd:winapi_thunks.obj
 0002:00018ff8       ??_C@_0BA@FHFNEAED@AreFileApisANSI@ 00000001400c4ff8     libucrtd:winapi_thunks.obj
 0002:00019010       ??_C@_0BA@IHGNDAEB@CompareStringEx@ 00000001400c5010     libucrtd:winapi_thunks.obj
 0002:00019048       ??_C@_0BA@HNOPNCHB@GetActiveWindow@ 00000001400c5048     libucrtd:winapi_thunks.obj
 0002:00019060       ??_C@_0BD@HHGDFDBJ@GetLastActivePopup@ 00000001400c5060     libucrtd:winapi_thunks.obj
 0002:00019080       ??_C@_0BI@DFKBFLJE@GetProcessWindowStation@ 00000001400c5080     libucrtd:winapi_thunks.obj
 0002:000190a0       ??_C@_0BK@DEKFELLI@GetUserObjectInformationW@ 00000001400c50a0     libucrtd:winapi_thunks.obj
 0002:000190d0       ??_C@_0O@KKBNKAPF@LCMapStringEx@ 00000001400c50d0     libucrtd:winapi_thunks.obj
 0002:000190e8       ??_C@_0BB@HBDEELFH@LocaleNameToLCID@ 00000001400c50e8     libucrtd:winapi_thunks.obj
 0002:00019108       ??_C@_0M@CHKKJDAI@MessageBoxA@ 00000001400c5108     libucrtd:winapi_thunks.obj
 0002:00019120       ??_C@_0M@DLDCCGNP@MessageBoxW@ 00000001400c5120     libucrtd:winapi_thunks.obj
 0002:00019130       ??_C@_0CF@OJOFEIGO@AppPolicyGetProcessTerminationM@ 00000001400c5130     libucrtd:winapi_thunks.obj
 0002:00019160       ??_C@_0CE@OICFMIKE@AppPolicyGetShowDeveloperDiagno@ 00000001400c5160     libucrtd:winapi_thunks.obj
 0002:00019188       ??_C@_0BL@ODDJNEDA@AppPolicyGetWindowingModel@ 00000001400c5188     libucrtd:winapi_thunks.obj
 0002:000191b0       ??_C@_1GE@GPOPIOIG@?$AAm?$AAi?$AAn?$AAk?$AAe?$AAr?$AAn?$AAe?$AAl?$AA?2?$AAc?$AAr?$AAt?$AAs?$AA?2@ 00000001400c51b0     libucrtd:_freebuf.obj
 0002:00019218       ??_C@_0DA@OGKFKCBE@minkernel?2crts?2ucrt?2src?2appcrt?2@ 00000001400c5218     libucrtd:stream.obj
 0002:00019250       ??_C@_1GE@HEEFEAFI@?$AAm?$AAi?$AAn?$AAk?$AAe?$AAr?$AAn?$AAe?$AAl?$AA?2?$AAc?$AAr?$AAt?$AAs?$AA?2@ 00000001400c5250     libucrtd:openfile.obj
 0002:000192b4       ?ccs@?1???$__acrt_stdio_parse_mode@D@@YA?AU__acrt_stdio_stream_mode@@QEBD@Z@4QBDB 00000001400c52b4     libucrtd:openfile.obj
 0002:000192b8       ?utf8_encoding@?1???$__acrt_stdio_parse_mode@D@@YA?AU__acrt_stdio_stream_mode@@QEBD@Z@4QBDB 00000001400c52b8     libucrtd:openfile.obj
 0002:000192c0       ?utf16_encoding@?1???$__acrt_stdio_parse_mode@D@@YA?AU__acrt_stdio_stream_mode@@QEBD@Z@4QBDB 00000001400c52c0     libucrtd:openfile.obj
 0002:000192c8       ?unicode_encoding@?1???$__acrt_stdio_parse_mode@D@@YA?AU__acrt_stdio_stream_mode@@QEBD@Z@4QBDB 00000001400c52c8     libucrtd:openfile.obj
 0002:000192d0       ??_C@_1DM@FOFGGBBM@?$AA?$CI?$AA?$CC?$AAI?$AAn?$AAv?$AAa?$AAl?$AAi?$AAd?$AA?5?$AAf?$AAi?$AAl?$AAe?$AA?5@ 00000001400c52d0     libucrtd:openfile.obj
 0002:00019310       ??_C@_1DA@KPIHAHGC@?$AA_?$AA_?$AAa?$AAc?$AAr?$AAt?$AA_?$AAs?$AAt?$AAd?$AAi?$AAo?$AA_?$AAp?$AAa@ 00000001400c5310     libucrtd:openfile.obj
 0002:00019340       ??_C@_1BI@PDNFEGCG@?$AA?$CK?$AAi?$AAt?$AA?5?$AA?$DN?$AA?$DN?$AA?5?$AA?8?$AA?2?$AA0?$AA?8@ 00000001400c5340     libucrtd:openfile.obj
 0002:00019360       ??_C@_1FO@IPDGALOE@?$AAm?$AAi?$AAn?$AAk?$AAe?$AAr?$AAn?$AAe?$AAl?$AA?2?$AAc?$AAr?$AAt?$AAs?$AA?2@ 00000001400c5360     libucrtd:close.obj
 0002:000193c0       ??_C@_1O@EDEJGJBM@?$AA_?$AAc?$AAl?$AAo?$AAs?$AAe@ 00000001400c53c0     libucrtd:close.obj
 0002:000193d0       ??_C@_1GA@KCAHHNGP@?$AAm?$AAi?$AAn?$AAk?$AAe?$AAr?$AAn?$AAe?$AAl?$AA?2?$AAc?$AAr?$AAt?$AAs?$AA?2@ 00000001400c53d0     libucrtd:fileno.obj
 0002:00019430       ??_C@_1BA@JGHIEKKM@?$AA_?$AAf?$AAi?$AAl?$AAe?$AAn?$AAo@ 00000001400c5430     libucrtd:fileno.obj
 0002:00019440       ??_C@_1GC@MGNADOPH@?$AAm?$AAi?$AAn?$AAk?$AAe?$AAr?$AAn?$AAe?$AAl?$AA?2?$AAc?$AAr?$AAt?$AAs?$AA?2@ 00000001400c5440     libucrtd:_filbuf.obj
 0002:000194a8       ??_C@_1DM@MPDNIFLF@?$AAc?$AAo?$AAm?$AAm?$AAo?$AAn?$AA_?$AAr?$AAe?$AAf?$AAi?$AAl?$AAl?$AA_?$AAa@ 00000001400c54a8     libucrtd:_filbuf.obj
 0002:000194f0       ??_C@_1FK@MGHFJLAL@?$AAf?$AAh?$AA?5?$AA?$DO?$AA?$DN?$AA?5?$AA0?$AA?5?$AA?$CG?$AA?$CG?$AA?5?$AA?$CI?$AAu?$AAn?$AAs@ 00000001400c54f0     libucrtd:read.obj
 0002:00019550       ??_C@_1FM@PHKGHLIO@?$AAm?$AAi?$AAn?$AAk?$AAe?$AAr?$AAn?$AAe?$AAl?$AA?2?$AAc?$AAr?$AAt?$AAs?$AA?2@ 00000001400c5550     libucrtd:read.obj
 0002:000195b0       ??_C@_1M@NHJOLLDM@?$AA_?$AAr?$AAe?$AAa?$AAd@ 00000001400c55b0     libucrtd:read.obj
 0002:000195c0       ??_C@_1CI@ILOIOBLM@?$AA_?$AAo?$AAs?$AAf?$AAi?$AAl?$AAe?$AA?$CI?$AAf?$AAh?$AA?$CJ?$AA?5?$AA?$CG?$AA?5?$AAF@ 00000001400c55c0     libucrtd:read.obj
 0002:000195e8       ??_C@_1CO@OPEPDLLF@?$AAb?$AAu?$AAf?$AAf?$AAe?$AAr?$AA_?$AAs?$AAi?$AAz?$AAe?$AA?5?$AA?$DM?$AA?$DN?$AA?5@ 00000001400c55e8     libucrtd:read.obj
 0002:00019618       ??_C@_1BK@JJBHNDKJ@?$AA_?$AAr?$AAe?$AAa?$AAd?$AA_?$AAn?$AAo?$AAl?$AAo?$AAc?$AAk@ 00000001400c5618     libucrtd:read.obj
 0002:00019638       ??_C@_1DM@JEAHBMKI@?$AAr?$AAe?$AAs?$AAu?$AAl?$AAt?$AA_?$AAb?$AAu?$AAf?$AAf?$AAe?$AAr?$AA_?$AAs@ 00000001400c5638     libucrtd:read.obj
 0002:00019678       ??_C@_1DC@MGKAFPFD@?$AAr?$AAe?$AAs?$AAu?$AAl?$AAt?$AA_?$AAb?$AAu?$AAf?$AAf?$AAe?$AAr?$AA?5?$AA?$CB@ 00000001400c5678     libucrtd:read.obj
 0002:000196b0       ??_C@_1DI@CDGOMPDO@?$AAr?$AAe?$AAs?$AAu?$AAl?$AAt?$AA_?$AAb?$AAu?$AAf?$AAf?$AAe?$AAr?$AA_?$AAs@ 00000001400c56b0     libucrtd:read.obj
 0002:000196e8       ??_C@_0CO@JFNFJHLC@minkernel?2crts?2ucrt?2src?2appcrt?2@ 00000001400c56e8     libucrtd:read.obj
 0002:00019718       ??_C@_1DM@HGBOAKPP@?$AA?$CI?$AAr?$AAe?$AAs?$AAu?$AAl?$AAt?$AA_?$AAb?$AAu?$AAf?$AAf?$AAe?$AAr?$AA_@ 00000001400c5718     libucrtd:read.obj
 0002:00019760       ??_C@_1FO@KIIHJNFN@?$AAm?$AAi?$AAn?$AAk?$AAe?$AAr?$AAn?$AAe?$AAl?$AA?2?$AAc?$AAr?$AAt?$AAs?$AA?2@ 00000001400c5760     libucrtd:lseek.obj
 0002:000197c0       ??_C@_1BK@JOMBNFIM@?$AAc?$AAo?$AAm?$AAm?$AAo?$AAn?$AA_?$AAl?$AAs?$AAe?$AAe?$AAk@ 00000001400c57c0     libucrtd:lseek.obj
 0002:000197e0       ??_C@_1DM@LMLOLGJ@?$AA?$CI?$AA?$CC?$AAI?$AAn?$AAv?$AAa?$AAl?$AAi?$AAd?$AA?5?$AAf?$AAi?$AAl?$AAe?$AA?5@ 00000001400c57e0     libucrtd:lseek.obj
 0002:00019820       ??_C@_1GC@DLDMJFMI@?$AAm?$AAi?$AAn?$AAk?$AAe?$AAr?$AAn?$AAe?$AAl?$AA?2?$AAc?$AAr?$AAt?$AAs?$AA?2@ 00000001400c5820     libucrtd:_getbuf.obj
 0002:00019888       ??_C@_0DB@LKJPMJPL@minkernel?2crts?2ucrt?2src?2appcrt?2@ 00000001400c5888     libucrtd:_getbuf.obj
 0002:000198c0       ??_C@_1BBC@DECGKMGJ@?$AA_?$AAl?$AAo?$AAc?$AA_?$AAu?$AAp?$AAd?$AAa?$AAt?$AAe?$AA?4?$AAG?$AAe?$AAt@ 00000001400c58c0     libucrtd:mbtowc.obj
 0002:000199e0       ??_C@_1GE@CGIHMDEJ@?$AAm?$AAi?$AAn?$AAk?$AAe?$AAr?$AAn?$AAe?$AAl?$AA?2?$AAc?$AAr?$AAt?$AAs?$AA?2@ 00000001400c59e0     libucrtd:mbtowc.obj
 0002:00019a50       ??_C@_1HA@KNBGJAIN@?$AAU?$AAT?$AAF?$AA?9?$AA8?$AA?5?$AAi?$AAs?$AAn?$AA?8?$AAt?$AA?5?$AAs?$AAu?$AAp@ 00000001400c5a50     libucrtd:mbtowc.obj
 0002:00019ac0       ??_C@_1BBA@EIIJPPL@?$AA_?$AAl?$AAo?$AAc?$AA_?$AAu?$AAp?$AAd?$AAa?$AAt?$AAe?$AA?4?$AAG?$AAe?$AAt@ 00000001400c5ac0     libucrtd:mbtowc.obj
 0002:00019bd0       ??_C@_1IE@CDCHDACI@?$AA_?$AAl?$AAo?$AAc?$AA_?$AAu?$AAp?$AAd?$AAa?$AAt?$AAe?$AA?4?$AAG?$AAe?$AAt@ 00000001400c5bd0     libucrtd:mbtowc.obj
 0002:00019c58       ??_C@_1DK@NBNOAGKB@?$AAd?$AAe?$AAs?$AAt?$AAi?$AAn?$AAa?$AAt?$AAi?$AAo?$AAn?$AA_?$AAc?$AAo?$AAu@ 00000001400c5c58     libucrtd:wctomb.obj
 0002:00019ca0       ??_C@_1GE@FCCEPHFG@?$AAm?$AAi?$AAn?$AAk?$AAe?$AAr?$AAn?$AAe?$AAl?$AA?2?$AAc?$AAr?$AAt?$AAs?$AA?2@ 00000001400c5ca0     libucrtd:wctomb.obj
 0002:00019d08       ??_C@_1BI@IEADNOHF@?$AA_?$AAw?$AAc?$AAt?$AAo?$AAm?$AAb?$AA_?$AAs?$AA_?$AAl@ 00000001400c5d08     libucrtd:wctomb.obj
 0002:00019d20       ??_C@_1CM@ENFEGCNE@?$AAd?$AAe?$AAs?$AAt?$AAi?$AAn?$AAa?$AAt?$AAi?$AAo?$AAn?$AA_?$AAc?$AAo?$AAu@ 00000001400c5d20     libucrtd:wctomb.obj
 0002:00019d50       ??_C@_0DM@DKIFNNOL@minkernel?2crts?2ucrt?2src?2appcrt?2@ 00000001400c5d50     libucrtd:per_thread_data.obj
 0002:00019e40       ??_C@_03OEIAHPBN@INF@      00000001400c5e40     libucrtd:cvt.obj
 0002:00019e44       ??_C@_03OJHLLCGB@inf@      00000001400c5e44     libucrtd:cvt.obj
 0002:00019e48       ??_C@_03LKNCIKJB@NAN@      00000001400c5e48     libucrtd:cvt.obj
 0002:00019e4c       ??_C@_03LHCJEHON@nan@      00000001400c5e4c     libucrtd:cvt.obj
 0002:00019e50       ??_C@_09OFJJIMPC@NAN?$CISNAN?$CJ@ 00000001400c5e50     libucrtd:cvt.obj
 0002:00019e60       ??_C@_09IPFBKMDL@nan?$CIsnan?$CJ@ 00000001400c5e60     libucrtd:cvt.obj
 0002:00019e70       ??_C@_08IKHNHAJ@NAN?$CIIND?$CJ@ 00000001400c5e70     libucrtd:cvt.obj
 0002:00019e80       ??_C@_08OFCDMILK@nan?$CIind?$CJ@ 00000001400c5e80     libucrtd:cvt.obj
 0002:00019e90       ??_C@_1FO@GKAKAPLI@?$AAm?$AAi?$AAn?$AAk?$AAe?$AAr?$AAn?$AAe?$AAl?$AA?2?$AAc?$AAr?$AAt?$AAs?$AA?2@ 00000001400c5e90     libucrtd:cvt.obj
 0002:00019ef0       ??_C@_1DE@EHGIGIDK@?$AAf?$AAp?$AA_?$AAf?$AAo?$AAr?$AAm?$AAa?$AAt?$AA_?$AAn?$AAa?$AAn?$AA_?$AAo@ 00000001400c5ef0     libucrtd:cvt.obj
 0002:00019f30       ??_C@_1LI@PCMLJPCO@?$AAs?$AAt?$AAr?$AAc?$AAp?$AAy?$AA_?$AAs?$AA?$CI?$AA?5?$AAr?$AAe?$AAs?$AAu?$AAl@ 00000001400c5f30     libucrtd:cvt.obj
 0002:00019ff0       ??_C@_1KO@LJHOFBCD@?$AAr?$AAe?$AAs?$AAu?$AAl?$AAt?$AA_?$AAb?$AAu?$AAf?$AAf?$AAe?$AAr?$AA_?$AAc@ 00000001400c5ff0     libucrtd:cvt.obj
 0002:0001a0a0       ??_C@_1CK@BOLHOMFO@?$AAf?$AAp?$AA_?$AAf?$AAo?$AAr?$AAm?$AAa?$AAt?$AA_?$AAe?$AA_?$AAi?$AAn?$AAt@ 00000001400c60a0     libucrtd:cvt.obj
 0002:0001a0d0       ??_C@_1BBE@LHDOMEDC@?$AAs?$AAt?$AAr?$AAc?$AAp?$AAy?$AA_?$AAs?$AA?$CI?$AA?5?$AAp?$AA?0?$AA?5?$AAr?$AAe@ 00000001400c60d0     libucrtd:cvt.obj
 0002:0001a1e4       ??_C@_05KLBDPFGC@e?$CL000@ 00000001400c61e4     libucrtd:cvt.obj
 0002:0001a1f0       ??_C@_1IC@FILKPBAB@?$AAr?$AAe?$AAs?$AAu?$AAl?$AAt?$AA_?$AAb?$AAu?$AAf?$AAf?$AAe?$AAr?$AA_?$AAc@ 00000001400c61f0     libucrtd:cvt.obj
 0002:0001a278       ??_C@_1BI@PNBDLNBB@?$AAf?$AAp?$AA_?$AAf?$AAo?$AAr?$AAm?$AAa?$AAt?$AA_?$AAa@ 00000001400c6278     libucrtd:cvt.obj
 0002:0001a290       ??_C@_1CC@LDAHJAKK@?$AA_?$AA_?$AAa?$AAc?$AAr?$AAt?$AA_?$AAf?$AAp?$AA_?$AAf?$AAo?$AAr?$AAm?$AAa@ 00000001400c6290     libucrtd:cvt.obj
 0002:0001a2b8       ??_C@_1DA@NMLJJOCO@?$AAr?$AAe?$AAs?$AAu?$AAl?$AAt?$AA_?$AAb?$AAu?$AAf?$AAf?$AAe?$AAr?$AA_?$AAc@ 00000001400c62b8     libucrtd:cvt.obj
 0002:0001a2e8       ??_C@_1DE@MNOPBCOK@?$AAs?$AAc?$AAr?$AAa?$AAt?$AAc?$AAh?$AA_?$AAb?$AAu?$AAf?$AAf?$AAe?$AAr?$AA?5@ 00000001400c62e8     libucrtd:cvt.obj
 0002:0001a320       ??_C@_1DC@CKBKNFKH@?$AAs?$AAc?$AAr?$AAa?$AAt?$AAc?$AAh?$AA_?$AAb?$AAu?$AAf?$AAf?$AAe?$AAr?$AA_@ 00000001400c6320     libucrtd:cvt.obj
 0002:0001a360       ??_C@_1EI@JAHBOGIM@?$AA?$CI?$AA?$CC?$AAU?$AAn?$AAs?$AAu?$AAp?$AAp?$AAo?$AAr?$AAt?$AAe?$AAd?$AA?5?$AAf@ 00000001400c6360     libucrtd:cvt.obj
 0002:0001a3b0       ??_C@_1GC@GBMDABED@?$AAm?$AAi?$AAn?$AAk?$AAe?$AAr?$AAn?$AAe?$AAl?$AA?2?$AAc?$AAr?$AAt?$AAs?$AA?2@ 00000001400c63b0     libucrtd:_sftbuf.obj
 0002:0001a418       ??_C@_0DB@EPIHMFLB@minkernel?2crts?2ucrt?2src?2appcrt?2@ 00000001400c6418     libucrtd:_sftbuf.obj
 0002:0001a450       __lc_time_c                00000001400c6450     libucrtd:nlsdata.obj
 0002:0001a710       ??_C@_03KOEHGMDN@Sun@      00000001400c6710     libucrtd:nlsdata.obj
 0002:0001a714       ??_C@_03PDAGKDH@Mon@       00000001400c6714     libucrtd:nlsdata.obj
 0002:0001a718       ??_C@_03NAGEINEP@Tue@      00000001400c6718     libucrtd:nlsdata.obj
 0002:0001a71c       ??_C@_03MHOMLAJA@Wed@      00000001400c671c     libucrtd:nlsdata.obj
 0002:0001a720       ??_C@_03IOFIKPDN@Thu@      00000001400c6720     libucrtd:nlsdata.obj
 0002:0001a724       ??_C@_03IDIOELNC@Fri@      00000001400c6724     libucrtd:nlsdata.obj
 0002:0001a728       ??_C@_03FEFJNEK@Sat@       00000001400c6728     libucrtd:nlsdata.obj
 0002:0001a72c       ??_C@_06OOPIFAJ@Sunday@    00000001400c672c     libucrtd:nlsdata.obj
 0002:0001a734       ??_C@_06JLEDEDGH@Monday@   00000001400c6734     libucrtd:nlsdata.obj
 0002:0001a740       ??_C@_07BAAGCFCM@Tuesday@  00000001400c6740     libucrtd:nlsdata.obj
 0002:0001a748       ??_C@_09DLIGFAKA@Wednesday@ 00000001400c6748     libucrtd:nlsdata.obj
 0002:0001a758       ??_C@_08HACCIKIA@Thursday@ 00000001400c6758     libucrtd:nlsdata.obj
 0002:0001a764       ??_C@_06JECMNKMI@Friday@   00000001400c6764     libucrtd:nlsdata.obj
 0002:0001a770       ??_C@_08INBOOONO@Saturday@ 00000001400c6770     libucrtd:nlsdata.obj
 0002:0001a77c       ??_C@_03JIHJHPIE@Jan@      00000001400c677c     libucrtd:nlsdata.obj
 0002:0001a780       ??_C@_03HJBDCHOM@Feb@      00000001400c6780     libucrtd:nlsdata.obj
 0002:0001a784       ??_C@_03ODNJBKGA@Mar@      00000001400c6784     libucrtd:nlsdata.obj
 0002:0001a788       ??_C@_03LEOLGMJP@Apr@      00000001400c6788     libucrtd:nlsdata.obj
 0002:0001a78c       ??_C@_03CNMDKL@May@        00000001400c678c     libucrtd:nlsdata.obj
 0002:0001a790       ??_C@_03IDFGHECI@Jun@      00000001400c6790     libucrtd:nlsdata.obj
 0002:0001a794       ??_C@_03LBGABGKK@Jul@      00000001400c6794     libucrtd:nlsdata.obj
 0002:0001a798       ??_C@_03IFJFEIGA@Aug@      00000001400c6798     libucrtd:nlsdata.obj
 0002:0001a79c       ??_C@_03GGCAPAJC@Sep@      00000001400c679c     libucrtd:nlsdata.obj
 0002:0001a7a0       ??_C@_03BMAOKBAD@Oct@      00000001400c67a0     libucrtd:nlsdata.obj
 0002:0001a7a4       ??_C@_03JPJOFNIA@Nov@      00000001400c67a4     libucrtd:nlsdata.obj
 0002:0001a7a8       ??_C@_03MKABNOCG@Dec@      00000001400c67a8     libucrtd:nlsdata.obj
 0002:0001a7b0       ??_C@_07CGJPFGJA@January@  00000001400c67b0     libucrtd:nlsdata.obj
 0002:0001a7b8       ??_C@_08GNJGEPFN@February@ 00000001400c67b8     libucrtd:nlsdata.obj
 0002:0001a7c4       ??_C@_05HPCKOFNC@March@    00000001400c67c4     libucrtd:nlsdata.obj
 0002:0001a7cc       ??_C@_05DMJDNLEJ@April@    00000001400c67cc     libucrtd:nlsdata.obj
 0002:0001a7d4       ??_C@_04CNLMGBGM@June@     00000001400c67d4     libucrtd:nlsdata.obj
 0002:0001a7dc       ??_C@_04MIEPOIFP@July@     00000001400c67dc     libucrtd:nlsdata.obj
 0002:0001a7e4       ??_C@_06LBBHFDDG@August@   00000001400c67e4     libucrtd:nlsdata.obj
 0002:0001a7f0       ??_C@_09BHHEALKD@September@ 00000001400c67f0     libucrtd:nlsdata.obj
 0002:0001a800       ??_C@_07JJNFCEND@October@  00000001400c6800     libucrtd:nlsdata.obj
 0002:0001a808       ??_C@_08HCHEGEOA@November@ 00000001400c6808     libucrtd:nlsdata.obj
 0002:0001a818       ??_C@_08EDHMEBNP@December@ 00000001400c6818     libucrtd:nlsdata.obj
 0002:0001a824       ??_C@_02DEDBPAFC@AM@       00000001400c6824     libucrtd:nlsdata.obj
 0002:0001a828       ??_C@_02CJNFDJBF@PM@       00000001400c6828     libucrtd:nlsdata.obj
 0002:0001a830       ??_C@_08BPBNCDIB@MM?1dd?1yy@ 00000001400c6830     libucrtd:nlsdata.obj
 0002:0001a840       ??_C@_0BE@CKGJFCPC@dddd?0?5MMMM?5dd?0?5yyyy@ 00000001400c6840     libucrtd:nlsdata.obj
 0002:0001a858       ??_C@_08JCCMCCIL@HH?3mm?3ss@ 00000001400c6858     libucrtd:nlsdata.obj
 0002:0001a868       ??_C@_17MBGCMIPB@?$AAS?$AAu?$AAn@ 00000001400c6868     libucrtd:nlsdata.obj
 0002:0001a870       ??_C@_17KBOMKBF@?$AAM?$AAo?$AAn@ 00000001400c6870     libucrtd:nlsdata.obj
 0002:0001a878       ??_C@_17BMKGEGOJ@?$AAT?$AAu?$AAe@ 00000001400c6878     libucrtd:nlsdata.obj
 0002:0001a880       ??_C@_17CJEDCEPE@?$AAW?$AAe?$AAd@ 00000001400c6880     libucrtd:nlsdata.obj
 0002:0001a888       ??_C@_17PDPHAADD@?$AAT?$AAh?$AAu@ 00000001400c6888     libucrtd:nlsdata.obj
 0002:0001a890       ??_C@_17HFOLPPLP@?$AAF?$AAr?$AAi@ 00000001400c6890     libucrtd:nlsdata.obj
 0002:0001a898       ??_C@_17GGIBDPIH@?$AAS?$AAa?$AAt@ 00000001400c6898     libucrtd:nlsdata.obj
 0002:0001a8a0       ??_C@_1O@IHNHDHPB@?$AAS?$AAu?$AAn?$AAd?$AAa?$AAy@ 00000001400c68a0     libucrtd:nlsdata.obj
 0002:0001a8b0       ??_C@_1O@MMNBFLIA@?$AAM?$AAo?$AAn?$AAd?$AAa?$AAy@ 00000001400c68b0     libucrtd:nlsdata.obj
 0002:0001a8c0       ??_C@_1BA@ENFBFFEK@?$AAT?$AAu?$AAe?$AAs?$AAd?$AAa?$AAy@ 00000001400c68c0     libucrtd:nlsdata.obj
 0002:0001a8d0       ??_C@_1BE@EBOGMDOH@?$AAW?$AAe?$AAd?$AAn?$AAe?$AAs?$AAd?$AAa?$AAy@ 00000001400c68d0     libucrtd:nlsdata.obj
 0002:0001a8e8       ??_C@_1BC@HHMNLIHE@?$AAT?$AAh?$AAu?$AAr?$AAs?$AAd?$AAa?$AAy@ 00000001400c68e8     libucrtd:nlsdata.obj
 0002:0001a900       ??_C@_1O@PDICJHAG@?$AAF?$AAr?$AAi?$AAd?$AAa?$AAy@ 00000001400c6900     libucrtd:nlsdata.obj
 0002:0001a910       ??_C@_1BC@ENMNNPAJ@?$AAS?$AAa?$AAt?$AAu?$AAr?$AAd?$AAa?$AAy@ 00000001400c6910     libucrtd:nlsdata.obj
 0002:0001a928       ??_C@_17DKNBKCHM@?$AAJ?$AAa?$AAn@ 00000001400c6928     libucrtd:nlsdata.obj
 0002:0001a930       ??_C@_17LMDJEKJN@?$AAF?$AAe?$AAb@ 00000001400c6930     libucrtd:nlsdata.obj
 0002:0001a938       ??_C@_17CKNLEDEC@?$AAM?$AAa?$AAr@ 00000001400c6938     libucrtd:nlsdata.obj
 0002:0001a940       ??_C@_17LFPOIHDD@?$AAA?$AAp?$AAr@ 00000001400c6940     libucrtd:nlsdata.obj
 0002:0001a948       ??_C@_17PNNKMEED@?$AAM?$AAa?$AAy@ 00000001400c6948     libucrtd:nlsdata.obj
 0002:0001a950       ??_C@_17KCJGOCPB@?$AAJ?$AAu?$AAn@ 00000001400c6950     libucrtd:nlsdata.obj
 0002:0001a958       ??_C@_17IJPCKHK@?$AAJ?$AAu?$AAl@ 00000001400c6958     libucrtd:nlsdata.obj
 0002:0001a960       ??_C@_17ICPELBCN@?$AAA?$AAu?$AAg@ 00000001400c6960     libucrtd:nlsdata.obj
 0002:0001a968       ??_C@_17HCHCOKMG@?$AAS?$AAe?$AAp@ 00000001400c6968     libucrtd:nlsdata.obj
 0002:0001a970       ??_C@_17FNLKOI@?$AAO?$AAc?$AAt@ 00000001400c6970     libucrtd:nlsdata.obj
 0002:0001a978       ??_C@_17BBDMLCIG@?$AAN?$AAo?$AAv@ 00000001400c6978     libucrtd:nlsdata.obj
 0002:0001a980       ??_C@_17EGKACKIF@?$AAD?$AAe?$AAc@ 00000001400c6980     libucrtd:nlsdata.obj
 0002:0001a988       ??_C@_1BA@EFMEIEBA@?$AAJ?$AAa?$AAn?$AAu?$AAa?$AAr?$AAy@ 00000001400c6988     libucrtd:nlsdata.obj
 0002:0001a998       ??_C@_1BC@JGDDFFAM@?$AAF?$AAe?$AAb?$AAr?$AAu?$AAa?$AAr?$AAy@ 00000001400c6998     libucrtd:nlsdata.obj
 0002:0001a9b0       ??_C@_1M@IKEENEDF@?$AAM?$AAa?$AAr?$AAc?$AAh@ 00000001400c69b0     libucrtd:nlsdata.obj
 0002:0001a9c0       ??_C@_1M@GJNLMHFD@?$AAA?$AAp?$AAr?$AAi?$AAl@ 00000001400c69c0     libucrtd:nlsdata.obj
 0002:0001a9d0       ??_C@_19EPFLPGAP@?$AAJ?$AAu?$AAn?$AAe@ 00000001400c69d0     libucrtd:nlsdata.obj
 0002:0001a9e0       ??_C@_19BIFMLPCD@?$AAJ?$AAu?$AAl?$AAy@ 00000001400c69e0     libucrtd:nlsdata.obj
 0002:0001a9f0       ??_C@_1O@PAHLKOAC@?$AAA?$AAu?$AAg?$AAu?$AAs?$AAt@ 00000001400c69f0     libucrtd:nlsdata.obj
 0002:0001aa00       ??_C@_1BE@DKAAMBJL@?$AAS?$AAe?$AAp?$AAt?$AAe?$AAm?$AAb?$AAe?$AAr@ 00000001400c6a00     libucrtd:nlsdata.obj
 0002:0001aa18       ??_C@_1BA@EPANDLNG@?$AAO?$AAc?$AAt?$AAo?$AAb?$AAe?$AAr@ 00000001400c6a18     libucrtd:nlsdata.obj
 0002:0001aa28       ??_C@_1BC@BGLIFPF@?$AAN?$AAo?$AAv?$AAe?$AAm?$AAb?$AAe?$AAr@ 00000001400c6a28     libucrtd:nlsdata.obj
 0002:0001aa40       ??_C@_1BC@FEMKIFH@?$AAD?$AAe?$AAc?$AAe?$AAm?$AAb?$AAe?$AAr@ 00000001400c6a40     libucrtd:nlsdata.obj
 0002:0001aa54       ??_C@_15ODEHAHHF@?$AAA?$AAM@ 00000001400c6a54     libucrtd:nlsdata.obj
 0002:0001aa5c       ??_C@_15CLMNNGEL@?$AAP?$AAM@ 00000001400c6a5c     libucrtd:nlsdata.obj
 0002:0001aa68       ??_C@_1BC@IEBCMHCM@?$AAM?$AAM?$AA?1?$AAd?$AAd?$AA?1?$AAy?$AAy@ 00000001400c6a68     libucrtd:nlsdata.obj
 0002:0001aa80       ??_C@_1CI@KNAKOEBC@?$AAd?$AAd?$AAd?$AAd?$AA?0?$AA?5?$AAM?$AAM?$AAM?$AAM?$AA?5?$AAd?$AAd?$AA?0?$AA?5@ 00000001400c6a80     libucrtd:nlsdata.obj
 0002:0001aaa8       ??_C@_1BC@GDGBMEMK@?$AAH?$AAH?$AA?3?$AAm?$AAm?$AA?3?$AAs?$AAs@ 00000001400c6aa8     libucrtd:nlsdata.obj
 0002:0001aac0       ??_C@_1M@BMHNFIME@?$AAe?$AAn?$AA?9?$AAU?$AAS@ 00000001400c6ac0     libucrtd:nlsdata.obj
 0002:0001aad0       __newctype                 00000001400c6ad0     libucrtd:ctype.obj
 0002:0001add0       __newclmap                 00000001400c6dd0     libucrtd:ctype.obj
 0002:0001af50       __newcumap                 00000001400c6f50     libucrtd:ctype.obj
 0002:0001b0d0       _wctype                    00000001400c70d0     libucrtd:ctype.obj
 0002:0001b2d8       ??_C@_1CI@JELMFMDH@?$AAc?$AA?5?$AA?$DO?$AA?$DN?$AA?5?$AA?9?$AA1?$AA?5?$AA?$CG?$AA?$CG?$AA?5?$AAc?$AA?5?$AA?$DM?$AA?$DN@ 00000001400c72d8     libucrtd:isctype.obj
 0002:0001b300       ??_C@_1GG@KPBGDFHJ@?$AAm?$AAi?$AAn?$AAk?$AAe?$AAr?$AAn?$AAe?$AAl?$AA?2?$AAc?$AAr?$AAt?$AAs?$AA?2@ 00000001400c7300     libucrtd:isctype.obj
 0002:0001b368       _d_inf                     00000001400c7368     libucrtd:util.obj
 0002:0001b370       _d_max                     00000001400c7370     libucrtd:util.obj
 0002:0001b550       ??_C@_03KHJOGHMM@exp@      00000001400c7550     libucrtd:fpexcept.obj
 0002:0001b554       ??_C@_03JGHBODFD@pow@      00000001400c7554     libucrtd:fpexcept.obj
 0002:0001b558       ??_C@_03MGHMBJCF@log@      00000001400c7558     libucrtd:fpexcept.obj
 0002:0001b55c       ??_C@_05HGHHAHAP@log10@    00000001400c755c     libucrtd:fpexcept.obj
 0002:0001b564       ??_C@_04COOMCNPB@sinh@     00000001400c7564     libucrtd:fpexcept.obj
 0002:0001b56c       ??_C@_04HPJJNFIM@cosh@     00000001400c756c     libucrtd:fpexcept.obj
 0002:0001b574       ??_C@_04FJHINJAO@tanh@     00000001400c7574     libucrtd:fpexcept.obj
 0002:0001b57c       ??_C@_04FIHNOPOL@asin@     00000001400c757c     libucrtd:fpexcept.obj
 0002:0001b584       ??_C@_04MLLJIGOK@atan@     00000001400c7584     libucrtd:fpexcept.obj
 0002:0001b58c       ??_C@_05KNGEOGJB@atan2@    00000001400c758c     libucrtd:fpexcept.obj
 0002:0001b594       ??_C@_03BLEJJJBH@sin@      00000001400c7594     libucrtd:fpexcept.obj
 0002:0001b598       ??_C@_03LALBNOCG@cos@      00000001400c7598     libucrtd:fpexcept.obj
 0002:0001b59c       ??_C@_03IIINPABG@tan@      00000001400c759c     libucrtd:fpexcept.obj
 0002:0001b5a0       ??_C@_04GFPJNGEK@ceil@     00000001400c75a0     libucrtd:fpexcept.obj
 0002:0001b5a8       ??_C@_05PBJFFIGL@floor@    00000001400c75a8     libucrtd:fpexcept.obj
 0002:0001b5b0       ??_C@_04ODHECPBC@fabs@     00000001400c75b0     libucrtd:fpexcept.obj
 0002:0001b5b8       ??_C@_04EHEDPDJG@modf@     00000001400c75b8     libucrtd:fpexcept.obj
 0002:0001b5c0       ??_C@_05CEJMAHNP@ldexp@    00000001400c75c0     libucrtd:fpexcept.obj
 0002:0001b5c8       ??_C@_05KBKMEMPO@_cabs@    00000001400c75c8     libucrtd:fpexcept.obj
 0002:0001b5d0       ??_C@_06MEIMCGCF@_hypot@   00000001400c75d0     libucrtd:fpexcept.obj
 0002:0001b5d8       ??_C@_04KEPJIHGP@fmod@     00000001400c75d8     libucrtd:fpexcept.obj
 0002:0001b5e0       ??_C@_05GKKHEGJL@frexp@    00000001400c75e0     libucrtd:fpexcept.obj
 0002:0001b5e8       ??_C@_03MJLDFKDL@_y0@      00000001400c75e8     libucrtd:fpexcept.obj
 0002:0001b5ec       ??_C@_03NAKIGLHK@_y1@      00000001400c75ec     libucrtd:fpexcept.obj
 0002:0001b5f0       ??_C@_03ONILCKOB@_yn@      00000001400c75f0     libucrtd:fpexcept.obj
 0002:0001b5f4       ??_C@_05JGDBENOH@_logb@    00000001400c75f4     libucrtd:fpexcept.obj
 0002:0001b600       ??_C@_0L@KDOEJCKC@_nextafter@ 00000001400c7600     libucrtd:fpexcept.obj
 0002:0001b640       ??_C@_1GA@HBEFGMHK@?$AAm?$AAi?$AAn?$AAk?$AAe?$AAr?$AAn?$AAe?$AAl?$AA?2?$AAc?$AAr?$AAt?$AAs?$AA?2@ 00000001400c7640     libucrtd:xtoa.obj
 0002:0001b6a0       ??_C@_1BM@HMPEMLNP@?$AAc?$AAo?$AAm?$AAm?$AAo?$AAn?$AA_?$AAx?$AAt?$AAo?$AAx?$AA_?$AAs@ 00000001400c76a0     libucrtd:xtoa.obj
 0002:0001b6c0       ??_C@_1CC@ONIJBMJF@?$AAb?$AAu?$AAf?$AAf?$AAe?$AAr?$AA_?$AAc?$AAo?$AAu?$AAn?$AAt?$AA?5?$AA?$DO?$AA?5@ 00000001400c76c0     libucrtd:xtoa.obj
 0002:0001b6f0       ??_C@_1HA@JFIOFNKD@?$AAb?$AAu?$AAf?$AAf?$AAe?$AAr?$AA_?$AAc?$AAo?$AAu?$AAn?$AAt?$AA?5?$AA?$DO?$AA?5@ 00000001400c76f0     libucrtd:xtoa.obj
 0002:0001b760       ??_C@_1DE@PCJGDBBD@?$AA2?$AA?5?$AA?$DM?$AA?$DN?$AA?5?$AAr?$AAa?$AAd?$AAi?$AAx?$AA?5?$AA?$CG?$AA?$CG?$AA?5?$AAr@ 00000001400c7760     libucrtd:xtoa.obj
 0002:0001b798       ??_C@_1CM@LONILNIJ@?$AAl?$AAe?$AAn?$AAg?$AAt?$AAh?$AA?5?$AA?$DM?$AA?5?$AAb?$AAu?$AAf?$AAf?$AAe?$AAr@ 00000001400c7798     libucrtd:xtoa.obj
 0002:0001b7c8       ??_C@_1BI@OLPLFKOE@?$AAc?$AAo?$AAm?$AAm?$AAo?$AAn?$AA_?$AAx?$AAt?$AAo?$AAx@ 00000001400c77c8     libucrtd:xtoa.obj
 0002:0001b7e0       ??_C@_1DE@BCNCAIK@?$AA?$CI?$AA?$CC?$AAI?$AAn?$AAv?$AAa?$AAl?$AAi?$AAd?$AA?5?$AAe?$AAr?$AAr?$AAo?$AAr@ 00000001400c77e0     libucrtd:set_error_mode.obj
 0002:0001b820       ??_C@_1GO@EBFPMMIJ@?$AAm?$AAi?$AAn?$AAk?$AAe?$AAr?$AAn?$AAe?$AAl?$AA?2?$AAc?$AAr?$AAt?$AAs?$AA?2@ 00000001400c7820     libucrtd:set_error_mode.obj
 0002:0001b890       ??_C@_1CA@LFDHAMEM@?$AA_?$AAs?$AAe?$AAt?$AA_?$AAe?$AAr?$AAr?$AAo?$AAr?$AA_?$AAm?$AAo?$AAd?$AAe@ 00000001400c7890     libucrtd:set_error_mode.obj
 0002:0001b8b0       ??_C@_1CA@EOJJMFA@?$AAc?$AAo?$AAm?$AAm?$AAo?$AAn?$AA_?$AAt?$AAc?$AAs?$AAc?$AAa?$AAt?$AA_?$AAs@ 00000001400c78b0     libucrtd:wcscat_s.obj
 0002:0001b8d0       ??_C@_1DM@FHLMIEG@?$AAS?$AAt?$AAr?$AAi?$AAn?$AAg?$AA?5?$AAi?$AAs?$AA?5?$AAn?$AAo?$AAt?$AA?5?$AAn@ 00000001400c78d0     libucrtd:wcscat_s.obj
 0002:0001b910       ??_C@_1FA@MJKDNFFB@?$AA?$CI?$AAL?$AA?$CC?$AAS?$AAt?$AAr?$AAi?$AAn?$AAg?$AA?5?$AAi?$AAs?$AA?5?$AAn?$AAo@ 00000001400c7910     libucrtd:wcscat_s.obj
 0002:0001b960       ??_C@_1CC@HELMJGIF@?$AAc?$AAo?$AAm?$AAm?$AAo?$AAn?$AA_?$AAt?$AAc?$AAs?$AAn?$AAc?$AAa?$AAt?$AA_@ 00000001400c7960     libucrtd:wcsncat_s.obj
 0002:0001b9b0       ??_C@_0DB@BJFCCEBD@minkernel?2crts?2ucrt?2src?2appcrt?2@ 00000001400c79b0     libucrtd:setvbuf.obj
 0002:0001b9f0       ??_C@_1GC@NAMEPLDD@?$AAm?$AAi?$AAn?$AAk?$AAe?$AAr?$AAn?$AAe?$AAl?$AA?2?$AAc?$AAr?$AAt?$AAs?$AA?2@ 00000001400c79f0     libucrtd:setvbuf.obj
 0002:0001ba58       ??_C@_1BA@OGODIODK@?$AAs?$AAe?$AAt?$AAv?$AAb?$AAu?$AAf@ 00000001400c7a58     libucrtd:setvbuf.obj
 0002:0001ba70       ??_C@_1GG@CBGCKJPC@?$AAt?$AAy?$AAp?$AAe?$AA?5?$AA?$DN?$AA?$DN?$AA?5?$AA_?$AAI?$AAO?$AAN?$AAB?$AAF?$AA?5@ 00000001400c7a70     libucrtd:setvbuf.obj
 0002:0001bae0       ??_C@_1HK@PBPJKDDM@?$AA2?$AA?5?$AA?$DM?$AA?$DN?$AA?5?$AAb?$AAu?$AAf?$AAf?$AAe?$AAr?$AA_?$AAs?$AAi?$AAz@ 00000001400c7ae0     libucrtd:setvbuf.obj
 0002:0001bb60       ??_C@_1DA@NBILLKNO@?$AAl?$AAo?$AAc?$AAa?$AAl?$AA_?$AAa?$AAc?$AAt?$AAi?$AAo?$AAn?$AA?5?$AA?$CB?$AA?$DN@ 00000001400c7b60     libucrtd:signal.obj
 0002:0001bb90       ??_C@_1FO@CCGDPEKE@?$AAm?$AAi?$AAn?$AAk?$AAe?$AAr?$AAn?$AAe?$AAl?$AA?2?$AAc?$AAr?$AAt?$AAs?$AA?2@ 00000001400c7b90     libucrtd:signal.obj
 0002:0001bbf0       ??_C@_1M@DMJEIKHL@?$AAr?$AAa?$AAi?$AAs?$AAe@ 00000001400c7bf0     libucrtd:signal.obj
 0002:0001bc00       ??_C@_1DO@MLNEDKGB@?$AA?$CI?$AA?$CC?$AAI?$AAn?$AAv?$AAa?$AAl?$AAi?$AAd?$AA?5?$AAs?$AAi?$AAg?$AAn?$AAa@ 00000001400c7c00     libucrtd:signal.obj
 0002:0001bc40       __Lcosarray                00000001400c7c40     libucrtd:lsincos_array.obj
 0002:0001bca0       __Lsinarray                00000001400c7ca0     libucrtd:lsincos_array.obj
 0002:0001c020       ??_C@_04LAGPAAHP@sinf@     00000001400c8020     libucrtd:sincos_special.obj
 0002:0001c028       ??_C@_04OBBKPIAC@cosf@     00000001400c8028     libucrtd:sincos_special.obj
 0002:0001c030       ??_C@_04MHPLPEIA@tanf@     00000001400c8030     libucrtd:sincos_special.obj
 0002:0001c050       __Lcosfarray               00000001400c8050     libucrtd:lsincosf_array.obj
 0002:0001c080       __Lsinfarray               00000001400c8080     libucrtd:lsincosf_array.obj
 0002:0001c0a0       __log_256_lead             00000001400c80a0     libucrtd:log_256_lead_tail_table.obj
 0002:0001c8b0       __log_256_tail             00000001400c88b0     libucrtd:log_256_lead_tail_table.obj
 0002:0001d0c0       __two_to_jby64_head_table  00000001400c90c0     libucrtd:two_to_jby64_head_tail_table.obj
 0002:0001d2c0       __two_to_jby64_tail_table  00000001400c92c0     libucrtd:two_to_jby64_head_tail_table.obj
 0002:0001d4c0       __L_2_by_pi_bits           00000001400c94c0     libucrtd:l2_by_pi_bits.obj
 0002:0001d610       ??_C@_1CC@CHNFGJIC@?$AAc?$AAo?$AAm?$AAm?$AAo?$AAn?$AA_?$AAt?$AAc?$AAs?$AAn?$AAc?$AAp?$AAy?$AA_@ 00000001400c9610     libucrtd:wcsncpy_s.obj
 0002:0001d660       ??_C@_0DI@DNFGFCIK@minkernel?2crts?2ucrt?2inc?2corecrt@ 00000001400c9660     libucrtd:argv_wildcards.obj
 0002:0001d6a0       ??_C@_1HE@CEMHPOHH@?$AAm?$AAi?$AAn?$AAk?$AAe?$AAr?$AAn?$AAe?$AAl?$AA?2?$AAc?$AAr?$AAt?$AAs?$AA?2@ 00000001400c96a0     libucrtd:argv_wildcards.obj
 0002:0001d718       ??_C@_1DK@IBFFOJGB@?$AAc?$AAo?$AAm?$AAm?$AAo?$AAn?$AA_?$AAe?$AAx?$AAp?$AAa?$AAn?$AAd?$AA_?$AAa@ 00000001400c9718     libucrtd:argv_wildcards.obj
 0002:0001d760       ??_C@_1MC@FLPKOFON@?$AAt?$AAr?$AAa?$AAi?$AAt?$AAs?$AA?3?$AA?3?$AAt?$AAc?$AAs?$AAn?$AAc?$AAp?$AAy@ 00000001400c9760     libucrtd:argv_wildcards.obj
 0002:0001d828       ??_C@_0DK@FPFMIIJB@minkernel?2crts?2ucrt?2src?2appcrt?2@ 00000001400c9828     libucrtd:argv_wildcards.obj
 0002:0001d870       ??_C@_1EA@KOCCBLAD@?$AAc?$AAo?$AAp?$AAy?$AA_?$AAa?$AAn?$AAd?$AA_?$AAa?$AAd?$AAd?$AA_?$AAa?$AAr@ 00000001400c9870     libucrtd:argv_wildcards.obj
 0002:0001d8b0       ??_C@_1KM@GDJIGAGL@?$AAt?$AAr?$AAa?$AAi?$AAt?$AAs?$AA?3?$AA?3?$AAt?$AAc?$AAs?$AAn?$AAc?$AAp?$AAy@ 00000001400c98b0     libucrtd:argv_wildcards.obj
 0002:0001d960       ??_C@_1PI@FGFLAGCC@?$AAt?$AAr?$AAa?$AAi?$AAt?$AAs?$AA?3?$AA?3?$AAt?$AAc?$AAs?$AAn?$AAc?$AAp?$AAy@ 00000001400c9960     libucrtd:argv_wildcards.obj
 0002:0001da78       ??_C@_1M@HPNHIDJI@?$AAj?$AAa?$AA?9?$AAJ?$AAP@ 00000001400c9a78     libucrtd:mbctype.obj
 0002:0001da88       ??_C@_1M@BIBDDEMK@?$AAz?$AAh?$AA?9?$AAC?$AAN@ 00000001400c9a88     libucrtd:mbctype.obj
 0002:0001da98       ??_C@_1M@JLOOOEGK@?$AAk?$AAo?$AA?9?$AAK?$AAR@ 00000001400c9a98     libucrtd:mbctype.obj
 0002:0001daa8       ??_C@_1M@CLNBBOPM@?$AAz?$AAh?$AA?9?$AAT?$AAW@ 00000001400c9aa8     libucrtd:mbctype.obj
 0002:0001dab8       ??_C@_0DE@HGDKNBFD@minkernel?2crts?2ucrt?2src?2appcrt?2@ 00000001400c9ab8     libucrtd:mbctype.obj
 0002:0001daf0       ??_C@_0ED@BLPEHJAI@minkernel?2crts?2ucrt?2src?2desktop@ 00000001400c9af0     libucrtd:get_environment_from_os.obj
 0002:0001db38       ??_C@_1DO@PANKIJNP@?$AAe?$AAq?$AAu?$AAa?$AAl?$AA_?$AAs?$AAi?$AAg?$AAn?$AA?5?$AA?9?$AA?5?$AAo?$AAp@ 00000001400c9b38     libucrtd:setenv.obj
 0002:0001db80       ??_C@_1GE@MMOHBENP@?$AAm?$AAi?$AAn?$AAk?$AAe?$AAr?$AAn?$AAe?$AAl?$AA?2?$AAc?$AAr?$AAt?$AAs?$AA?2@ 00000001400c9b80     libucrtd:setenv.obj
 0002:0001dbf0       ??_C@_1GK@KBABANDM@?$AAt?$AAr?$AAa?$AAi?$AAt?$AAs?$AA?3?$AA?3?$AAt?$AAc?$AAs?$AAn?$AAl?$AAe?$AAn@ 00000001400c9bf0     libucrtd:setenv.obj
 0002:0001dc60       ??_C@_0DC@NJKMKCIL@minkernel?2crts?2ucrt?2src?2desktop@ 00000001400c9c60     libucrtd:setenv.obj
 0002:0001dca0       ??_C@_1EC@IKJPFBIM@?$AA?$CI?$AA?$CC?$AAC?$AAR?$AAT?$AA?5?$AAl?$AAo?$AAg?$AAi?$AAc?$AA?5?$AAe?$AAr?$AAr@ 00000001400c9ca0     libucrtd:setenv.obj
 0002:0001dcf0       ??_C@_1FE@KHMDCEEJ@?$AAc?$AAo?$AAm?$AAm?$AAo?$AAn?$AA_?$AAs?$AAe?$AAt?$AA_?$AAv?$AAa?$AAr?$AAi@ 00000001400c9cf0     libucrtd:setenv.obj
 0002:0001dd50       ??_C@_1EM@NIOJJLEA@?$AAt?$AAr?$AAa?$AAi?$AAt?$AAs?$AA?3?$AA?3?$AAt?$AAc?$AAs?$AAc?$AAp?$AAy?$AA_@ 00000001400c9d50     libucrtd:setenv.obj
 0002:0001dda0       ??_C@_1CC@PIMGMDJH@?$AAc?$AAo?$AAp?$AAy?$AA_?$AAe?$AAn?$AAv?$AAi?$AAr?$AAo?$AAn?$AAm?$AAe?$AAn@ 00000001400c9da0     libucrtd:setenv.obj
 0002:0001ddd0       ??_C@_1GG@EDHOMIDL@?$AAt?$AAr?$AAa?$AAi?$AAt?$AAs?$AA?3?$AA?3?$AAt?$AAc?$AAs?$AAc?$AAp?$AAy?$AA_@ 00000001400c9dd0     libucrtd:setenv.obj
 0002:0001de40       ??_C@_1FO@NMANMHOD@?$AAc?$AAa?$AAc?$AAh?$AAe?$AAd?$AA_?$AAs?$AAt?$AAa?$AAt?$AAe?$AA?5?$AA?$DN?$AA?$DN@ 00000001400c9e40     libucrtd:win_policies.obj
 0002:0001dea0       ??_C@_1HC@GHLNKBJK@?$AAm?$AAi?$AAn?$AAk?$AAe?$AAr?$AAn?$AAe?$AAl?$AA?2?$AAc?$AAr?$AAt?$AAs?$AA?2@ 00000001400c9ea0     libucrtd:win_policies.obj
 0002:0001df18       ??_C@_0DB@JFFPGLDM@minkernel?2crts?2ucrt?2src?2appcrt?2@ 00000001400c9f18     libucrtd:osfinfo.obj
 0002:0001df50       ??_C@_1EM@BPODPNEJ@?$AAs?$AAt?$AAa?$AAt?$AAi?$AAc?$AA_?$AAc?$AAa?$AAs?$AAt?$AA?$DM?$AAu?$AAn?$AAs@ 00000001400c9f50     libucrtd:osfinfo.obj
 0002:0001dfa0       ??_C@_1GC@LDGKBAFM@?$AAm?$AAi?$AAn?$AAk?$AAe?$AAr?$AAn?$AAe?$AAl?$AA?2?$AAc?$AAr?$AAt?$AAs?$AA?2@ 00000001400c9fa0     libucrtd:osfinfo.obj
 0002:0001e008       ??_C@_1DM@JELNOMLN@?$AA_?$AA_?$AAa?$AAc?$AAr?$AAt?$AA_?$AAl?$AAo?$AAw?$AAi?$AAo?$AA_?$AAe?$AAn@ 00000001400ca008     libucrtd:osfinfo.obj
 0002:0001e048       ??_C@_1BO@EMBOBGKE@?$AA_?$AAg?$AAe?$AAt?$AA_?$AAo?$AAs?$AAf?$AAh?$AAa?$AAn?$AAd?$AAl?$AAe@ 00000001400ca048     libucrtd:osfinfo.obj
 0002:0001e070       ??_C@_1FE@KNPCCODH@?$AA?$CI?$AA?$CC?$AAC?$AAo?$AAr?$AAr?$AAu?$AAp?$AAt?$AAe?$AAd?$AA?5?$AAp?$AAo?$AAi@ 00000001400ca070     libucrtd:getstringtypea.obj
 0002:0001e0d0       ??_C@_1EM@GPJLADAA@?$AAV?$AAC?$AAC?$AAR?$AAT?$AA?2?$AAv?$AAc?$AAr?$AAu?$AAn?$AAt?$AAi?$AAm?$AAe@ 00000001400ca0d0     libucrtd:getstringtypea.obj
 0002:0001e120       ??_C@_0DJ@HCPJODDK@minkernel?2crts?2ucrt?2src?2appcrt?2@ 00000001400ca120     libucrtd:getstringtypea.obj
 0002:0001e160       ??_C@_1BKC@NBNHJIDM@?$AA?$CI?$AAp?$AAt?$AAl?$AAo?$AAc?$AAi?$AA?9?$AA?$DO?$AAl?$AAc?$AA_?$AAc?$AAa?$AAt@ 00000001400ca160     libucrtd:locale_refcounting.obj
 0002:0001e310       ??_C@_1HK@HCNMEOLA@?$AAm?$AAi?$AAn?$AAk?$AAe?$AAr?$AAn?$AAe?$AAl?$AA?2?$AAc?$AAr?$AAt?$AAs?$AA?2@ 00000001400ca310     libucrtd:locale_refcounting.obj
 0002:0001e38c       ??_C@_15PJPFLCCM@?$AAu?$AAk@ 00000001400ca38c     libucrtd:get_qualified_locale.obj
 0002:0001e3a0       ??_C@_1FO@GEKPJHID@?$AAm?$AAi?$AAn?$AAk?$AAe?$AAr?$AAn?$AAe?$AAl?$AA?2?$AAc?$AAr?$AAt?$AAs?$AA?2@ 00000001400ca3a0     libucrtd:expand.obj
 0002:0001e400       ??_C@_1BK@JMCGJOCC@?$AA_?$AAe?$AAx?$AAp?$AAa?$AAn?$AAd?$AA_?$AAb?$AAa?$AAs?$AAe@ 00000001400ca400     libucrtd:expand.obj
 0002:0001e420       ??_C@_1GA@LFAOKOOP@?$AAm?$AAi?$AAn?$AAk?$AAe?$AAr?$AAn?$AAe?$AAl?$AA?2?$AAc?$AAr?$AAt?$AAs?$AA?2@ 00000001400ca420     libucrtd:dbgrptt.obj
 0002:0001e480       ??_C@_1CA@KHJHLKA@?$AA_?$AAV?$AAC?$AAr?$AAt?$AAD?$AAb?$AAg?$AAR?$AAe?$AAp?$AAo?$AAr?$AAt?$AAA@ 00000001400ca480     libucrtd:dbgrptt.obj
 0002:0001e4a0       ??_C@_1FA@JPHJBHEM@?$AA_?$AAi?$AAt?$AAo?$AAa?$AA_?$AAs?$AA?$CI?$AAn?$AAL?$AAi?$AAn?$AAe?$AA?0?$AA?5@ 00000001400ca4a0     libucrtd:dbgrptt.obj
 0002:0001e4f0       ??_C@_0CG@BNGLOCEO@Second?5Chance?5Assertion?5Failed?3@ 00000001400ca4f0     libucrtd:dbgrptt.obj
 0002:0001e518       ??_C@_0P@DFJNDPOP@?$DMfile?5unknown?$DO@ 00000001400ca518     libucrtd:dbgrptt.obj
 0002:0001e528       ??_C@_07BHGABMGB@?0?5Line?5@ 00000001400ca528     libucrtd:dbgrptt.obj
 0002:0001e530       ??_C@_1JI@GAALPGBM@?$AAs?$AAt?$AAr?$AAc?$AAp?$AAy?$AA_?$AAs?$AA?$CI?$AAs?$AAz?$AAU?$AAs?$AAe?$AAr@ 00000001400ca530     libucrtd:dbgrptt.obj
 0002:0001e5c8       ??_C@_0CL@EACFGMNB@_CrtDbgReport?3?5String?5too?5long?5@ 00000001400ca5c8     libucrtd:dbgrptt.obj
 0002:0001e600       ??_C@_1KK@GIGAEDMO@?$AAs?$AAt?$AAr?$AAc?$AAp?$AAy?$AA_?$AAs?$AA?$CI?$AAs?$AAz?$AAL?$AAi?$AAn?$AAe@ 00000001400ca600     libucrtd:dbgrptt.obj
 0002:0001e6b0       ??_C@_0BD@CAENFOHP@Assertion?5failed?3?5@ 00000001400ca6b0     libucrtd:dbgrptt.obj
 0002:0001e6d0       ??_C@_1FK@NPGBPOFO@?$AAs?$AAt?$AAr?$AAc?$AAa?$AAt?$AA_?$AAs?$AA?$CI?$AAs?$AAz?$AAL?$AAi?$AAn?$AAe@ 00000001400ca6d0     libucrtd:dbgrptt.obj
 0002:0001e730       ??_C@_1EI@CACDLAFK@?$AAs?$AAt?$AAr?$AAc?$AAa?$AAt?$AA_?$AAs?$AA?$CI?$AAs?$AAz?$AAL?$AAi?$AAn?$AAe@ 00000001400ca730     libucrtd:dbgrptt.obj
 0002:0001e778       ??_C@_01LIIJDEN@?$AN@      00000001400ca778     libucrtd:dbgrptt.obj
 0002:0001e780       ??_C@_1EI@LDHJEDO@?$AAs?$AAt?$AAr?$AAc?$AAa?$AAt?$AA_?$AAs?$AA?$CI?$AAs?$AAz?$AAL?$AAi?$AAn?$AAe@ 00000001400ca780     libucrtd:dbgrptt.obj
 0002:0001e7c8       ??_C@_0M@IPILFDFN@?$CFs?$CI?$CFd?$CJ?5?3?5?$CFs@ 00000001400ca7c8     libucrtd:dbgrptt.obj
 0002:0001e7e0       ??_C@_1JG@CPKCIOEE@?$AAs?$AAt?$AAr?$AAc?$AAp?$AAy?$AA_?$AAs?$AA?$CI?$AAs?$AAz?$AAO?$AAu?$AAt?$AAM@ 00000001400ca7e0     libucrtd:dbgrptt.obj
 0002:0001e880       ??_C@_1FI@IBIOIHEG@?$AAs?$AAt?$AAr?$AAc?$AAp?$AAy?$AA_?$AAs?$AA?$CI?$AAs?$AAz?$AAO?$AAu?$AAt?$AAM@ 00000001400ca880     libucrtd:dbgrptt.obj
 0002:0001e8e0       ??_C@_1IM@OOKIFKOH@?$AAe?$AA?5?$AA?$DN?$AA?5?$AAm?$AAb?$AAs?$AAt?$AAo?$AAw?$AAc?$AAs?$AA_?$AAs?$AA?$CI@ 00000001400ca8e0     libucrtd:dbgrptt.obj
 0002:0001e970       ??_C@_1MC@IGEECMDB@?$AAw?$AAc?$AAs?$AAc?$AAp?$AAy?$AA_?$AAs?$AA?$CI?$AAs?$AAz?$AAO?$AAu?$AAt?$AAM@ 00000001400ca970     libucrtd:dbgrptt.obj
 0002:0001ea40       ??_C@_1HO@PJOFIKFE@?$AA_?$AAC?$AAr?$AAt?$AAD?$AAb?$AAg?$AAR?$AAe?$AAp?$AAo?$AAr?$AAt?$AA?3?$AA?5@ 00000001400caa40     libucrtd:dbgrptt.obj
 0002:0001eac0       ??_C@_1CA@HPALHDOD@?$AA_?$AAV?$AAC?$AAr?$AAt?$AAD?$AAb?$AAg?$AAR?$AAe?$AAp?$AAo?$AAr?$AAt?$AAW@ 00000001400caac0     libucrtd:dbgrptt.obj
 0002:0001eae0       ??_C@_1FA@CNLLOMHI@?$AA_?$AAi?$AAt?$AAo?$AAw?$AA_?$AAs?$AA?$CI?$AAn?$AAL?$AAi?$AAn?$AAe?$AA?0?$AA?5@ 00000001400caae0     libucrtd:dbgrptt.obj
 0002:0001eb30       ??_C@_1EM@MJFLEDMB@?$AAS?$AAe?$AAc?$AAo?$AAn?$AAd?$AA?5?$AAC?$AAh?$AAa?$AAn?$AAc?$AAe?$AA?5?$AAA@ 00000001400cab30     libucrtd:dbgrptt.obj
 0002:0001eb80       ??_C@_1BO@OCHMLCAG@?$AA?$DM?$AAf?$AAi?$AAl?$AAe?$AA?5?$AAu?$AAn?$AAk?$AAn?$AAo?$AAw?$AAn?$AA?$DO@ 00000001400cab80     libucrtd:dbgrptt.obj
 0002:0001eba0       ??_C@_1BA@ELMMDCFC@?$AA?0?$AA?5?$AAL?$AAi?$AAn?$AAe?$AA?5@ 00000001400caba0     libucrtd:dbgrptt.obj
 0002:0001ebb0       ??_C@_1JK@KHFABAEO@?$AAw?$AAc?$AAs?$AAc?$AAp?$AAy?$AA_?$AAs?$AA?$CI?$AAs?$AAz?$AAU?$AAs?$AAe?$AAr@ 00000001400cabb0     libucrtd:dbgrptt.obj
 0002:0001ec50       ??_C@_1KO@DGAHENCH@?$AAw?$AAc?$AAs?$AAc?$AAp?$AAy?$AA_?$AAs?$AA?$CI?$AAs?$AAz?$AAL?$AAi?$AAn?$AAe@ 00000001400cac50     libucrtd:dbgrptt.obj
 0002:0001ed00       ??_C@_1CG@FFFGGODN@?$AAA?$AAs?$AAs?$AAe?$AAr?$AAt?$AAi?$AAo?$AAn?$AA?5?$AAf?$AAa?$AAi?$AAl?$AAe@ 00000001400cad00     libucrtd:dbgrptt.obj
 0002:0001ed30       ??_C@_1FK@HPADHBBD@?$AAw?$AAc?$AAs?$AAc?$AAa?$AAt?$AA_?$AAs?$AA?$CI?$AAs?$AAz?$AAL?$AAi?$AAn?$AAe@ 00000001400cad30     libucrtd:dbgrptt.obj
 0002:0001ed90       ??_C@_1EK@NMDFGHMF@?$AAw?$AAc?$AAs?$AAc?$AAa?$AAt?$AA_?$AAs?$AA?$CI?$AAs?$AAz?$AAL?$AAi?$AAn?$AAe@ 00000001400cad90     libucrtd:dbgrptt.obj
 0002:0001eddc       ??_C@_13CMNBPIDO@?$AA?$AN@ 00000001400caddc     libucrtd:dbgrptt.obj
 0002:0001ede0       ??_C@_1EK@PHCBEDKB@?$AAw?$AAc?$AAs?$AAc?$AAa?$AAt?$AA_?$AAs?$AA?$CI?$AAs?$AAz?$AAL?$AAi?$AAn?$AAe@ 00000001400cade0     libucrtd:dbgrptt.obj
 0002:0001ee30       ??_C@_1BM@GIBPMLNL@?$AA?$CF?$AAl?$AAs?$AA?$CI?$AA?$CF?$AAd?$AA?$CJ?$AA?5?$AA?3?$AA?5?$AA?$CF?$AAl?$AAs@ 00000001400cae30     libucrtd:dbgrptt.obj
 0002:0001ee50       ??_C@_1JI@EACPGHID@?$AAw?$AAc?$AAs?$AAc?$AAp?$AAy?$AA_?$AAs?$AA?$CI?$AAs?$AAz?$AAO?$AAu?$AAt?$AAM@ 00000001400cae50     libucrtd:dbgrptt.obj
 0002:0001eef0       ??_C@_1FI@DBAIJPJE@?$AAw?$AAc?$AAs?$AAc?$AAp?$AAy?$AA_?$AAs?$AA?$CI?$AAs?$AAz?$AAO?$AAu?$AAt?$AAM@ 00000001400caef0     libucrtd:dbgrptt.obj
 0002:0001ef50       ??_C@_1IK@LEBMBAP@?$AAw?$AAc?$AAs?$AAt?$AAo?$AAm?$AAb?$AAs?$AA_?$AAs?$AA?$CI?$AAn?$AAu?$AAl?$AAl@ 00000001400caf50     libucrtd:dbgrptt.obj
 0002:0001efe0       ??_C@_1MA@LBAMNNOB@?$AAs?$AAt?$AAr?$AAc?$AAp?$AAy?$AA_?$AAs?$AA?$CI?$AAs?$AAz?$AAO?$AAu?$AAt?$AAM@ 00000001400cafe0     libucrtd:dbgrptt.obj
 0002:0001f0a0       ??_C@_0DP@GNPEPHJD@_CrtDbgReport?3?5String?5too?5long?5@ 00000001400cb0a0     libucrtd:dbgrptt.obj
 0002:0001f0e0       ??_C@_1IE@CPGKIAGP@?$AAw?$AAc?$AAs?$AAt?$AAo?$AAm?$AAb?$AAs?$AA_?$AAs?$AA?$CI?$AA?$CG?$AAr?$AAe?$AAt@ 00000001400cb0e0     libucrtd:dbgrptt.obj
 0002:0001ffb0       ??_C@_15EMKDOKLE@?$AAa?$AAr@ 00000001400cbfb0     libucrtd:lcidtoname_downlevel.obj
 0002:0001ffb8       ??_C@_15KNPADPLH@?$AAb?$AAg@ 00000001400cbfb8     libucrtd:lcidtoname_downlevel.obj
 0002:0001ffc0       ??_C@_15EDMHLDMO@?$AAc?$AAa@ 00000001400cbfc0     libucrtd:lcidtoname_downlevel.obj
 0002:0001ffc8       ??_C@_1O@BPEAJADD@?$AAz?$AAh?$AA?9?$AAC?$AAH?$AAS@ 00000001400cbfc8     libucrtd:lcidtoname_downlevel.obj
 0002:0001ffd8       ??_C@_15LJNHCMNK@?$AAc?$AAs@ 00000001400cbfd8     libucrtd:lcidtoname_downlevel.obj
 0002:0001ffe0       ??_C@_15FOMCIDHG@?$AAd?$AAa@ 00000001400cbfe0     libucrtd:lcidtoname_downlevel.obj
 0002:0001ffe8       ??_C@_15NBKABECB@?$AAd?$AAe@ 00000001400cbfe8     libucrtd:lcidtoname_downlevel.obj
 0002:0001fff0       ??_C@_15GHPEIIAO@?$AAe?$AAl@ 00000001400cbff0     libucrtd:lcidtoname_downlevel.obj
 0002:0001fff8       ??_C@_15MNPNEAIF@?$AAe?$AAn@ 00000001400cbff8     libucrtd:lcidtoname_downlevel.obj
 0002:00020000       ??_C@_15GPIOMPMH@?$AAe?$AAs@ 00000001400cc000     libucrtd:lcidtoname_downlevel.obj
 0002:00020008       ??_C@_15NGLOAKJC@?$AAf?$AAi@ 00000001400cc008     libucrtd:lcidtoname_downlevel.obj
 0002:00020010       ??_C@_15FBKGNKAM@?$AAf?$AAr@ 00000001400cc010     libucrtd:lcidtoname_downlevel.obj
 0002:00020018       ??_C@_15KGGCNEFK@?$AAh?$AAe@ 00000001400cc018     libucrtd:lcidtoname_downlevel.obj
 0002:00020020       ??_C@_15PGHLIDMF@?$AAh?$AAu@ 00000001400cc020     libucrtd:lcidtoname_downlevel.obj
 0002:00020028       ??_C@_15BIEMAPLM@?$AAi?$AAs@ 00000001400cc028     libucrtd:lcidtoname_downlevel.obj
 0002:00020030       ??_C@_15IFJLDHAF@?$AAi?$AAt@ 00000001400cc030     libucrtd:lcidtoname_downlevel.obj
 0002:00020038       ??_C@_15GEMIOCAG@?$AAj?$AAa@ 00000001400cc038     libucrtd:lcidtoname_downlevel.obj
 0002:00020040       ??_C@_15EPELEGJA@?$AAk?$AAo@ 00000001400cc040     libucrtd:lcidtoname_downlevel.obj
 0002:00020048       ??_C@_15NDDHIMN@?$AAn?$AAl@ 00000001400cc048     libucrtd:lcidtoname_downlevel.obj
 0002:00020050       ??_C@_15BPIGNHCD@?$AAn?$AAo@ 00000001400cc050     libucrtd:lcidtoname_downlevel.obj
 0002:00020058       ??_C@_15DEOPBLCG@?$AAp?$AAl@ 00000001400cc058     libucrtd:lcidtoname_downlevel.obj
 0002:00020060       ??_C@_15KBECGEFG@?$AAp?$AAt@ 00000001400cc060     libucrtd:lcidtoname_downlevel.obj
 0002:00020068       ??_C@_15GLJCBFMD@?$AAr?$AAo@ 00000001400cc068     libucrtd:lcidtoname_downlevel.obj
 0002:00020070       ??_C@_15FEDGKCDI@?$AAr?$AAu@ 00000001400cc070     libucrtd:lcidtoname_downlevel.obj
 0002:00020078       ??_C@_15GLKMLLHM@?$AAh?$AAr@ 00000001400cc078     libucrtd:lcidtoname_downlevel.obj
 0002:00020080       ??_C@_15CPKMFBDB@?$AAs?$AAk@ 00000001400cc080     libucrtd:lcidtoname_downlevel.obj
 0002:00020088       ??_C@_15BAAIOGMK@?$AAs?$AAq@ 00000001400cc088     libucrtd:lcidtoname_downlevel.obj
 0002:00020090       ??_C@_15INNPNOHD@?$AAs?$AAv@ 00000001400cc090     libucrtd:lcidtoname_downlevel.obj
 0002:00020098       ??_C@_15CABMMOGH@?$AAt?$AAh@ 00000001400cc098     libucrtd:lcidtoname_downlevel.obj
 0002:000200a0       ??_C@_15BPLIHJJM@?$AAt?$AAr@ 00000001400cc0a0     libucrtd:lcidtoname_downlevel.obj
 0002:000200a8       ??_C@_15NEOEKKDJ@?$AAu?$AAr@ 00000001400cc0a8     libucrtd:lcidtoname_downlevel.obj
 0002:000200b0       ??_C@_15NFICGAJK@?$AAi?$AAd@ 00000001400cc0b0     libucrtd:lcidtoname_downlevel.obj
 0002:000200b8       ??_C@_15HPJPHDM@?$AAb?$AAe@ 00000001400cc0b8     libucrtd:lcidtoname_downlevel.obj
 0002:000200c0       ??_C@_15LCHLGJII@?$AAs?$AAl@ 00000001400cc0c0     libucrtd:lcidtoname_downlevel.obj
 0002:000200c8       ??_C@_15PCFJPHHO@?$AAe?$AAt@ 00000001400cc0c8     libucrtd:lcidtoname_downlevel.obj
 0002:000200d0       ??_C@_15HPFPGODN@?$AAl?$AAv@ 00000001400cc0d0     libucrtd:lcidtoname_downlevel.obj
 0002:000200d8       ??_C@_15NFFGKGLG@?$AAl?$AAt@ 00000001400cc0d8     libucrtd:lcidtoname_downlevel.obj
 0002:000200e0       ??_C@_15BDAKCCHN@?$AAf?$AAa@ 00000001400cc0e0     libucrtd:lcidtoname_downlevel.obj
 0002:000200e8       ??_C@_15NFGIAIAJ@?$AAv?$AAi@ 00000001400cc0e8     libucrtd:lcidtoname_downlevel.obj
 0002:000200f0       ??_C@_15LMKNDMHN@?$AAh?$AAy@ 00000001400cc0f0     libucrtd:lcidtoname_downlevel.obj
 0002:000200f8       ??_C@_15IJBHMCFL@?$AAa?$AAz@ 00000001400cc0f8     libucrtd:lcidtoname_downlevel.obj
 0002:00020100       ??_C@_15EKOFJABL@?$AAe?$AAu@ 00000001400cc100     libucrtd:lcidtoname_downlevel.obj
 0002:00020108       ??_C@_15BGHADCNK@?$AAm?$AAk@ 00000001400cc108     libucrtd:lcidtoname_downlevel.obj
 0002:00020110       ??_C@_15JDNICKHM@?$AAa?$AAf@ 00000001400cc110     libucrtd:lcidtoname_downlevel.obj
 0002:00020118       ??_C@_15KPJEDBKD@?$AAk?$AAa@ 00000001400cc118     libucrtd:lcidtoname_downlevel.obj
 0002:00020120       ??_C@_15PDNFFFEO@?$AAf?$AAo@ 00000001400cc120     libucrtd:lcidtoname_downlevel.obj
 0002:00020128       ??_C@_15OMLEGLOC@?$AAh?$AAi@ 00000001400cc128     libucrtd:lcidtoname_downlevel.obj
 0002:00020130       ??_C@_15IDNNENKK@?$AAm?$AAs@ 00000001400cc130     libucrtd:lcidtoname_downlevel.obj
 0002:00020138       ??_C@_15MACJNBMH@?$AAk?$AAk@ 00000001400cc138     libucrtd:lcidtoname_downlevel.obj
 0002:00020140       ??_C@_15DKDJEOND@?$AAk?$AAy@ 00000001400cc140     libucrtd:lcidtoname_downlevel.obj
 0002:00020148       ??_C@_15DFGDLJBG@?$AAs?$AAw@ 00000001400cc148     libucrtd:lcidtoname_downlevel.obj
 0002:00020150       ??_C@_15BBFAICNG@?$AAu?$AAz@ 00000001400cc150     libucrtd:lcidtoname_downlevel.obj
 0002:00020158       ??_C@_15DKNDCGEA@?$AAt?$AAt@ 00000001400cc158     libucrtd:lcidtoname_downlevel.obj
 0002:00020160       ??_C@_15MGIFMDPL@?$AAp?$AAa@ 00000001400cc160     libucrtd:lcidtoname_downlevel.obj
 0002:00020168       ??_C@_15HCNDBBA@?$AAg?$AAu@ 00000001400cc168     libucrtd:lcidtoname_downlevel.obj
 0002:00020170       ??_C@_15FNBEIBON@?$AAt?$AAa@ 00000001400cc170     libucrtd:lcidtoname_downlevel.obj
 0002:00020178       ??_C@_15NCHGBGLK@?$AAt?$AAe@ 00000001400cc178     libucrtd:lcidtoname_downlevel.obj
 0002:00020180       ??_C@_15PHPHCBPF@?$AAk?$AAn@ 00000001400cc180     libucrtd:lcidtoname_downlevel.obj
 0002:00020188       ??_C@_15DLGBCKMP@?$AAm?$AAr@ 00000001400cc188     libucrtd:lcidtoname_downlevel.obj
 0002:00020190       ??_C@_15EABBLBFF@?$AAs?$AAa@ 00000001400cc190     libucrtd:lcidtoname_downlevel.obj
 0002:00020198       ??_C@_15CBKOMCOI@?$AAm?$AAn@ 00000001400cc198     libucrtd:lcidtoname_downlevel.obj
 0002:000201a0       ??_C@_15CKDMCJAF@?$AAg?$AAl@ 00000001400cc1a0     libucrtd:lcidtoname_downlevel.obj
 0002:000201a8       ??_C@_17CNJFBPG@?$AAk?$AAo?$AAk@ 00000001400cc1a8     libucrtd:lcidtoname_downlevel.obj
 0002:000201b0       ??_C@_17FFBJICPL@?$AAs?$AAy?$AAr@ 00000001400cc1b0     libucrtd:lcidtoname_downlevel.obj
 0002:000201b8       ??_C@_17KPNDCPAF@?$AAd?$AAi?$AAv@ 00000001400cc1b8     libucrtd:lcidtoname_downlevel.obj
 0002:000201c0       ??_C@_1M@OKAHONE@?$AAa?$AAr?$AA?9?$AAS?$AAA@ 00000001400cc1c0     libucrtd:lcidtoname_downlevel.obj
 0002:000201d0       ??_C@_1M@FFFIGIGK@?$AAb?$AAg?$AA?9?$AAB?$AAG@ 00000001400cc1d0     libucrtd:lcidtoname_downlevel.obj
 0002:000201e0       ??_C@_1M@BJNKEDC@?$AAc?$AAa?$AA?9?$AAE?$AAS@ 00000001400cc1e0     libucrtd:lcidtoname_downlevel.obj
 0002:000201f0       ??_C@_1M@IJJHFJHA@?$AAc?$AAs?$AA?9?$AAC?$AAZ@ 00000001400cc1f0     libucrtd:lcidtoname_downlevel.obj
 0002:00020200       ??_C@_1M@CLPEOBGI@?$AAd?$AAa?$AA?9?$AAD?$AAK@ 00000001400cc200     libucrtd:lcidtoname_downlevel.obj
 0002:00020210       ??_C@_1M@MCMADGCB@?$AAd?$AAe?$AA?9?$AAD?$AAE@ 00000001400cc210     libucrtd:lcidtoname_downlevel.obj
 0002:00020220       ??_C@_1M@OOCKEMAM@?$AAe?$AAl?$AA?9?$AAG?$AAR@ 00000001400cc220     libucrtd:lcidtoname_downlevel.obj
 0002:00020230       ??_C@_1M@DDNJFGID@?$AAf?$AAi?$AA?9?$AAF?$AAI@ 00000001400cc230     libucrtd:lcidtoname_downlevel.obj
 0002:00020240       ??_C@_1M@GLIPPMAC@?$AAf?$AAr?$AA?9?$AAF?$AAR@ 00000001400cc240     libucrtd:lcidtoname_downlevel.obj
 0002:00020250       ??_C@_1M@GFMCHPE@?$AAh?$AAe?$AA?9?$AAI?$AAL@ 00000001400cc250     libucrtd:lcidtoname_downlevel.obj
 0002:00020260       ??_C@_1M@MHLPGNKM@?$AAh?$AAu?$AA?9?$AAH?$AAU@ 00000001400cc260     libucrtd:lcidtoname_downlevel.obj
 0002:00020270       ??_C@_1M@LPDDNNPN@?$AAi?$AAs?$AA?9?$AAI?$AAS@ 00000001400cc270     libucrtd:lcidtoname_downlevel.obj
 0002:00020280       ??_C@_1M@MADIPODN@?$AAi?$AAt?$AA?9?$AAI?$AAT@ 00000001400cc280     libucrtd:lcidtoname_downlevel.obj
 0002:00020290       ??_C@_1M@IHBJJGG@?$AAn?$AAl?$AA?9?$AAN?$AAL@ 00000001400cc290     libucrtd:lcidtoname_downlevel.obj
 0002:000202a0       ??_C@_1M@EANAGDL@?$AAn?$AAb?$AA?9?$AAN?$AAO@ 00000001400cc2a0     libucrtd:lcidtoname_downlevel.obj
 0002:000202b0       ??_C@_1M@NEIEMEGP@?$AAp?$AAl?$AA?9?$AAP?$AAL@ 00000001400cc2b0     libucrtd:lcidtoname_downlevel.obj
 0002:000202c0       ??_C@_1M@BOCFIGEP@?$AAp?$AAt?$AA?9?$AAB?$AAR@ 00000001400cc2c0     libucrtd:lcidtoname_downlevel.obj
 0002:000202d0       ??_C@_1M@IMPFOPBG@?$AAr?$AAo?$AA?9?$AAR?$AAO@ 00000001400cc2d0     libucrtd:lcidtoname_downlevel.obj
 0002:000202e0       ??_C@_1M@IDNNEJMM@?$AAr?$AAu?$AA?9?$AAR?$AAU@ 00000001400cc2e0     libucrtd:lcidtoname_downlevel.obj
 0002:000202f0       ??_C@_1M@LILEEOGM@?$AAh?$AAr?$AA?9?$AAH?$AAR@ 00000001400cc2f0     libucrtd:lcidtoname_downlevel.obj
 0002:00020300       ??_C@_1M@FKIFEHPB@?$AAs?$AAk?$AA?9?$AAS?$AAK@ 00000001400cc300     libucrtd:lcidtoname_downlevel.obj
 0002:00020310       ??_C@_1M@LJMAMNPJ@?$AAs?$AAq?$AA?9?$AAA?$AAL@ 00000001400cc310     libucrtd:lcidtoname_downlevel.obj
 0002:00020320       ??_C@_1M@GIAKDKJK@?$AAs?$AAv?$AA?9?$AAS?$AAE@ 00000001400cc320     libucrtd:lcidtoname_downlevel.obj
 0002:00020330       ??_C@_1M@MKJKIKCL@?$AAt?$AAh?$AA?9?$AAT?$AAH@ 00000001400cc330     libucrtd:lcidtoname_downlevel.obj
 0002:00020340       ??_C@_1M@MFLCCMPB@?$AAt?$AAr?$AA?9?$AAT?$AAR@ 00000001400cc340     libucrtd:lcidtoname_downlevel.obj
 0002:00020350       ??_C@_1M@OIJHDKJN@?$AAu?$AAr?$AA?9?$AAP?$AAK@ 00000001400cc350     libucrtd:lcidtoname_downlevel.obj
 0002:00020360       ??_C@_1M@LHIPCIEK@?$AAi?$AAd?$AA?9?$AAI?$AAD@ 00000001400cc360     libucrtd:lcidtoname_downlevel.obj
 0002:00020370       ??_C@_1M@MFMOBGI@?$AAu?$AAk?$AA?9?$AAU?$AAA@ 00000001400cc370     libucrtd:lcidtoname_downlevel.obj
 0002:00020380       ??_C@_1M@OBGLJIPL@?$AAb?$AAe?$AA?9?$AAB?$AAY@ 00000001400cc380     libucrtd:lcidtoname_downlevel.obj
 0002:00020390       ??_C@_1M@BCFAJEAD@?$AAs?$AAl?$AA?9?$AAS?$AAI@ 00000001400cc390     libucrtd:lcidtoname_downlevel.obj
 0002:000203a0       ??_C@_1M@FKFFEDDN@?$AAe?$AAt?$AA?9?$AAE?$AAE@ 00000001400cc3a0     libucrtd:lcidtoname_downlevel.obj
 0002:000203b0       ??_C@_1M@KGKKAACI@?$AAl?$AAv?$AA?9?$AAL?$AAV@ 00000001400cc3b0     libucrtd:lcidtoname_downlevel.obj
 0002:000203c0       ??_C@_1M@IFGBIJO@?$AAl?$AAt?$AA?9?$AAL?$AAT@ 00000001400cc3c0     libucrtd:lcidtoname_downlevel.obj
 0002:000203d0       ??_C@_1M@FGEAHEDM@?$AAf?$AAa?$AA?9?$AAI?$AAR@ 00000001400cc3d0     libucrtd:lcidtoname_downlevel.obj
 0002:000203e0       ??_C@_1M@KBMAIBFN@?$AAv?$AAi?$AA?9?$AAV?$AAN@ 00000001400cc3e0     libucrtd:lcidtoname_downlevel.obj
 0002:000203f0       ??_C@_1M@GPCBKDJK@?$AAh?$AAy?$AA?9?$AAA?$AAM@ 00000001400cc3f0     libucrtd:lcidtoname_downlevel.obj
 0002:00020400       ??_C@_1BG@BECMDDJB@?$AAa?$AAz?$AA?9?$AAA?$AAZ?$AA?9?$AAL?$AAa?$AAt?$AAn@ 00000001400cc400     libucrtd:lcidtoname_downlevel.obj
 0002:00020418       ??_C@_1M@MAOFCAEA@?$AAe?$AAu?$AA?9?$AAE?$AAS@ 00000001400cc418     libucrtd:lcidtoname_downlevel.obj
 0002:00020428       ??_C@_1M@IGHABKPI@?$AAm?$AAk?$AA?9?$AAM?$AAK@ 00000001400cc428     libucrtd:lcidtoname_downlevel.obj
 0002:00020438       ??_C@_1M@IAIGNEJG@?$AAt?$AAn?$AA?9?$AAZ?$AAA@ 00000001400cc438     libucrtd:lcidtoname_downlevel.obj
 0002:00020448       ??_C@_1M@IIJCOJFA@?$AAx?$AAh?$AA?9?$AAZ?$AAA@ 00000001400cc448     libucrtd:lcidtoname_downlevel.obj
 0002:00020458       ??_C@_1M@LGPJHNJH@?$AAz?$AAu?$AA?9?$AAZ?$AAA@ 00000001400cc458     libucrtd:lcidtoname_downlevel.obj
 0002:00020468       ??_C@_1M@HOKAOIO@?$AAa?$AAf?$AA?9?$AAZ?$AAA@ 00000001400cc468     libucrtd:lcidtoname_downlevel.obj
 0002:00020478       ??_C@_1M@DPCLHLIE@?$AAk?$AAa?$AA?9?$AAG?$AAE@ 00000001400cc478     libucrtd:lcidtoname_downlevel.obj
 0002:00020488       ??_C@_1M@BLKMHJBI@?$AAf?$AAo?$AA?9?$AAF?$AAO@ 00000001400cc488     libucrtd:lcidtoname_downlevel.obj
 0002:00020498       ??_C@_1M@LGGJAPPB@?$AAh?$AAi?$AA?9?$AAI?$AAN@ 00000001400cc498     libucrtd:lcidtoname_downlevel.obj
 0002:000204a8       ??_C@_1M@FIKPIHFE@?$AAm?$AAt?$AA?9?$AAM?$AAT@ 00000001400cc4a8     libucrtd:lcidtoname_downlevel.obj
 0002:000204b8       ??_C@_1M@HEGGPBFA@?$AAs?$AAe?$AA?9?$AAN?$AAO@ 00000001400cc4b8     libucrtd:lcidtoname_downlevel.obj
 0002:000204c8       ??_C@_1M@EIBJEEPA@?$AAm?$AAs?$AA?9?$AAM?$AAY@ 00000001400cc4c8     libucrtd:lcidtoname_downlevel.obj
 0002:000204d8       ??_C@_1M@FHLBGMPP@?$AAk?$AAk?$AA?9?$AAK?$AAZ@ 00000001400cc4d8     libucrtd:lcidtoname_downlevel.obj
 0002:000204e8       ??_C@_1M@NGJJLCGI@?$AAk?$AAy?$AA?9?$AAK?$AAG@ 00000001400cc4e8     libucrtd:lcidtoname_downlevel.obj
 0002:000204f8       ??_C@_1M@GIENNBFC@?$AAs?$AAw?$AA?9?$AAK?$AAE@ 00000001400cc4f8     libucrtd:lcidtoname_downlevel.obj
 0002:00020508       ??_C@_1BG@NDGMJIMJ@?$AAu?$AAz?$AA?9?$AAU?$AAZ?$AA?9?$AAL?$AAa?$AAt?$AAn@ 00000001400cc508     libucrtd:lcidtoname_downlevel.obj
 0002:00020520       ??_C@_1M@IDCCIHBC@?$AAt?$AAt?$AA?9?$AAR?$AAU@ 00000001400cc520     libucrtd:lcidtoname_downlevel.obj
 0002:00020530       ??_C@_1M@LOICPMOJ@?$AAb?$AAn?$AA?9?$AAI?$AAN@ 00000001400cc530     libucrtd:lcidtoname_downlevel.obj
 0002:00020540       ??_C@_1M@KPKKNEAH@?$AAp?$AAa?$AA?9?$AAI?$AAN@ 00000001400cc540     libucrtd:lcidtoname_downlevel.obj
 0002:00020550       ??_C@_1M@PJGPPBOG@?$AAg?$AAu?$AA?9?$AAI?$AAN@ 00000001400cc550     libucrtd:lcidtoname_downlevel.obj
 0002:00020560       ??_C@_1M@KMKMOPHI@?$AAt?$AAa?$AA?9?$AAI?$AAN@ 00000001400cc560     libucrtd:lcidtoname_downlevel.obj
 0002:00020570       ??_C@_1M@KFEHEPAC@?$AAt?$AAe?$AA?9?$AAI?$AAN@ 00000001400cc570     libucrtd:lcidtoname_downlevel.obj
 0002:00020580       ??_C@_1M@CDCLMGHI@?$AAk?$AAn?$AA?9?$AAI?$AAN@ 00000001400cc580     libucrtd:lcidtoname_downlevel.obj
 0002:00020590       ??_C@_1M@MIODLDKF@?$AAm?$AAl?$AA?9?$AAI?$AAN@ 00000001400cc590     libucrtd:lcidtoname_downlevel.obj
 0002:000205a0       ??_C@_1M@PBIEACPO@?$AAm?$AAr?$AA?9?$AAI?$AAN@ 00000001400cc5a0     libucrtd:lcidtoname_downlevel.obj
 0002:000205b0       ??_C@_1M@NIDEAGPH@?$AAs?$AAa?$AA?9?$AAI?$AAN@ 00000001400cc5b0     libucrtd:lcidtoname_downlevel.obj
 0002:000205c0       ??_C@_1M@FHIHCBIO@?$AAm?$AAn?$AA?9?$AAM?$AAN@ 00000001400cc5c0     libucrtd:lcidtoname_downlevel.obj
 0002:000205d0       ??_C@_1M@JAIJPENP@?$AAc?$AAy?$AA?9?$AAG?$AAB@ 00000001400cc5d0     libucrtd:lcidtoname_downlevel.obj
 0002:000205e0       ??_C@_1M@PHGFBEPN@?$AAg?$AAl?$AA?9?$AAE?$AAS@ 00000001400cc5e0     libucrtd:lcidtoname_downlevel.obj
 0002:000205f0       ??_C@_1O@KPIPDNCP@?$AAk?$AAo?$AAk?$AA?9?$AAI?$AAN@ 00000001400cc5f0     libucrtd:lcidtoname_downlevel.obj
 0002:00020600       ??_C@_1O@KNHJLDJA@?$AAs?$AAy?$AAr?$AA?9?$AAS?$AAY@ 00000001400cc600     libucrtd:lcidtoname_downlevel.obj
 0002:00020610       ??_C@_1O@MKEKBLAH@?$AAd?$AAi?$AAv?$AA?9?$AAM?$AAV@ 00000001400cc610     libucrtd:lcidtoname_downlevel.obj
 0002:00020620       ??_C@_1O@OHDCKDDF@?$AAq?$AAu?$AAz?$AA?9?$AAB?$AAO@ 00000001400cc620     libucrtd:lcidtoname_downlevel.obj
 0002:00020630       ??_C@_1M@LEPJNLFD@?$AAn?$AAs?$AA?9?$AAZ?$AAA@ 00000001400cc630     libucrtd:lcidtoname_downlevel.obj
 0002:00020640       ??_C@_1M@OMLEIIJB@?$AAm?$AAi?$AA?9?$AAN?$AAZ@ 00000001400cc640     libucrtd:lcidtoname_downlevel.obj
 0002:00020650       ??_C@_1M@PMPEAILG@?$AAa?$AAr?$AA?9?$AAI?$AAQ@ 00000001400cc650     libucrtd:lcidtoname_downlevel.obj
 0002:00020660       ??_C@_1M@CNKPNOEE@?$AAd?$AAe?$AA?9?$AAC?$AAH@ 00000001400cc660     libucrtd:lcidtoname_downlevel.obj
 0002:00020670       ??_C@_1M@LKMGMLKO@?$AAe?$AAn?$AA?9?$AAG?$AAB@ 00000001400cc670     libucrtd:lcidtoname_downlevel.obj
 0002:00020680       ??_C@_1M@PGKJFFGL@?$AAe?$AAs?$AA?9?$AAM?$AAX@ 00000001400cc680     libucrtd:lcidtoname_downlevel.obj
 0002:00020690       ??_C@_1M@DNNANBDC@?$AAf?$AAr?$AA?9?$AAB?$AAE@ 00000001400cc690     libucrtd:lcidtoname_downlevel.obj
 0002:000206a0       ??_C@_1M@HLGMDFHM@?$AAi?$AAt?$AA?9?$AAC?$AAH@ 00000001400cc6a0     libucrtd:lcidtoname_downlevel.obj
 0002:000206b0       ??_C@_1M@CLLBGJH@?$AAn?$AAl?$AA?9?$AAB?$AAE@ 00000001400cc6b0     libucrtd:lcidtoname_downlevel.obj
 0002:000206c0       ??_C@_1M@BODBOGLF@?$AAn?$AAn?$AA?9?$AAN?$AAO@ 00000001400cc6c0     libucrtd:lcidtoname_downlevel.obj
 0002:000206d0       ??_C@_1M@HFFAHKAD@?$AAp?$AAt?$AA?9?$AAP?$AAT@ 00000001400cc6d0     libucrtd:lcidtoname_downlevel.obj
 0002:000206e0       ??_C@_1BG@LNOAKHIE@?$AAs?$AAr?$AA?9?$AAS?$AAP?$AA?9?$AAL?$AAa?$AAt?$AAn@ 00000001400cc6e0     libucrtd:lcidtoname_downlevel.obj
 0002:000206f8       ??_C@_1M@HBMHBGAK@?$AAs?$AAv?$AA?9?$AAF?$AAI@ 00000001400cc6f8     libucrtd:lcidtoname_downlevel.obj
 0002:00020708       ??_C@_1BG@DGCJGJBE@?$AAa?$AAz?$AA?9?$AAA?$AAZ?$AA?9?$AAC?$AAy?$AAr?$AAl@ 00000001400cc708     libucrtd:lcidtoname_downlevel.obj
 0002:00020720       ??_C@_1M@KEJDAAHB@?$AAs?$AAe?$AA?9?$AAS?$AAE@ 00000001400cc720     libucrtd:lcidtoname_downlevel.obj
 0002:00020730       ??_C@_1M@HEIBJJAD@?$AAm?$AAs?$AA?9?$AAB?$AAN@ 00000001400cc730     libucrtd:lcidtoname_downlevel.obj
 0002:00020740       ??_C@_1BG@PBGJMCEM@?$AAu?$AAz?$AA?9?$AAU?$AAZ?$AA?9?$AAC?$AAy?$AAr?$AAl@ 00000001400cc740     libucrtd:lcidtoname_downlevel.obj
 0002:00020758       ??_C@_1O@LAOBCMDF@?$AAq?$AAu?$AAz?$AA?9?$AAE?$AAC@ 00000001400cc758     libucrtd:lcidtoname_downlevel.obj
 0002:00020768       ??_C@_1M@POEEMAIO@?$AAa?$AAr?$AA?9?$AAE?$AAG@ 00000001400cc768     libucrtd:lcidtoname_downlevel.obj
 0002:00020778       ??_C@_1M@EFAKDEDL@?$AAz?$AAh?$AA?9?$AAH?$AAK@ 00000001400cc778     libucrtd:lcidtoname_downlevel.obj
 0002:00020788       ??_C@_1M@HKKIJHGI@?$AAd?$AAe?$AA?9?$AAA?$AAT@ 00000001400cc788     libucrtd:lcidtoname_downlevel.obj
 0002:00020798       ??_C@_1M@KBFBEHJF@?$AAe?$AAn?$AA?9?$AAA?$AAU@ 00000001400cc798     libucrtd:lcidtoname_downlevel.obj
 0002:000207a8       ??_C@_1M@MNPLFAAH@?$AAe?$AAs?$AA?9?$AAE?$AAS@ 00000001400cc7a8     libucrtd:lcidtoname_downlevel.obj
 0002:000207b8       ??_C@_1M@HJOOJFMA@?$AAf?$AAr?$AA?9?$AAC?$AAA@ 00000001400cc7b8     libucrtd:lcidtoname_downlevel.obj
 0002:000207c8       ??_C@_1BG@JPOFPNAB@?$AAs?$AAr?$AA?9?$AAS?$AAP?$AA?9?$AAC?$AAy?$AAr?$AAl@ 00000001400cc7c8     libucrtd:lcidtoname_downlevel.obj
 0002:000207e0       ??_C@_1M@LNFOCMOB@?$AAs?$AAe?$AA?9?$AAF?$AAI@ 00000001400cc7e0     libucrtd:lcidtoname_downlevel.obj
 0002:000207f0       ??_C@_1O@MGJBOAMB@?$AAq?$AAu?$AAz?$AA?9?$AAP?$AAE@ 00000001400cc7f0     libucrtd:lcidtoname_downlevel.obj
 0002:00020800       ??_C@_1M@GJINLBOK@?$AAa?$AAr?$AA?9?$AAL?$AAY@ 00000001400cc800     libucrtd:lcidtoname_downlevel.obj
 0002:00020810       ??_C@_1M@GGMNHJNL@?$AAz?$AAh?$AA?9?$AAS?$AAG@ 00000001400cc810     libucrtd:lcidtoname_downlevel.obj
 0002:00020820       ??_C@_1M@HOIKODND@?$AAd?$AAe?$AA?9?$AAL?$AAU@ 00000001400cc820     libucrtd:lcidtoname_downlevel.obj
 0002:00020830       ??_C@_1M@DDOCCGFG@?$AAe?$AAn?$AA?9?$AAC?$AAA@ 00000001400cc830     libucrtd:lcidtoname_downlevel.obj
 0002:00020840       ??_C@_1M@BNOEMJLF@?$AAe?$AAs?$AA?9?$AAG?$AAT@ 00000001400cc840     libucrtd:lcidtoname_downlevel.obj
 0002:00020850       ??_C@_1M@EOGNKEK@?$AAf?$AAr?$AA?9?$AAC?$AAH@ 00000001400cc850     libucrtd:lcidtoname_downlevel.obj
 0002:00020860       ??_C@_1M@FLIDJFHL@?$AAh?$AAr?$AA?9?$AAB?$AAA@ 00000001400cc860     libucrtd:lcidtoname_downlevel.obj
 0002:00020870       ??_C@_1O@FMCELNAJ@?$AAs?$AAm?$AAj?$AA?9?$AAN?$AAO@ 00000001400cc870     libucrtd:lcidtoname_downlevel.obj
 0002:00020880       ??_C@_1M@JHGLJMGJ@?$AAa?$AAr?$AA?9?$AAD?$AAZ@ 00000001400cc880     libucrtd:lcidtoname_downlevel.obj
 0002:00020890       ??_C@_1M@JKKFDCNP@?$AAz?$AAh?$AA?9?$AAM?$AAO@ 00000001400cc890     libucrtd:lcidtoname_downlevel.obj
 0002:000208a0       ??_C@_1M@GEEFALPE@?$AAd?$AAe?$AA?9?$AAL?$AAI@ 00000001400cc8a0     libucrtd:lcidtoname_downlevel.obj
 0002:000208b0       ??_C@_1M@IGEOFBG@?$AAe?$AAn?$AA?9?$AAN?$AAZ@ 00000001400cc8b0     libucrtd:lcidtoname_downlevel.obj
 0002:000208c0       ??_C@_1M@KDBONEHP@?$AAe?$AAs?$AA?9?$AAC?$AAR@ 00000001400cc8c0     libucrtd:lcidtoname_downlevel.obj
 0002:000208d0       ??_C@_1M@FHMDOHNN@?$AAf?$AAr?$AA?9?$AAL?$AAU@ 00000001400cc8d0     libucrtd:lcidtoname_downlevel.obj
 0002:000208e0       ??_C@_1BG@NFKKMAFG@?$AAb?$AAs?$AA?9?$AAB?$AAA?$AA?9?$AAL?$AAa?$AAt?$AAn@ 00000001400cc8e0     libucrtd:lcidtoname_downlevel.obj
 0002:000208f8       ??_C@_1O@IMNBEMCI@?$AAs?$AAm?$AAj?$AA?9?$AAS?$AAE@ 00000001400cc8f8     libucrtd:lcidtoname_downlevel.obj
 0002:00020908       ??_C@_1M@DHHMBNDP@?$AAa?$AAr?$AA?9?$AAM?$AAA@ 00000001400cc908     libucrtd:lcidtoname_downlevel.obj
 0002:00020918       ??_C@_1M@BNBLJCGH@?$AAe?$AAn?$AA?9?$AAI?$AAE@ 00000001400cc918     libucrtd:lcidtoname_downlevel.obj
 0002:00020928       ??_C@_1M@GEPAFMDL@?$AAe?$AAs?$AA?9?$AAP?$AAA@ 00000001400cc928     libucrtd:lcidtoname_downlevel.obj
 0002:00020938       ??_C@_1M@OJONDMDL@?$AAf?$AAr?$AA?9?$AAM?$AAC@ 00000001400cc938     libucrtd:lcidtoname_downlevel.obj
 0002:00020948       ??_C@_1BG@OBCNFJB@?$AAs?$AAr?$AA?9?$AAB?$AAA?$AA?9?$AAL?$AAa?$AAt?$AAn@ 00000001400cc948     libucrtd:lcidtoname_downlevel.obj
 0002:00020960       ??_C@_1O@KEMEEGPO@?$AAs?$AAm?$AAa?$AA?9?$AAN?$AAO@ 00000001400cc960     libucrtd:lcidtoname_downlevel.obj
 0002:00020970       ??_C@_1M@ELMGFODK@?$AAa?$AAr?$AA?9?$AAT?$AAN@ 00000001400cc970     libucrtd:lcidtoname_downlevel.obj
 0002:00020980       ??_C@_1M@BHDLHFAF@?$AAe?$AAn?$AA?9?$AAZ?$AAA@ 00000001400cc980     libucrtd:lcidtoname_downlevel.obj
 0002:00020990       ??_C@_1M@BMGIGLIF@?$AAe?$AAs?$AA?9?$AAD?$AAO@ 00000001400cc990     libucrtd:lcidtoname_downlevel.obj
 0002:000209a0       ??_C@_1BG@CMBHIPBE@?$AAs?$AAr?$AA?9?$AAB?$AAA?$AA?9?$AAC?$AAy?$AAr?$AAl@ 00000001400cc9a0     libucrtd:lcidtoname_downlevel.obj
 0002:000209b8       ??_C@_1O@HEDBLHNP@?$AAs?$AAm?$AAa?$AA?9?$AAS?$AAE@ 00000001400cc9b8     libucrtd:lcidtoname_downlevel.obj
 0002:000209c8       ??_C@_1M@DAGCADIM@?$AAa?$AAr?$AA?9?$AAO?$AAM@ 00000001400cc9c8     libucrtd:lcidtoname_downlevel.obj
 0002:000209d8       ??_C@_1M@FODLMICG@?$AAe?$AAn?$AA?9?$AAJ?$AAM@ 00000001400cc9d8     libucrtd:lcidtoname_downlevel.obj
 0002:000209e8       ??_C@_1M@DNMLCIHB@?$AAe?$AAs?$AA?9?$AAV?$AAE@ 00000001400cc9e8     libucrtd:lcidtoname_downlevel.obj
 0002:000209f8       ??_C@_1O@EOKHMKJK@?$AAs?$AAm?$AAs?$AA?9?$AAF?$AAI@ 00000001400cc9f8     libucrtd:lcidtoname_downlevel.obj
 0002:00020a08       ??_C@_1M@CAFJMKOF@?$AAa?$AAr?$AA?9?$AAY?$AAE@ 00000001400cca08     libucrtd:lcidtoname_downlevel.obj
 0002:00020a18       ??_C@_1M@CBFHIJLI@?$AAe?$AAn?$AA?9?$AAC?$AAB@ 00000001400cca18     libucrtd:lcidtoname_downlevel.obj
 0002:00020a28       ??_C@_1M@BGNFLDN@?$AAe?$AAs?$AA?9?$AAC?$AAO@ 00000001400cca28     libucrtd:lcidtoname_downlevel.obj
 0002:00020a38       ??_C@_1O@JMPHMAMC@?$AAs?$AAm?$AAn?$AA?9?$AAF?$AAI@ 00000001400cca38     libucrtd:lcidtoname_downlevel.obj
 0002:00020a48       ??_C@_1M@JLANABKE@?$AAa?$AAr?$AA?9?$AAS?$AAY@ 00000001400cca48     libucrtd:lcidtoname_downlevel.obj
 0002:00020a58       ??_C@_1M@HPKGCFGN@?$AAe?$AAn?$AA?9?$AAB?$AAZ@ 00000001400cca58     libucrtd:lcidtoname_downlevel.obj
 0002:00020a68       ??_C@_1M@OLJCMLGM@?$AAe?$AAs?$AA?9?$AAP?$AAE@ 00000001400cca68     libucrtd:lcidtoname_downlevel.obj
 0002:00020a78       ??_C@_1M@MKKGFKLE@?$AAa?$AAr?$AA?9?$AAJ?$AAO@ 00000001400cca78     libucrtd:lcidtoname_downlevel.obj
 0002:00020a88       ??_C@_1M@EKPGLDNI@?$AAe?$AAn?$AA?9?$AAT?$AAT@ 00000001400cca88     libucrtd:lcidtoname_downlevel.obj
 0002:00020a98       ??_C@_1M@OONGHFHE@?$AAe?$AAs?$AA?9?$AAA?$AAR@ 00000001400cca98     libucrtd:lcidtoname_downlevel.obj
 0002:00020aa8       ??_C@_1M@OOJFGBHE@?$AAa?$AAr?$AA?9?$AAL?$AAB@ 00000001400ccaa8     libucrtd:lcidtoname_downlevel.obj
 0002:00020ab8       ??_C@_1M@GCEJHNEG@?$AAe?$AAn?$AA?9?$AAZ?$AAW@ 00000001400ccab8     libucrtd:lcidtoname_downlevel.obj
 0002:00020ac8       ??_C@_1M@JNOCAHJI@?$AAe?$AAs?$AA?9?$AAE?$AAC@ 00000001400ccac8     libucrtd:lcidtoname_downlevel.obj
 0002:00020ad8       ??_C@_1M@JEFHPGGB@?$AAa?$AAr?$AA?9?$AAK?$AAW@ 00000001400ccad8     libucrtd:lcidtoname_downlevel.obj
 0002:00020ae8       ??_C@_1M@MLKIBJOJ@?$AAe?$AAn?$AA?9?$AAP?$AAH@ 00000001400ccae8     libucrtd:lcidtoname_downlevel.obj
 0002:00020af8       ??_C@_1M@BDNIPEND@?$AAe?$AAs?$AA?9?$AAC?$AAL@ 00000001400ccaf8     libucrtd:lcidtoname_downlevel.obj
 0002:00020b08       ??_C@_1M@MPNMEKBD@?$AAa?$AAr?$AA?9?$AAA?$AAE@ 00000001400ccb08     libucrtd:lcidtoname_downlevel.obj
 0002:00020b18       ??_C@_1M@KBJALCPI@?$AAe?$AAs?$AA?9?$AAU?$AAY@ 00000001400ccb18     libucrtd:lcidtoname_downlevel.obj
 0002:00020b28       ??_C@_1M@LLCCOAGA@?$AAa?$AAr?$AA?9?$AAB?$AAH@ 00000001400ccb28     libucrtd:lcidtoname_downlevel.obj
 0002:00020b38       ??_C@_1M@PBFNCDEL@?$AAe?$AAs?$AA?9?$AAP?$AAY@ 00000001400ccb38     libucrtd:lcidtoname_downlevel.obj
 0002:00020b48       ??_C@_1M@EDGINPNP@?$AAa?$AAr?$AA?9?$AAQ?$AAA@ 00000001400ccb48     libucrtd:lcidtoname_downlevel.obj
 0002:00020b58       ??_C@_1M@MKDBIIJI@?$AAe?$AAs?$AA?9?$AAB?$AAO@ 00000001400ccb58     libucrtd:lcidtoname_downlevel.obj
 0002:00020b68       ??_C@_1M@CPKKEBLD@?$AAe?$AAs?$AA?9?$AAS?$AAV@ 00000001400ccb68     libucrtd:lcidtoname_downlevel.obj
 0002:00020b78       ??_C@_1M@NDBGMMJL@?$AAe?$AAs?$AA?9?$AAH?$AAN@ 00000001400ccb78     libucrtd:lcidtoname_downlevel.obj
 0002:00020b88       ??_C@_1M@JIJIBHDP@?$AAe?$AAs?$AA?9?$AAN?$AAI@ 00000001400ccb88     libucrtd:lcidtoname_downlevel.obj
 0002:00020b98       ??_C@_1M@CGFMKEEK@?$AAe?$AAs?$AA?9?$AAP?$AAR@ 00000001400ccb98     libucrtd:lcidtoname_downlevel.obj
 0002:00020ba8       ??_C@_1O@ICJHKIIK@?$AAz?$AAh?$AA?9?$AAC?$AAH?$AAT@ 00000001400ccba8     libucrtd:lcidtoname_downlevel.obj
 0002:00020bb8       ??_C@_15CLNEJCE@?$AAs?$AAr@ 00000001400ccbb8     libucrtd:lcidtoname_downlevel.obj
 0002:00021a00       ??_C@_1M@KAHEKEIG@?$AAa?$AAf?$AA?9?$AAz?$AAa@ 00000001400cda00     libucrtd:lcidtoname_downlevel.obj
 0002:00021a10       ??_C@_1M@GIECOABL@?$AAa?$AAr?$AA?9?$AAa?$AAe@ 00000001400cda10     libucrtd:lcidtoname_downlevel.obj
 0002:00021a20       ??_C@_1M@BMLMEKGI@?$AAa?$AAr?$AA?9?$AAb?$AAh@ 00000001400cda20     libucrtd:lcidtoname_downlevel.obj
 0002:00021a30       ??_C@_1M@DAPFDGGB@?$AAa?$AAr?$AA?9?$AAd?$AAz@ 00000001400cda30     libucrtd:lcidtoname_downlevel.obj
 0002:00021a40       ??_C@_1M@FJNKGKIG@?$AAa?$AAr?$AA?9?$AAe?$AAg@ 00000001400cda40     libucrtd:lcidtoname_downlevel.obj
 0002:00021a50       ??_C@_1M@FLGKKCLO@?$AAa?$AAr?$AA?9?$AAi?$AAq@ 00000001400cda50     libucrtd:lcidtoname_downlevel.obj
 0002:00021a60       ??_C@_1M@GNDIPALM@?$AAa?$AAr?$AA?9?$AAj?$AAo@ 00000001400cda60     libucrtd:lcidtoname_downlevel.obj
 0002:00021a70       ??_C@_1M@DDMJFMGJ@?$AAa?$AAr?$AA?9?$AAk?$AAw@ 00000001400cda70     libucrtd:lcidtoname_downlevel.obj
 0002:00021a80       ??_C@_1M@EJALMLHM@?$AAa?$AAr?$AA?9?$AAl?$AAb@ 00000001400cda80     libucrtd:lcidtoname_downlevel.obj
 0002:00021a90       ??_C@_1M@MOBDBLOC@?$AAa?$AAr?$AA?9?$AAl?$AAy@ 00000001400cda90     libucrtd:lcidtoname_downlevel.obj
 0002:00021aa0       ??_C@_1M@JAOCLHDH@?$AAa?$AAr?$AA?9?$AAm?$AAa@ 00000001400cdaa0     libucrtd:lcidtoname_downlevel.obj
 0002:00021ab0       ??_C@_1M@JHPMKJIE@?$AAa?$AAr?$AA?9?$AAo?$AAm@ 00000001400cdab0     libucrtd:lcidtoname_downlevel.obj
 0002:00021ac0       ??_C@_1M@OEPGHFNH@?$AAa?$AAr?$AA?9?$AAq?$AAa@ 00000001400cdac0     libucrtd:lcidtoname_downlevel.obj
 0002:00021ad0       ??_C@_1M@KJDONENM@?$AAa?$AAr?$AA?9?$AAs?$AAa@ 00000001400cdad0     libucrtd:lcidtoname_downlevel.obj
 0002:00021ae0       ??_C@_1M@DMJDKLKM@?$AAa?$AAr?$AA?9?$AAs?$AAy@ 00000001400cdae0     libucrtd:lcidtoname_downlevel.obj
 0002:00021af0       ??_C@_1M@OMFIPEDC@?$AAa?$AAr?$AA?9?$AAt?$AAn@ 00000001400cdaf0     libucrtd:lcidtoname_downlevel.obj
 0002:00021b00       ??_C@_1M@IHMHGAON@?$AAa?$AAr?$AA?9?$AAy?$AAe@ 00000001400cdb00     libucrtd:lcidtoname_downlevel.obj
 0002:00021b10       ??_C@_1BG@KDCPGJGB@?$AAa?$AAz?$AA?9?$AAa?$AAz?$AA?9?$AAc?$AAy?$AAr?$AAl@ 00000001400cdb10     libucrtd:lcidtoname_downlevel.obj
 0002:00021b28       ??_C@_1BG@IBCKDDOE@?$AAa?$AAz?$AA?9?$AAa?$AAz?$AA?9?$AAl?$AAa?$AAt?$AAn@ 00000001400cdb28     libucrtd:lcidtoname_downlevel.obj
 0002:00021b40       ??_C@_1M@EGPFDCPD@?$AAb?$AAe?$AA?9?$AAb?$AAy@ 00000001400cdb40     libucrtd:lcidtoname_downlevel.obj
 0002:00021b50       ??_C@_1M@PCMGMCGC@?$AAb?$AAg?$AA?9?$AAb?$AAg@ 00000001400cdb50     libucrtd:lcidtoname_downlevel.obj
 0002:00021b60       ??_C@_1M@BJBMFGOB@?$AAb?$AAn?$AA?9?$AAi?$AAn@ 00000001400cdb60     libucrtd:lcidtoname_downlevel.obj
 0002:00021b70       ??_C@_1BG@EAKMMACD@?$AAb?$AAs?$AA?9?$AAb?$AAa?$AA?9?$AAl?$AAa?$AAt?$AAn@ 00000001400cdb70     libucrtd:lcidtoname_downlevel.obj
 0002:00021b88       ??_C@_1M@KGADAODK@?$AAc?$AAa?$AA?9?$AAe?$AAs@ 00000001400cdb88     libucrtd:lcidtoname_downlevel.obj
 0002:00021b98       ??_C@_1M@COAJPDHI@?$AAc?$AAs?$AA?9?$AAc?$AAz@ 00000001400cdb98     libucrtd:lcidtoname_downlevel.obj
 0002:00021ba8       ??_C@_1M@DHBHFONH@?$AAc?$AAy?$AA?9?$AAg?$AAb@ 00000001400cdba8     libucrtd:lcidtoname_downlevel.obj
 0002:00021bb8       ??_C@_1M@IMGKELGA@?$AAd?$AAa?$AA?9?$AAd?$AAk@ 00000001400cdbb8     libucrtd:lcidtoname_downlevel.obj
 0002:00021bc8       ??_C@_1M@NNDGDNGA@?$AAd?$AAe?$AA?9?$AAa?$AAt@ 00000001400cdbc8     libucrtd:lcidtoname_downlevel.obj
 0002:00021bd8       ??_C@_1M@IKDBHEEM@?$AAd?$AAe?$AA?9?$AAc?$AAh@ 00000001400cdbd8     libucrtd:lcidtoname_downlevel.obj
 0002:00021be8       ??_C@_1M@GFFOJMCJ@?$AAd?$AAe?$AA?9?$AAd?$AAe@ 00000001400cdbe8     libucrtd:lcidtoname_downlevel.obj
 0002:00021bf8       ??_C@_1M@MDNLKBPM@?$AAd?$AAe?$AA?9?$AAl?$AAi@ 00000001400cdbf8     libucrtd:lcidtoname_downlevel.obj
 0002:00021c08       ??_C@_1M@NJBEEJNL@?$AAd?$AAe?$AA?9?$AAl?$AAu@ 00000001400cdc08     libucrtd:lcidtoname_downlevel.obj
 0002:00021c18       ??_C@_1O@GNNELBAP@?$AAd?$AAi?$AAv?$AA?9?$AAm?$AAv@ 00000001400cdc18     libucrtd:lcidtoname_downlevel.obj
 0002:00021c28       ??_C@_1M@EJLEOGAE@?$AAe?$AAl?$AA?9?$AAg?$AAr@ 00000001400cdc28     libucrtd:lcidtoname_downlevel.obj
 0002:00021c38       ??_C@_1M@GMPONJN@?$AAe?$AAn?$AA?9?$AAa?$AAu@ 00000001400cdc38     libucrtd:lcidtoname_downlevel.obj
 0002:00021c48       ??_C@_1M@NIDIIPGF@?$AAe?$AAn?$AA?9?$AAb?$AAz@ 00000001400cdc48     libucrtd:lcidtoname_downlevel.obj
 0002:00021c58       ??_C@_1M@JEHMIMFO@?$AAe?$AAn?$AA?9?$AAc?$AAa@ 00000001400cdc58     libucrtd:lcidtoname_downlevel.obj
 0002:00021c68       ??_C@_1M@IGMJCDLA@?$AAe?$AAn?$AA?9?$AAc?$AAb@ 00000001400cdc68     libucrtd:lcidtoname_downlevel.obj
 0002:00021c78       ??_C@_1M@BNFIGBKG@?$AAe?$AAn?$AA?9?$AAg?$AAb@ 00000001400cdc78     libucrtd:lcidtoname_downlevel.obj
 0002:00021c88       ??_C@_1M@LKIFDIGP@?$AAe?$AAn?$AA?9?$AAi?$AAe@ 00000001400cdc88     libucrtd:lcidtoname_downlevel.obj
 0002:00021c98       ??_C@_1M@PJKFGCCO@?$AAe?$AAn?$AA?9?$AAj?$AAm@ 00000001400cdc98     libucrtd:lcidtoname_downlevel.obj
 0002:00021ca8       ??_C@_1M@KPPKEPBO@?$AAe?$AAn?$AA?9?$AAn?$AAz@ 00000001400cdca8     libucrtd:lcidtoname_downlevel.obj
 0002:00021cb8       ??_C@_1M@GMDGLDOB@?$AAe?$AAn?$AA?9?$AAp?$AAh@ 00000001400cdcb8     libucrtd:lcidtoname_downlevel.obj
 0002:00021cc8       ??_C@_1M@ONGIBJNA@?$AAe?$AAn?$AA?9?$AAt?$AAt@ 00000001400cdcc8     libucrtd:lcidtoname_downlevel.obj
 0002:00021cd8       ??_C@_1M@LLODPCMM@?$AAe?$AAn?$AA?9?$AAu?$AAs@ 00000001400cdcd8     libucrtd:lcidtoname_downlevel.obj
 0002:00021ce8       ??_C@_1M@LAKFNPAN@?$AAe?$AAn?$AA?9?$AAz?$AAa@ 00000001400cdce8     libucrtd:lcidtoname_downlevel.obj
 0002:00021cf8       ??_C@_1M@MFNHNHEO@?$AAe?$AAn?$AA?9?$AAz?$AAw@ 00000001400cdcf8     libucrtd:lcidtoname_downlevel.obj
 0002:00021d08       ??_C@_1M@EJEINPHM@?$AAe?$AAs?$AA?9?$AAa?$AAr@ 00000001400cdd08     libucrtd:lcidtoname_downlevel.obj
 0002:00021d18       ??_C@_1M@GNKPCCJA@?$AAe?$AAs?$AA?9?$AAb?$AAo@ 00000001400cdd18     libucrtd:lcidtoname_downlevel.obj
 0002:00021d28       ??_C@_1M@LEEGFONL@?$AAe?$AAs?$AA?9?$AAc?$AAl@ 00000001400cdd28     libucrtd:lcidtoname_downlevel.obj
 0002:00021d38       ??_C@_1M@KGPDPBDF@?$AAe?$AAs?$AA?9?$AAc?$AAo@ 00000001400cdd38     libucrtd:lcidtoname_downlevel.obj
 0002:00021d48       ??_C@_1M@EIAHOHH@?$AAe?$AAs?$AA?9?$AAc?$AAr@ 00000001400cdd48     libucrtd:lcidtoname_downlevel.obj
 0002:00021d58       ??_C@_1M@LLPGMBIN@?$AAe?$AAs?$AA?9?$AAd?$AAo@ 00000001400cdd58     libucrtd:lcidtoname_downlevel.obj
 0002:00021d68       ??_C@_1M@DKHMKNJA@?$AAe?$AAs?$AA?9?$AAe?$AAc@ 00000001400cdd68     libucrtd:lcidtoname_downlevel.obj
 0002:00021d78       ??_C@_1M@GKGFPKAP@?$AAe?$AAs?$AA?9?$AAe?$AAs@ 00000001400cdd78     libucrtd:lcidtoname_downlevel.obj
 0002:00021d88       ??_C@_1M@LKHKGDLN@?$AAe?$AAs?$AA?9?$AAg?$AAt@ 00000001400cdd88     libucrtd:lcidtoname_downlevel.obj
 0002:00021d98       ??_C@_1M@HEIIGGJD@?$AAe?$AAs?$AA?9?$AAh?$AAn@ 00000001400cdd98     libucrtd:lcidtoname_downlevel.obj
 0002:00021da8       ??_C@_1M@FBDHPPGD@?$AAe?$AAs?$AA?9?$AAm?$AAx@ 00000001400cdda8     libucrtd:lcidtoname_downlevel.obj
 0002:00021db8       ??_C@_1M@DPAGLNDH@?$AAe?$AAs?$AA?9?$AAn?$AAi@ 00000001400cddb8     libucrtd:lcidtoname_downlevel.obj
 0002:00021dc8       ??_C@_1M@MDGOPGDD@?$AAe?$AAs?$AA?9?$AAp?$AAa@ 00000001400cddc8     libucrtd:lcidtoname_downlevel.obj
 0002:00021dd8       ??_C@_1M@EMAMGBGE@?$AAe?$AAs?$AA?9?$AAp?$AAe@ 00000001400cddd8     libucrtd:lcidtoname_downlevel.obj
 0002:00021de8       ??_C@_1M@IBMCAOEC@?$AAe?$AAs?$AA?9?$AAp?$AAr@ 00000001400cdde8     libucrtd:lcidtoname_downlevel.obj
 0002:00021df8       ??_C@_1M@FGMDIJED@?$AAe?$AAs?$AA?9?$AAp?$AAy@ 00000001400cddf8     libucrtd:lcidtoname_downlevel.obj
 0002:00021e08       ??_C@_1M@IIDEOLLL@?$AAe?$AAs?$AA?9?$AAs?$AAv@ 00000001400cde08     libucrtd:lcidtoname_downlevel.obj
 0002:00021e18       ??_C@_1M@GAOBIPA@?$AAe?$AAs?$AA?9?$AAu?$AAy@ 00000001400cde18     libucrtd:lcidtoname_downlevel.obj
 0002:00021e28       ??_C@_1M@JKFFICHJ@?$AAe?$AAs?$AA?9?$AAv?$AAe@ 00000001400cde28     libucrtd:lcidtoname_downlevel.obj
 0002:00021e38       ??_C@_1M@PNMLOJDF@?$AAe?$AAt?$AA?9?$AAe?$AAe@ 00000001400cde38     libucrtd:lcidtoname_downlevel.obj
 0002:00021e48       ??_C@_1M@GHHLIKEI@?$AAe?$AAu?$AA?9?$AAe?$AAs@ 00000001400cde48     libucrtd:lcidtoname_downlevel.obj
 0002:00021e58       ??_C@_1M@PBNONODE@?$AAf?$AAa?$AA?9?$AAi?$AAr@ 00000001400cde58     libucrtd:lcidtoname_downlevel.obj
 0002:00021e68       ??_C@_1M@JEEHPMIL@?$AAf?$AAi?$AA?9?$AAf?$AAi@ 00000001400cde68     libucrtd:lcidtoname_downlevel.obj
 0002:00021e78       ??_C@_1M@LMDCNDBA@?$AAf?$AAo?$AA?9?$AAf?$AAo@ 00000001400cde78     libucrtd:lcidtoname_downlevel.obj
 0002:00021e88       ??_C@_1M@JKEOHLDK@?$AAf?$AAr?$AA?9?$AAb?$AAe@ 00000001400cde88     libucrtd:lcidtoname_downlevel.obj
 0002:00021e98       ??_C@_1M@NOHADPMI@?$AAf?$AAr?$AA?9?$AAc?$AAa@ 00000001400cde98     libucrtd:lcidtoname_downlevel.obj
 0002:00021ea8       ??_C@_1M@KDHIHAEC@?$AAf?$AAr?$AA?9?$AAc?$AAh@ 00000001400cdea8     libucrtd:lcidtoname_downlevel.obj
 0002:00021eb8       ??_C@_1M@MMBBFGAK@?$AAf?$AAr?$AA?9?$AAf?$AAr@ 00000001400cdeb8     libucrtd:lcidtoname_downlevel.obj
 0002:00021ec8       ??_C@_1M@PAFNENNF@?$AAf?$AAr?$AA?9?$AAl?$AAu@ 00000001400cdec8     libucrtd:lcidtoname_downlevel.obj
 0002:00021ed8       ??_C@_1M@EOHDJGDD@?$AAf?$AAr?$AA?9?$AAm?$AAc@ 00000001400cded8     libucrtd:lcidtoname_downlevel.obj
 0002:00021ee8       ??_C@_1M@FAPLLOPF@?$AAg?$AAl?$AA?9?$AAe?$AAs@ 00000001400cdee8     libucrtd:lcidtoname_downlevel.obj
 0002:00021ef8       ??_C@_1M@FOPBFLOO@?$AAg?$AAu?$AA?9?$AAi?$AAn@ 00000001400cdef8     libucrtd:lcidtoname_downlevel.obj
 0002:00021f08       ??_C@_1M@KBMCINPM@?$AAh?$AAe?$AA?9?$AAi?$AAl@ 00000001400cdf08     libucrtd:lcidtoname_downlevel.obj
 0002:00021f18       ??_C@_1M@BBPHKFPJ@?$AAh?$AAi?$AA?9?$AAi?$AAn@ 00000001400cdf18     libucrtd:lcidtoname_downlevel.obj
 0002:00021f28       ??_C@_1M@PMBNDPHD@?$AAh?$AAr?$AA?9?$AAb?$AAa@ 00000001400cdf28     libucrtd:lcidtoname_downlevel.obj
 0002:00021f38       ??_C@_1M@BPCKOEGE@?$AAh?$AAr?$AA?9?$AAh?$AAr@ 00000001400cdf38     libucrtd:lcidtoname_downlevel.obj
 0002:00021f48       ??_C@_1M@GACBMHKE@?$AAh?$AAu?$AA?9?$AAh?$AAu@ 00000001400cdf48     libucrtd:lcidtoname_downlevel.obj
 0002:00021f58       ??_C@_1M@MILPAJJC@?$AAh?$AAy?$AA?9?$AAa?$AAm@ 00000001400cdf58     libucrtd:lcidtoname_downlevel.obj
 0002:00021f68       ??_C@_1M@BABBICEC@?$AAi?$AAd?$AA?9?$AAi?$AAd@ 00000001400cdf68     libucrtd:lcidtoname_downlevel.obj
 0002:00021f78       ??_C@_1M@BIKNHHPF@?$AAi?$AAs?$AA?9?$AAi?$AAs@ 00000001400cdf78     libucrtd:lcidtoname_downlevel.obj
 0002:00021f88       ??_C@_1M@NMPCJPHE@?$AAi?$AAt?$AA?9?$AAc?$AAh@ 00000001400cdf88     libucrtd:lcidtoname_downlevel.obj
 0002:00021f98       ??_C@_1M@GHKGFEDF@?$AAi?$AAt?$AA?9?$AAi?$AAt@ 00000001400cdf98     libucrtd:lcidtoname_downlevel.obj
 0002:00021fa8       ??_C@_1M@NIEJCJJA@?$AAj?$AAa?$AA?9?$AAj?$AAp@ 00000001400cdfa8     libucrtd:lcidtoname_downlevel.obj
 0002:00021fb8       ??_C@_1M@JILFNBIM@?$AAk?$AAa?$AA?9?$AAg?$AAe@ 00000001400cdfb8     libucrtd:lcidtoname_downlevel.obj
 0002:00021fc8       ??_C@_1M@PACPMGPH@?$AAk?$AAk?$AA?9?$AAk?$AAz@ 00000001400cdfc8     libucrtd:lcidtoname_downlevel.obj
 0002:00021fd8       ??_C@_1M@IELFGMHA@?$AAk?$AAn?$AA?9?$AAi?$AAn@ 00000001400cdfd8     libucrtd:lcidtoname_downlevel.obj
 0002:00021fe8       ??_C@_1O@IBBJHCH@?$AAk?$AAo?$AAk?$AA?9?$AAi?$AAn@ 00000001400cdfe8     libucrtd:lcidtoname_downlevel.obj
 0002:00021ff8       ??_C@_1M@DMHAEOGC@?$AAk?$AAo?$AA?9?$AAk?$AAr@ 00000001400cdff8     libucrtd:lcidtoname_downlevel.obj
 0002:00022008       ??_C@_1M@HBAHBIGA@?$AAk?$AAy?$AA?9?$AAk?$AAg@ 00000001400ce008     libucrtd:lcidtoname_downlevel.obj
 0002:00022018       ??_C@_1M@KPMILCJG@?$AAl?$AAt?$AA?9?$AAl?$AAt@ 00000001400ce018     libucrtd:lcidtoname_downlevel.obj
 0002:00022028       ??_C@_1M@BDEKKCA@?$AAl?$AAv?$AA?9?$AAl?$AAv@ 00000001400ce028     libucrtd:lcidtoname_downlevel.obj
 0002:00022038       ??_C@_1M@ELCKCCJJ@?$AAm?$AAi?$AA?9?$AAn?$AAz@ 00000001400ce038     libucrtd:lcidtoname_downlevel.obj
 0002:00022048       ??_C@_1M@CBOOLAPA@?$AAm?$AAk?$AA?9?$AAm?$AAk@ 00000001400ce048     libucrtd:lcidtoname_downlevel.obj
 0002:00022058       ??_C@_1M@GPHNBJKN@?$AAm?$AAl?$AA?9?$AAi?$AAn@ 00000001400ce058     libucrtd:lcidtoname_downlevel.obj
 0002:00022068       ??_C@_1M@PABJILIG@?$AAm?$AAn?$AA?9?$AAm?$AAn@ 00000001400ce068     libucrtd:lcidtoname_downlevel.obj
 0002:00022078       ??_C@_1M@FGBKKIPG@?$AAm?$AAr?$AA?9?$AAi?$AAn@ 00000001400ce078     libucrtd:lcidtoname_downlevel.obj
 0002:00022088       ??_C@_1M@NDBPDDAL@?$AAm?$AAs?$AA?9?$AAb?$AAn@ 00000001400ce088     libucrtd:lcidtoname_downlevel.obj
 0002:00022098       ??_C@_1M@OPIHOOPI@?$AAm?$AAs?$AA?9?$AAm?$AAy@ 00000001400ce098     libucrtd:lcidtoname_downlevel.obj
 0002:000220a8       ??_C@_1M@PPDBCNFM@?$AAm?$AAt?$AA?9?$AAm?$AAt@ 00000001400ce0a8     libucrtd:lcidtoname_downlevel.obj
 0002:000220b8       ??_C@_1M@KDJDKMDD@?$AAn?$AAb?$AA?9?$AAn?$AAo@ 00000001400ce0b8     libucrtd:lcidtoname_downlevel.obj
 0002:000220c8       ??_C@_1M@KFCFLMJP@?$AAn?$AAl?$AA?9?$AAb?$AAe@ 00000001400ce0c8     libucrtd:lcidtoname_downlevel.obj
 0002:000220d8       ??_C@_1M@KPOPDDGO@?$AAn?$AAl?$AA?9?$AAn?$AAl@ 00000001400ce0d8     libucrtd:lcidtoname_downlevel.obj
 0002:000220e8       ??_C@_1M@LJKPEMLN@?$AAn?$AAn?$AA?9?$AAn?$AAo@ 00000001400ce0e8     libucrtd:lcidtoname_downlevel.obj
 0002:000220f8       ??_C@_1M@BDGHHBFL@?$AAn?$AAs?$AA?9?$AAz?$AAa@ 00000001400ce0f8     libucrtd:lcidtoname_downlevel.obj
 0002:00022108       ??_C@_1M@IDEHOAP@?$AAp?$AAa?$AA?9?$AAi?$AAn@ 00000001400ce108     libucrtd:lcidtoname_downlevel.obj
 0002:00022118       ??_C@_1M@HDBKGOGH@?$AAp?$AAl?$AA?9?$AAp?$AAl@ 00000001400ce118     libucrtd:lcidtoname_downlevel.obj
 0002:00022128       ??_C@_1M@LJLLCMEH@?$AAp?$AAt?$AA?9?$AAb?$AAr@ 00000001400ce128     libucrtd:lcidtoname_downlevel.obj
 0002:00022138       ??_C@_1M@NCMONAAL@?$AAp?$AAt?$AA?9?$AAp?$AAt@ 00000001400ce138     libucrtd:lcidtoname_downlevel.obj
 0002:00022148       ??_C@_1O@EAKMAJDN@?$AAq?$AAu?$AAz?$AA?9?$AAb?$AAo@ 00000001400ce148     libucrtd:lcidtoname_downlevel.obj
 0002:00022158       ??_C@_1O@BHHPIGDN@?$AAq?$AAu?$AAz?$AA?9?$AAe?$AAc@ 00000001400ce158     libucrtd:lcidtoname_downlevel.obj
 0002:00022168       ??_C@_1O@GBAPEKMJ@?$AAq?$AAu?$AAz?$AA?9?$AAp?$AAe@ 00000001400ce168     libucrtd:lcidtoname_downlevel.obj
 0002:00022178       ??_C@_1M@CLGLEFBO@?$AAr?$AAo?$AA?9?$AAr?$AAo@ 00000001400ce178     libucrtd:lcidtoname_downlevel.obj
 0002:00022188       ??_C@_1M@CEEDODME@?$AAr?$AAu?$AA?9?$AAr?$AAu@ 00000001400ce188     libucrtd:lcidtoname_downlevel.obj
 0002:00022198       ??_C@_1M@HPKKKMPP@?$AAs?$AAa?$AA?9?$AAi?$AAn@ 00000001400ce198     libucrtd:lcidtoname_downlevel.obj
 0002:000221a8       ??_C@_1M@BKMAIGOJ@?$AAs?$AAe?$AA?9?$AAf?$AAi@ 00000001400ce1a8     libucrtd:lcidtoname_downlevel.obj
 0002:000221b8       ??_C@_1M@NDPIFLFI@?$AAs?$AAe?$AA?9?$AAn?$AAo@ 00000001400ce1b8     libucrtd:lcidtoname_downlevel.obj
 0002:000221c8       ??_C@_1M@DANKKHJ@?$AAs?$AAe?$AA?9?$AAs?$AAe@ 00000001400ce1c8     libucrtd:lcidtoname_downlevel.obj
 0002:000221d8       ??_C@_1M@PNBLONPJ@?$AAs?$AAk?$AA?9?$AAs?$AAk@ 00000001400ce1d8     libucrtd:lcidtoname_downlevel.obj
 0002:000221e8       ??_C@_1M@LFMODOAL@?$AAs?$AAl?$AA?9?$AAs?$AAi@ 00000001400ce1e8     libucrtd:lcidtoname_downlevel.obj
 0002:000221f8       ??_C@_1O@DFKOMPG@?$AAs?$AAm?$AAa?$AA?9?$AAn?$AAo@ 00000001400ce1f8     libucrtd:lcidtoname_downlevel.obj
 0002:00022208       ??_C@_1O@NDKPBNNH@?$AAs?$AAm?$AAa?$AA?9?$AAs?$AAe@ 00000001400ce208     libucrtd:lcidtoname_downlevel.obj
 0002:00022218       ??_C@_1O@PLLKBHAB@?$AAs?$AAm?$AAj?$AA?9?$AAn?$AAo@ 00000001400ce218     libucrtd:lcidtoname_downlevel.obj
 0002:00022228       ??_C@_1O@CLEPOGCA@?$AAs?$AAm?$AAj?$AA?9?$AAs?$AAe@ 00000001400ce228     libucrtd:lcidtoname_downlevel.obj
 0002:00022238       ??_C@_1O@DLGJGKMK@?$AAs?$AAm?$AAn?$AA?9?$AAf?$AAi@ 00000001400ce238     libucrtd:lcidtoname_downlevel.obj
 0002:00022248       ??_C@_1O@OJDJGAJC@?$AAs?$AAm?$AAs?$AA?9?$AAf?$AAi@ 00000001400ce248     libucrtd:lcidtoname_downlevel.obj
 0002:00022258       ??_C@_1M@BOFOGHPB@?$AAs?$AAq?$AA?9?$AAa?$AAl@ 00000001400ce258     libucrtd:lcidtoname_downlevel.obj
 0002:00022268       ??_C@_1BG@LJBBIPGB@?$AAs?$AAr?$AA?9?$AAb?$AAa?$AA?9?$AAc?$AAy?$AAr?$AAl@ 00000001400ce268     libucrtd:lcidtoname_downlevel.obj
 0002:00022280       ??_C@_1BG@JLBENFOE@?$AAs?$AAr?$AA?9?$AAb?$AAa?$AA?9?$AAl?$AAa?$AAt?$AAn@ 00000001400ce280     libucrtd:lcidtoname_downlevel.obj
 0002:00022298       ??_C@_1BG@KODPNHE@?$AAs?$AAr?$AA?9?$AAs?$AAp?$AA?9?$AAc?$AAy?$AAr?$AAl@ 00000001400ce298     libucrtd:lcidtoname_downlevel.obj
 0002:000222b0       ??_C@_1BG@CIOGKHPB@?$AAs?$AAr?$AA?9?$AAs?$AAp?$AA?9?$AAl?$AAa?$AAt?$AAn@ 00000001400ce2b0     libucrtd:lcidtoname_downlevel.obj
 0002:000222c8       ??_C@_1M@NGFJLMAC@?$AAs?$AAv?$AA?9?$AAf?$AAi@ 00000001400ce2c8     libucrtd:lcidtoname_downlevel.obj
 0002:000222d8       ??_C@_1M@MPJEJAJC@?$AAs?$AAv?$AA?9?$AAs?$AAe@ 00000001400ce2d8     libucrtd:lcidtoname_downlevel.obj
 0002:000222e8       ??_C@_1M@MPNDHLFK@?$AAs?$AAw?$AA?9?$AAk?$AAe@ 00000001400ce2e8     libucrtd:lcidtoname_downlevel.obj
 0002:000222f8       ??_C@_1O@KOHBJJI@?$AAs?$AAy?$AAr?$AA?9?$AAs?$AAy@ 00000001400ce2f8     libucrtd:lcidtoname_downlevel.obj
 0002:00022308       ??_C@_1M@LDCEFHA@?$AAt?$AAa?$AA?9?$AAi?$AAn@ 00000001400ce308     libucrtd:lcidtoname_downlevel.obj
 0002:00022318       ??_C@_1M@CNJOFAK@?$AAt?$AAe?$AA?9?$AAi?$AAn@ 00000001400ce318     libucrtd:lcidtoname_downlevel.obj
 0002:00022328       ??_C@_1M@GNAECACD@?$AAt?$AAh?$AA?9?$AAt?$AAh@ 00000001400ce328     libucrtd:lcidtoname_downlevel.obj
 0002:00022338       ??_C@_1M@CHBIHOJO@?$AAt?$AAn?$AA?9?$AAz?$AAa@ 00000001400ce338     libucrtd:lcidtoname_downlevel.obj
 0002:00022348       ??_C@_1M@GCCMIGPJ@?$AAt?$AAr?$AA?9?$AAt?$AAr@ 00000001400ce348     libucrtd:lcidtoname_downlevel.obj
 0002:00022358       ??_C@_1M@CELMCNBK@?$AAt?$AAt?$AA?9?$AAr?$AAu@ 00000001400ce358     libucrtd:lcidtoname_downlevel.obj
 0002:00022368       ??_C@_1M@KLMCELGA@?$AAu?$AAk?$AA?9?$AAu?$AAa@ 00000001400ce368     libucrtd:lcidtoname_downlevel.obj
 0002:00022378       ??_C@_1M@EPAJJAJF@?$AAu?$AAr?$AA?9?$AAp?$AAk@ 00000001400ce378     libucrtd:lcidtoname_downlevel.obj
 0002:00022388       ??_C@_1BG@GEGPMCDJ@?$AAu?$AAz?$AA?9?$AAu?$AAz?$AA?9?$AAc?$AAy?$AAr?$AAl@ 00000001400ce388     libucrtd:lcidtoname_downlevel.obj
 0002:000223a0       ??_C@_1BG@EGGKJILM@?$AAu?$AAz?$AA?9?$AAu?$AAz?$AA?9?$AAl?$AAa?$AAt?$AAn@ 00000001400ce3a0     libucrtd:lcidtoname_downlevel.obj
 0002:000223b8       ??_C@_1M@GFOCLFF@?$AAv?$AAi?$AA?9?$AAv?$AAn@ 00000001400ce3b8     libucrtd:lcidtoname_downlevel.obj
 0002:000223c8       ??_C@_1M@CPAMEDFI@?$AAx?$AAh?$AA?9?$AAz?$AAa@ 00000001400ce3c8     libucrtd:lcidtoname_downlevel.obj
 0002:000223d8       ??_C@_1O@EBKIFIGN@?$AAz?$AAh?$AA?9?$AAc?$AAh?$AAs@ 00000001400ce3d8     libucrtd:lcidtoname_downlevel.obj
 0002:000223e8       ??_C@_1O@NMHPGANE@?$AAz?$AAh?$AA?9?$AAc?$AAh?$AAt@ 00000001400ce3e8     libucrtd:lcidtoname_downlevel.obj
 0002:000223f8       ??_C@_1M@LPINJOMC@?$AAz?$AAh?$AA?9?$AAc?$AAn@ 00000001400ce3f8     libucrtd:lcidtoname_downlevel.obj
 0002:00022408       ??_C@_1M@OCJEJODD@?$AAz?$AAh?$AA?9?$AAh?$AAk@ 00000001400ce408     libucrtd:lcidtoname_downlevel.obj
 0002:00022418       ??_C@_1M@DNDLJINH@?$AAz?$AAh?$AA?9?$AAm?$AAo@ 00000001400ce418     libucrtd:lcidtoname_downlevel.obj
 0002:00022428       ??_C@_1M@MBFDNDND@?$AAz?$AAh?$AA?9?$AAs?$AAg@ 00000001400ce428     libucrtd:lcidtoname_downlevel.obj
 0002:00022438       ??_C@_1M@IMEPLEPE@?$AAz?$AAh?$AA?9?$AAt?$AAw@ 00000001400ce438     libucrtd:lcidtoname_downlevel.obj
 0002:00022448       ??_C@_1M@BBGHNHJP@?$AAz?$AAu?$AA?9?$AAz?$AAa@ 00000001400ce448     libucrtd:lcidtoname_downlevel.obj
 0002:00022460       ??_C@_1GA@MPOOLHCO@?$AAm?$AAi?$AAn?$AAk?$AAe?$AAr?$AAn?$AAe?$AAl?$AA?2?$AAc?$AAr?$AAt?$AAs?$AA?2@ 00000001400ce460     libucrtd:commit.obj
 0002:000224c0       ??_C@_1BA@FLNMBBIM@?$AA_?$AAc?$AAo?$AAm?$AAm?$AAi?$AAt@ 00000001400ce4c0     libucrtd:commit.obj
 0002:000224d0       ??_C@_1FO@CAMPMGCN@?$AAm?$AAi?$AAn?$AAk?$AAe?$AAr?$AAn?$AAe?$AAl?$AA?2?$AAc?$AAr?$AAt?$AAs?$AA?2@ 00000001400ce4d0     libucrtd:write.obj
 0002:00022530       ??_C@_1O@KOFKDHPL@?$AA_?$AAw?$AAr?$AAi?$AAt?$AAe@ 00000001400ce530     libucrtd:write.obj
 0002:00022540       ??_C@_1CK@MMEFCHHN@?$AA?$CB?$AA_?$AAd?$AAb?$AAc?$AAs?$AAB?$AAu?$AAf?$AAf?$AAe?$AAr?$AAU?$AAs?$AAe@ 00000001400ce540     libucrtd:write.obj
 0002:00022570       ??_C@_1EG@LICJGLJJ@?$AA1?$AA?5?$AA?$DM?$AA?5?$AAm?$AAb?$AA_?$AAl?$AAe?$AAn?$AA?5?$AA?$CG?$AA?$CG?$AA?5?$AAm@ 00000001400ce570     libucrtd:write.obj
 0002:000225c0       ??_C@_1FC@NFILPJB@?$AAm?$AAb?$AA_?$AAb?$AAu?$AAf?$AA_?$AAu?$AAs?$AAe?$AAd?$AA?5?$AA?$CL?$AA?5?$AAb@ 00000001400ce5c0     libucrtd:write.obj
 0002:00022620       ??_C@_1FC@HEJOPHLA@?$AAa?$AAv?$AAa?$AAi?$AAl?$AAa?$AAb?$AAl?$AAe?$AA_?$AAb?$AAy?$AAt?$AAe?$AAs@ 00000001400ce620     libucrtd:write.obj
 0002:00022678       ??_C@_1DI@CNMHHHLG@?$AAi?$AAs?$AAl?$AAe?$AAa?$AAd?$AAb?$AAy?$AAt?$AAe?$AA?$CI?$AA_?$AAd?$AAb?$AAc@ 00000001400ce678     libucrtd:write.obj
 0002:000226b0       ??_C@_1BM@NCANHCIP@?$AA_?$AAw?$AAr?$AAi?$AAt?$AAe?$AA_?$AAn?$AAo?$AAl?$AAo?$AAc?$AAk@ 00000001400ce6b0     libucrtd:write.obj
 0002:000226d0       ??_C@_1CK@CPEAGIIP@?$AAb?$AAu?$AAf?$AAf?$AAe?$AAr?$AA_?$AAs?$AAi?$AAz?$AAe?$AA?5?$AA?$CF?$AA?5?$AA2@ 00000001400ce6d0     libucrtd:write.obj
 0002:00022700       ??_C@_1BO@JGGHCINF@?$AAl?$AAh?$AAs?$AA?5?$AA?$CB?$AA?$DN?$AA?5?$AAn?$AAu?$AAl?$AAl?$AAp?$AAt?$AAr@ 00000001400ce700     libucrtd:wcsnicmp.obj
 0002:00022720       ??_C@_1BO@FHLPEAOG@?$AAr?$AAh?$AAs?$AA?5?$AA?$CB?$AA?$DN?$AA?5?$AAn?$AAu?$AAl?$AAl?$AAp?$AAt?$AAr@ 00000001400ce720     libucrtd:wcsnicmp.obj
 0002:00022740       ??_C@_1GG@FIFJEMIA@?$AAm?$AAi?$AAn?$AAk?$AAe?$AAr?$AAn?$AAe?$AAl?$AA?2?$AAc?$AAr?$AAt?$AAs?$AA?2@ 00000001400ce740     libucrtd:strnicmp.obj
 0002:000227a8       ??_C@_1BI@BJLEPLEF@?$AA_?$AAs?$AAt?$AAr?$AAn?$AAi?$AAc?$AAm?$AAp?$AA_?$AAl@ 00000001400ce7a8     libucrtd:strnicmp.obj
 0002:000227c0       ??_C@_1CC@JLPHKJPH@?$AAc?$AAo?$AAu?$AAn?$AAt?$AA?5?$AA?$DM?$AA?$DN?$AA?5?$AAI?$AAN?$AAT?$AA_?$AAM?$AAA@ 00000001400ce7c0     libucrtd:strnicmp.obj
 0002:000227e8       ??_C@_1BE@BHJDFFNA@?$AA_?$AAs?$AAt?$AAr?$AAn?$AAi?$AAc?$AAm?$AAp@ 00000001400ce7e8     libucrtd:strnicmp.obj
 0002:00022800       ??_C@_1DC@MDAAFACM@?$AA?$CI?$AA?$CC?$AAI?$AAn?$AAv?$AAa?$AAl?$AAi?$AAd?$AA?5?$AAo?$AAp?$AAe?$AAn?$AA?5@ 00000001400ce800     libucrtd:open.obj
 0002:00022840       ??_C@_1FM@EFELGMIP@?$AAm?$AAi?$AAn?$AAk?$AAe?$AAr?$AAn?$AAe?$AAl?$AA?2?$AAc?$AAr?$AAt?$AAs?$AA?2@ 00000001400ce840     libucrtd:open.obj
 0002:000228a0       ??_C@_1CI@CBNKIJOA@?$AAd?$AAe?$AAc?$AAo?$AAd?$AAe?$AA_?$AAa?$AAc?$AAc?$AAe?$AAs?$AAs?$AA_?$AAf@ 00000001400ce8a0     libucrtd:open.obj
 0002:000228c8       ??_C@_1DC@MNGJFJEL@?$AAd?$AAe?$AAc?$AAo?$AAd?$AAe?$AA_?$AAo?$AAp?$AAe?$AAn?$AA_?$AAc?$AAr?$AAe@ 00000001400ce8c8     libucrtd:open.obj
 0002:00022900       ??_C@_1DI@OAOBKLOM@?$AA?$CI?$AA?$CC?$AAI?$AAn?$AAv?$AAa?$AAl?$AAi?$AAd?$AA?5?$AAs?$AAh?$AAa?$AAr?$AAi@ 00000001400ce900     libucrtd:open.obj
 0002:00022938       ??_C@_1CK@LFHOGGAL@?$AAd?$AAe?$AAc?$AAo?$AAd?$AAe?$AA_?$AAs?$AAh?$AAa?$AAr?$AAi?$AAn?$AAg?$AA_@ 00000001400ce938     libucrtd:open.obj
 0002:00022968       ??_C@_1BK@MIHMAFGB@?$AAi?$AAs?$AA_?$AAt?$AAe?$AAx?$AAt?$AA_?$AAm?$AAo?$AAd?$AAe@ 00000001400ce968     libucrtd:open.obj
 0002:00022988       ??_C@_1CG@ICBEBDJJ@?$AA_?$AAg?$AAe?$AAt?$AA_?$AAf?$AAm?$AAo?$AAd?$AAe?$AA?$CI?$AA?$CG?$AAf?$AAm?$AAo@ 00000001400ce988     libucrtd:open.obj
 0002:000229b0       ??_C@_1CI@FIBMFMKJ@?$AAc?$AAo?$AAn?$AAf?$AAi?$AAg?$AAu?$AAr?$AAe?$AA_?$AAt?$AAe?$AAx?$AAt?$AA_@ 00000001400ce9b0     libucrtd:open.obj
 0002:000229d8       ??_C@_1DM@GAGCJPHI@?$AA?$CI?$AAo?$AAf?$AAl?$AAa?$AAg?$AA?5?$AA?$CG?$AA?5?$AAt?$AAe?$AAx?$AAt?$AA_?$AAm@ 00000001400ce9d8     libucrtd:open.obj
 0002:00022a18       ??_C@_1CM@IDLMKMPG@?$AA0?$AA?5?$AA?$CG?$AA?$CG?$AA?5?$AA?$CC?$AAI?$AAn?$AAt?$AAe?$AAr?$AAn?$AAa?$AAl?$AA?5@ 00000001400cea18     libucrtd:open.obj
 0002:00022a50       ??_C@_1IA@IENOJNJF@?$AA0?$AA?5?$AA?$CG?$AA?$CG?$AA?5?$AA?$CC?$AAO?$AAn?$AAl?$AAy?$AA?5?$AAU?$AAT?$AAF?$AA?9@ 00000001400cea50     libucrtd:open.obj
 0002:00022ad0       ??_C@_1CA@DFHJGMAL@?$AAp?$AAa?$AAt?$AAh?$AA?5?$AA?$CB?$AA?$DN?$AA?5?$AAn?$AAu?$AAl?$AAl?$AAp?$AAt?$AAr@ 00000001400cead0     libucrtd:open.obj
 0002:00022af0       ??_C@_1BO@CKEBPLGM@?$AAp?$AAf?$AAh?$AA?5?$AA?$CB?$AA?$DN?$AA?5?$AAn?$AAu?$AAl?$AAl?$AAp?$AAt?$AAr@ 00000001400ceaf0     libucrtd:open.obj
 0002:00022b10       ??_C@_1CM@DJGGMBLF@?$AAc?$AAo?$AAm?$AAm?$AAo?$AAn?$AA_?$AAs?$AAo?$AAp?$AAe?$AAn?$AA_?$AAd?$AAi@ 00000001400ceb10     libucrtd:open.obj
 0002:00022b40       ??_C@_1FC@KMHFBDGJ@?$AA?$CI?$AAp?$AAm?$AAo?$AAd?$AAe?$AA?5?$AA?$CG?$AA?5?$AA?$CI?$AA?$HO?$AA?$CI?$AA_?$AAS?$AA_@ 00000001400ceb40     libucrtd:open.obj
 0002:00022ba0       ??_C@_1GA@DEPMKPD@?$AAm?$AAi?$AAn?$AAk?$AAe?$AAr?$AAn?$AAe?$AAl?$AA?2?$AAc?$AAr?$AAt?$AAs?$AA?2@ 00000001400ceba0     libucrtd:isatty.obj
 0002:00022c00       ??_C@_1BA@LEBDGIHM@?$AA_?$AAi?$AAs?$AAa?$AAt?$AAt?$AAy@ 00000001400cec00     libucrtd:isatty.obj
 0002:00022c10       ??_C@_1GG@MCCIENJO@?$AAm?$AAi?$AAn?$AAk?$AAe?$AAr?$AAn?$AAe?$AAl?$AA?2?$AAc?$AAr?$AAt?$AAs?$AA?2@ 00000001400cec10     libucrtd:mbrtowc.obj
 0002:00022c80       ??_C@_1EK@MCEFBPIK@?$AAr?$AAe?$AAt?$AAv?$AAa?$AAl?$AA?5?$AA?$CB?$AA?$DN?$AA?5?$AA_?$AA_?$AAc?$AAr?$AAt@ 00000001400cec80     libucrtd:mbrtowc.obj
 0002:00022cd0       ??_C@_1EK@OANGPA@?$AA1?$AA?5?$AA?$DM?$AA?$DN?$AA?5?$AAt?$AAr?$AAa?$AAi?$AAl?$AA_?$AAb?$AAy?$AAt?$AAe@ 00000001400cecd0     libucrtd:c32rtomb.obj
 0002:00022d20       ??_C@_1GI@FBFKMNDD@?$AAm?$AAi?$AAn?$AAk?$AAe?$AAr?$AAn?$AAe?$AAl?$AA?2?$AAc?$AAr?$AAt?$AAs?$AA?2@ 00000001400ced20     libucrtd:c32rtomb.obj
 0002:00022d90       ??_C@_1EA@DDDCIHI@?$AAc?$AA3?$AA2?$AA?5?$AA?$DM?$AA?5?$AA?$CI?$AA1?$AAu?$AA?5?$AA?$DM?$AA?$DM?$AA?5?$AA?$CI?$AA7@ 00000001400ced90     libucrtd:c32rtomb.obj
 0002:00022dd0       ??_C@_1GI@IMEEHIAK@?$AAm?$AAi?$AAn?$AAk?$AAe?$AAr?$AAn?$AAe?$AAl?$AA?2?$AAc?$AAr?$AAt?$AAs?$AA?2@ 00000001400cedd0     libucrtd:_fptostr.obj
 0002:00022e38       ??_C@_1DG@NMGBKPMI@?$AA_?$AA_?$AAa?$AAc?$AAr?$AAt?$AA_?$AAf?$AAp?$AA_?$AAs?$AAt?$AAr?$AAf?$AAl@ 00000001400cee38     libucrtd:_fptostr.obj
 0002:00022e70       ??_C@_1IE@EAOKIIFP@?$AAb?$AAu?$AAf?$AAf?$AAe?$AAr?$AA_?$AAc?$AAo?$AAu?$AAn?$AAt?$AA?5?$AA?$DO?$AA?5@ 00000001400cee70     libucrtd:_fptostr.obj
 0002:00022ef8       ??_C@_1CA@EDEEBMBB@?$AAp?$AAf?$AAl?$AAt?$AA?5?$AA?$CB?$AA?$DN?$AA?5?$AAn?$AAu?$AAl?$AAl?$AAp?$AAt?$AAr@ 00000001400ceef8     libucrtd:_fptostr.obj
 0002:00022f20       ??_C@_1GC@DDAKNBNC@?$AAm?$AAi?$AAn?$AAk?$AAe?$AAr?$AAn?$AAe?$AAl?$AA?2?$AAc?$AAr?$AAt?$AAs?$AA?2@ 00000001400cef20     libucrtd:cfout.obj
 0002:00022f88       ??_C@_1BM@FAAOAKKO@?$AA_?$AA_?$AAa?$AAc?$AAr?$AAt?$AA_?$AAf?$AAl?$AAt?$AAo?$AAu?$AAt@ 00000001400cef88     libucrtd:cfout.obj
 0002:00022fb0       ??_C@_1EI@OACEJKEP@?$AAs?$AAt?$AAr?$AAc?$AAp?$AAy?$AA_?$AAs?$AA?$CI?$AAr?$AAe?$AAs?$AAu?$AAl?$AAt@ 00000001400cefb0     libucrtd:cfout.obj
 0002:00022ff8       ??_C@_01GBGANLPD@0@        00000001400ceff8     libucrtd:cfout.obj
 0002:00023000       ??_C@_1FC@KIECGFMP@?$AAs?$AAt?$AAr?$AAc?$AAp?$AAy?$AA_?$AAs?$AA?$CI?$AAr?$AAe?$AAs?$AAu?$AAl?$AAt@ 00000001400cf000     libucrtd:cfout.obj
 0002:00023054       ??_C@_05DNEBIAHO@1?$CDINF@ 00000001400cf054     libucrtd:cfout.obj
 0002:00023060       ??_C@_1FC@NFPJEIBD@?$AAs?$AAt?$AAr?$AAc?$AAp?$AAy?$AA_?$AAs?$AA?$CI?$AAr?$AAe?$AAs?$AAu?$AAl?$AAt@ 00000001400cf060     libucrtd:cfout.obj
 0002:000230b4       ??_C@_06IMKFLFPG@1?$CDQNAN@ 00000001400cf0b4     libucrtd:cfout.obj
 0002:000230c0       ??_C@_1FC@DEJHIMLO@?$AAs?$AAt?$AAr?$AAc?$AAp?$AAy?$AA_?$AAs?$AA?$CI?$AAr?$AAe?$AAs?$AAu?$AAl?$AAt@ 00000001400cf0c0     libucrtd:cfout.obj
 0002:00023114       ??_C@_06PGGFOGJG@1?$CDSNAN@ 00000001400cf114     libucrtd:cfout.obj
 0002:00023120       ??_C@_1FC@KMLHLFPC@?$AAs?$AAt?$AAr?$AAc?$AAp?$AAy?$AA_?$AAs?$AA?$CI?$AAr?$AAe?$AAs?$AAu?$AAl?$AAt@ 00000001400cf120     libucrtd:cfout.obj
 0002:00023174       ??_C@_05PHHOCPM@1?$CDIND@  00000001400cf174     libucrtd:cfout.obj
 0002:00023180       ??_C@_1DE@KHKADFOO@?$AAm?$AAa?$AAn?$AAt?$AAi?$AAs?$AAs?$AAa?$AA_?$AAb?$AAu?$AAf?$AAf?$AAe?$AAr@ 00000001400cf180     libucrtd:cfout.obj
 0002:000231c0       ??_C@_1FI@LFKLOPAC@?$AA?$CI?$AA?$CC?$AAu?$AAn?$AAe?$AAx?$AAp?$AAe?$AAc?$AAt?$AAe?$AAd?$AA?5?$AAi?$AAn@ 00000001400cf1c0     libucrtd:cfout.obj
 0002:00023220       ??_C@_1FG@MLHBDPBG@?$AAq?$AAu?$AAo?$AAt?$AAi?$AAe?$AAn?$AAt?$AA?5?$AA?$DM?$AA?5?$AAd?$AAi?$AAg?$AAi@ 00000001400cf220     libucrtd:cfout.obj
 0002:00023280       ??_C@_1GC@DFIGBGJI@?$AAm?$AAi?$AAn?$AAk?$AAe?$AAr?$AAn?$AAe?$AAl?$AA?2?$AAc?$AAr?$AAt?$AAs?$AA?2@ 00000001400cf280     libucrtd:_flsbuf.obj
 0002:000232f0       ??_C@_1HO@MLMGPAFH@?$AA?$CI?$AA?$CC?$AAi?$AAn?$AAc?$AAo?$AAn?$AAs?$AAi?$AAs?$AAt?$AAe?$AAn?$AAt?$AA?5@ 00000001400cf2f0     libucrtd:_flsbuf.obj
 0002:000233a8       ??_C@_1DI@OOEEHOBJ@?$AAb?$AAa?$AAs?$AAe?$AA?5?$AA?$CB?$AA?$DN?$AA?5?$AAn?$AAu?$AAl?$AAl?$AAp?$AAt?$AAr@ 00000001400cf3a8     libucrtd:qsort.obj
 0002:000233e0       ??_C@_1GA@KPPCKKGE@?$AAm?$AAi?$AAn?$AAk?$AAe?$AAr?$AAn?$AAe?$AAl?$AA?2?$AAc?$AAr?$AAt?$AAs?$AA?2@ 00000001400cf3e0     libucrtd:qsort.obj
 0002:00023440       ??_C@_1M@INMHODIG@?$AAq?$AAs?$AAo?$AAr?$AAt@ 00000001400cf440     libucrtd:qsort.obj
 0002:00023450       ??_C@_1BE@NJBEBBME@?$AAw?$AAi?$AAd?$AAt?$AAh?$AA?5?$AA?$DO?$AA?5?$AA0@ 00000001400cf450     libucrtd:qsort.obj
 0002:00023468       ??_C@_1CA@LIDFOMIN@?$AAc?$AAo?$AAm?$AAp?$AA?5?$AA?$CB?$AA?$DN?$AA?5?$AAn?$AAu?$AAl?$AAl?$AAp?$AAt?$AAr@ 00000001400cf468     libucrtd:qsort.obj
 0002:00023488       ??_C@_1CE@BLLJFLOH@?$AAs?$AAt?$AAr?$AAi?$AAn?$AAg?$AA?5?$AA?$CB?$AA?$DN?$AA?5?$AAn?$AAu?$AAl?$AAl?$AAp@ 00000001400cf488     libucrtd:mbsdec.obj
 0002:000234b0       ??_C@_1GO@DDOMFNGF@?$AAm?$AAi?$AAn?$AAk?$AAe?$AAr?$AAn?$AAe?$AAl?$AA?2?$AAc?$AAr?$AAt?$AAs?$AA?2@ 00000001400cf4b0     libucrtd:mbsdec.obj
 0002:00023520       ??_C@_1BE@KLNCOLCD@?$AA_?$AAm?$AAb?$AAs?$AAd?$AAe?$AAc?$AA_?$AAl@ 00000001400cf520     libucrtd:mbsdec.obj
 0002:00023538       ??_C@_1CG@CMGPGAOD@?$AAc?$AAu?$AAr?$AAr?$AAe?$AAn?$AAt?$AA?5?$AA?$CB?$AA?$DN?$AA?5?$AAn?$AAu?$AAl?$AAl@ 00000001400cf538     libucrtd:mbsdec.obj
 0002:00023560       ??_C@_0DH@IKPCBLP@minkernel?2crts?2ucrt?2src?2appcrt?2@ 00000001400cf560     libucrtd:lcmapstringa.obj
 0002:00023598       ??_C@_1CI@CCKDLILB@?$AA_?$AAs?$AAt?$AAr?$AAi?$AAn?$AAg?$AA1?$AA?5?$AA?$CB?$AA?$DN?$AA?5?$AAn?$AAu?$AAl@ 00000001400cf598     libucrtd:wcsnicol.obj
 0002:000235c0       ??_C@_1CI@NAPEFFEJ@?$AA_?$AAs?$AAt?$AAr?$AAi?$AAn?$AAg?$AA2?$AA?5?$AA?$CB?$AA?$DN?$AA?5?$AAn?$AAu?$AAl@ 00000001400cf5c0     libucrtd:wcsnicol.obj
 0002:000235f0       ??_C@_1GG@LACFCIFA@?$AAm?$AAi?$AAn?$AAk?$AAe?$AAr?$AAn?$AAe?$AAl?$AA?2?$AAc?$AAr?$AAt?$AAs?$AA?2@ 00000001400cf5f0     libucrtd:strnicol.obj
 0002:00023658       ??_C@_1BK@IOJEBPLP@?$AA_?$AAs?$AAt?$AAr?$AAn?$AAi?$AAc?$AAo?$AAl?$AAl?$AA_?$AAl@ 00000001400cf658     libucrtd:strnicol.obj
 0002:00023678       ??_C@_1BK@FPAMLIDG@?$AAs?$AA?5?$AA?$CB?$AA?$DN?$AA?5?$AAn?$AAu?$AAl?$AAl?$AAp?$AAt?$AAr@ 00000001400cf678     libucrtd:mbstowcs.obj
 0002:000236a0       ??_C@_1GI@KABMHNPH@?$AAm?$AAi?$AAn?$AAk?$AAe?$AAr?$AAn?$AAe?$AAl?$AA?2?$AAc?$AAr?$AAt?$AAs?$AA?2@ 00000001400cf6a0     libucrtd:mbstowcs.obj
 0002:00023708       ??_C@_1CG@JEHFHLNG@?$AA_?$AAm?$AAb?$AAs?$AAt?$AAo?$AAw?$AAc?$AAs?$AA_?$AAl?$AA_?$AAh?$AAe?$AAl@ 00000001400cf708     libucrtd:mbstowcs.obj
 0002:00023730       ??_C@_1JM@MEKBACIG@?$AA?$CI?$AAp?$AAw?$AAc?$AAs?$AA?5?$AA?$DN?$AA?$DN?$AA?5?$AAn?$AAu?$AAl?$AAl?$AAp?$AAt@ 00000001400cf730     libucrtd:mbstowcs.obj
 0002:000237d0       ??_C@_1BM@PHENIGHD@?$AA_?$AAm?$AAb?$AAs?$AAt?$AAo?$AAw?$AAc?$AAs?$AA_?$AAs?$AA_?$AAl@ 00000001400cf7d0     libucrtd:mbstowcs.obj
 0002:000237f0       ??_C@_1CM@LLECFMFH@?$AAb?$AAu?$AAf?$AAf?$AAe?$AAr?$AAS?$AAi?$AAz?$AAe?$AA?5?$AA?$DM?$AA?$DN?$AA?5?$AAI@ 00000001400cf7f0     libucrtd:mbstowcs.obj
 0002:00023820       ??_C@_1CO@JNPEPJAL@?$AAr?$AAe?$AAt?$AAs?$AAi?$AAz?$AAe?$AA?5?$AA?$DM?$AA?$DN?$AA?5?$AAs?$AAi?$AAz?$AAe@ 00000001400cf820     libucrtd:mbstowcs.obj
 0002:00023878       ??_C@_1CA@NOKNKDIG@?$AAp?$AAw?$AAc?$AAs?$AA?5?$AA?$CB?$AA?$DN?$AA?5?$AAn?$AAu?$AAl?$AAl?$AAp?$AAt?$AAr@ 00000001400cf878     libucrtd:wcstombs.obj
 0002:000238a0       ??_C@_1GI@EEJDEALP@?$AAm?$AAi?$AAn?$AAk?$AAe?$AAr?$AAn?$AAe?$AAl?$AA?2?$AAc?$AAr?$AAt?$AAs?$AA?2@ 00000001400cf8a0     libucrtd:wcstombs.obj
 0002:00023908       ??_C@_1CG@LLJCAOHF@?$AA_?$AAw?$AAc?$AAs?$AAt?$AAo?$AAm?$AAb?$AAs?$AA_?$AAl?$AA_?$AAh?$AAe?$AAl@ 00000001400cf908     libucrtd:wcstombs.obj
 0002:00023930       ??_C@_1JI@DFNKFCLG@?$AA?$CI?$AAd?$AAs?$AAt?$AA?5?$AA?$CB?$AA?$DN?$AA?5?$AAn?$AAu?$AAl?$AAl?$AAp?$AAt?$AAr@ 00000001400cf930     libucrtd:wcstombs.obj
 0002:000239c8       ??_C@_1BM@BDMCLLDL@?$AA_?$AAw?$AAc?$AAs?$AAt?$AAo?$AAm?$AAb?$AAs?$AA_?$AAs?$AA_?$AAl@ 00000001400cf9c8     libucrtd:wcstombs.obj
 0002:000239e8       ??_C@_1CM@KEOGBFLI@?$AAs?$AAi?$AAz?$AAe?$AAI?$AAn?$AAB?$AAy?$AAt?$AAe?$AAs?$AA?5?$AA?$DO?$AA?5?$AAr@ 00000001400cf9e8     libucrtd:wcstombs.obj
 0002:00023a18       ??_C@_0DA@IEKPAGFB@minkernel?2crts?2ucrt?2src?2appcrt?2@ 00000001400cfa18     libucrtd:chsize.obj
 0002:00023ca0       ??_C@_1DG@JNDMIEJL@?$AA?$CI?$AA?$CC?$AAI?$AAn?$AAv?$AAa?$AAl?$AAi?$AAd?$AA?5?$AAi?$AAn?$AAp?$AAu?$AAt@ 00000001400cfca0     libucrtd:contrlfp.obj
 0002:00023ce0       ??_C@_1FO@HHLKCIKB@?$AAm?$AAi?$AAn?$AAk?$AAe?$AAr?$AAn?$AAe?$AAl?$AA?2?$AAc?$AAr?$AAt?$AAs?$AA?2@ 00000001400cfce0     libucrtd:contrlfp.obj
 0002:00023d40       ??_C@_1BK@CDOALEA@?$AA_?$AAc?$AAo?$AAn?$AAt?$AAr?$AAo?$AAl?$AAf?$AAp?$AA_?$AAs@ 00000001400cfd40     libucrtd:contrlfp.obj
 0002:00023d60       ??_C@_1HK@ELDMAMK@?$AAc?$AAc?$AAh?$AAC?$AAo?$AAu?$AAn?$AAt?$AA1?$AA?$DN?$AA?$DN?$AA0?$AA?5?$AA?$CG?$AA?$CG@ 00000001400cfd60     libucrtd:comparestringa.obj
 0002:00023de0       ??_C@_1HC@NLKDIKED@?$AAm?$AAi?$AAn?$AAk?$AAe?$AAr?$AAn?$AAe?$AAl?$AA?2?$AAc?$AAr?$AAt?$AAs?$AA?2@ 00000001400cfde0     libucrtd:comparestringa.obj
 0002:00023e58       ??_C@_0DJ@MBLHFEOE@minkernel?2crts?2ucrt?2src?2appcrt?2@ 00000001400cfe58     libucrtd:comparestringa.obj
 0002:00023e98       ??_C@_1BA@BALFACEM@?$AAC?$AAO?$AAN?$AAO?$AAU?$AAT?$AA$@ 00000001400cfe98     libucrtd:initcon.obj
 0002:00023eb0       __log10_256_lead           00000001400cfeb0     libucrtd:log10_256_lead_tail_table.obj
 0002:000246c0       __log10_256_tail           00000001400d06c0     libucrtd:log10_256_lead_tail_table.obj
 0002:00024ed0       __log_F_inv_qword          00000001400d0ed0     libucrtd:log_f_inv_qword_table.obj
 0002:000256e0       ??_C@_1EK@PDBKILLM@?$AA?$CI?$AAm?$AAa?$AAs?$AAk?$AA?$CG?$AA?$HO?$AA?$CI?$AA_?$AAM?$AAC?$AAW?$AA_?$AAD?$AAN@ 00000001400d16e0     libucrtd:ieee.obj
 0002:00025730       ??_C@_1GC@IEFABLII@?$AAm?$AAi?$AAn?$AAk?$AAe?$AAr?$AAn?$AAe?$AAl?$AA?2?$AAc?$AAr?$AAt?$AAs?$AA?2@ 00000001400d1730     libucrtd:ieee.obj
 0002:000257a0       ??_7type_info@@6B@         00000001400d17a0     LIBCMTD:std_type_info_static.obj
 0002:00025800       _load_config_used          00000001400d1800     LIBCMTD:loadcfg.obj
 0002:00025980       _tls_used                  00000001400d1980     LIBCMTD:tlssup.obj
 0002:000259a8       ??_R4exception@std@@6B@    00000001400d19a8     libvcruntimed:frame.obj
 0002:000259d0       ??_R3exception@std@@8      00000001400d19d0     libvcruntimed:frame.obj
 0002:000259e8       ??_R2exception@std@@8      00000001400d19e8     libvcruntimed:frame.obj
 0002:000259f8       ??_R1A@?0A@EA@exception@std@@8 00000001400d19f8     libvcruntimed:frame.obj
 0002:00025a20       ??_R4bad_exception@std@@6B@ 00000001400d1a20     libvcruntimed:frame.obj
 0002:00025a48       ??_R3bad_exception@std@@8  00000001400d1a48     libvcruntimed:frame.obj
 0002:00025a60       ??_R2bad_exception@std@@8  00000001400d1a60     libvcruntimed:frame.obj
 0002:00025a78       ??_R1A@?0A@EA@bad_exception@std@@8 00000001400d1a78     libvcruntimed:frame.obj
 0002:00025aa0       ??_R4type_info@@6B@        00000001400d1aa0     LIBCMTD:std_type_info_static.obj
 0002:00025ac8       ??_R3type_info@@8          00000001400d1ac8     LIBCMTD:std_type_info_static.obj
 0002:00025ae0       ??_R2type_info@@8          00000001400d1ae0     LIBCMTD:std_type_info_static.obj
 0002:00025af0       ??_R1A@?0A@EA@type_info@@8 00000001400d1af0     LIBCMTD:std_type_info_static.obj
 0002:00025b14       __volatile_metadata        00000001400d1b14     <linker-defined>
 0002:00026188       __rtc_iaa                  00000001400d2188     LIBCMTD:initsect.obj
 0002:00026190       __rtc_izz                  00000001400d2190     LIBCMTD:initsect.obj
 0002:00026198       __rtc_taa                  00000001400d2198     LIBCMTD:initsect.obj
 0002:000261a0       __rtc_tzz                  00000001400d21a0     LIBCMTD:initsect.obj
 0002:000261a8       _tls_start                 00000001400d21a8     LIBCMTD:tlssup.obj
 0002:000261d0       _tls_end                   00000001400d21d0     LIBCMTD:tlssup.obj
 0002:00028db8       _TI2?AVbad_exception@std@@ 00000001400d4db8     libvcruntimed:frame.obj
 0002:00028dd8       _CTA2?AVbad_exception@std@@ 00000001400d4dd8     libvcruntimed:frame.obj
 0002:00028df0       _CT??_R0?AVbad_exception@std@@@8??0bad_exception@std@@QEAA@AEBV01@@Z24 00000001400d4df0     libvcruntimed:frame.obj
 0002:00028e18       _CT??_R0?AVexception@std@@@8??0exception@std@@QEAA@AEBV01@@Z24 00000001400d4e18     libvcruntimed:frame.obj
 0002:00028e3c       __IMPORT_DESCRIPTOR_USER32 00000001400d4e3c     user32:USER32.dll
 0002:00028e50       __IMPORT_DESCRIPTOR_OPENGL32 00000001400d4e50     opengl32:OPENGL32.dll
 0002:00028e64       __IMPORT_DESCRIPTOR_GDI32  00000001400d4e64     gdi32:GDI32.dll
 0002:00028e78       __IMPORT_DESCRIPTOR_WINMM  00000001400d4e78     winmm:WINMM.dll
 0002:00028e8c       __IMPORT_DESCRIPTOR_KERNEL32 00000001400d4e8c     kernel32:KERNEL32.dll
 0002:00028ea0       __NULL_IMPORT_DESCRIPTOR   00000001400d4ea0     user32:USER32.dll
 0003:00000000       ?IDs@@3PAUpair_int_string@@A 00000001400d6000     audio_visualizer.obj
 0003:00000940       __security_cookie          00000001400d6940     LIBCMTD:gs_cookie.obj
 0003:00000948       __security_cookie_complement 00000001400d6948     LIBCMTD:gs_cookie.obj
 0003:00000950       _fltused                   00000001400d6950     LIBCMTD:fltused.obj
 0003:00000954       __scrt_native_dllmain_reason 00000001400d6954     LIBCMTD:utility.obj
 0003:00000958       __scrt_default_matherr     00000001400d6958     LIBCMTD:matherr.obj
 0003:00000960       __isa_available            00000001400d6960     LIBCMTD:cpu_disp.obj
 0003:00000964       __isa_enabled              00000001400d6964     LIBCMTD:cpu_disp.obj
 0003:00000968       __memcpy_nt_iters          00000001400d6968     LIBCMTD:cpu_disp.obj
 0003:00000970       __memset_nt_iters          00000001400d6970     LIBCMTD:cpu_disp.obj
 0003:00000990       _iob                       00000001400d6990     libucrtd:_file.obj
 0003:00000aa4       _crtDbgFlag                00000001400d6aa4     libucrtd:debug_heap.obj
 0003:00000aa8       _crtBreakAlloc             00000001400d6aa8     libucrtd:debug_heap.obj
 0003:00000ab0       __abort_behavior           00000001400d6ab0     libucrtd:abort.obj
 0003:00000ac0       __badioinfo                00000001400d6ac0     libucrtd:ioinit.obj
 0003:00000b10       _lookuptrailbytes          00000001400d6b10     libucrtd:read.obj
 0003:00000c20       __acrt_initial_locale_data 00000001400d6c20     libucrtd:nlsdata.obj
 0003:00000d78       __acrt_initial_locale_pointers 00000001400d6d78     libucrtd:nlsdata.obj
 0003:00000d88       __acrt_wide_c_locale_string 00000001400d6d88     libucrtd:nlsdata.obj
 0003:00000d90       _pwctype                   00000001400d6d90     libucrtd:ctype.obj
 0003:00000da0       __acrt_initial_multibyte_data 00000001400d6da0     libucrtd:mbctype.obj
 0003:000012e0       __acrt_lconv_c             00000001400d72e0     libucrtd:localeconv.obj
 0003:00001378       __acrt_lconv_static_decimal 00000001400d7378     libucrtd:localeconv.obj
 0003:0000137c       __acrt_lconv_static_W_decimal 00000001400d737c     libucrtd:localeconv.obj
 0003:00001380       __globallocalestatus       00000001400d7380     libucrtd:glstatus.obj
 0003:00001388       _pfnAllocHook              00000001400d7388     libucrtd:debug_heap_hook.obj
 0003:00001390       _crtAssertBusy             00000001400d7390     libucrtd:dbgrptt.obj
 0003:00001398       _CrtDbgMode                00000001400d7398     libucrtd:dbgrptt.obj
 0003:000013a8       _CrtDbgFile                00000001400d73a8     libucrtd:dbgrptt.obj
 0003:000013e0       ??_R0?AVbad_exception@std@@@8 00000001400d73e0     libvcruntimed:frame.obj
 0003:00001408       ??_R0?AVexception@std@@@8  00000001400d7408     libvcruntimed:frame.obj
 0003:00001430       ??_R0?AVtype_info@@@8      00000001400d7430     LIBCMTD:std_type_info_static.obj
 0003:00001450       GLVersion                  00000001400d7450     audio_visualizer.obj
 0003:00001458       GLAD_GL_VERSION_1_0        00000001400d7458     audio_visualizer.obj
 0003:0000145c       GLAD_GL_VERSION_1_1        00000001400d745c     audio_visualizer.obj
 0003:00001460       glad_glCullFace            00000001400d7460     audio_visualizer.obj
 0003:00001468       glad_glFrontFace           00000001400d7468     audio_visualizer.obj
 0003:00001470       glad_glHint                00000001400d7470     audio_visualizer.obj
 0003:00001478       glad_glLineWidth           00000001400d7478     audio_visualizer.obj
 0003:00001480       glad_glPointSize           00000001400d7480     audio_visualizer.obj
 0003:00001488       glad_glPolygonMode         00000001400d7488     audio_visualizer.obj
 0003:00001490       glad_glScissor             00000001400d7490     audio_visualizer.obj
 0003:00001498       glad_glTexParameterf       00000001400d7498     audio_visualizer.obj
 0003:000014a0       glad_glTexParameterfv      00000001400d74a0     audio_visualizer.obj
 0003:000014a8       glad_glTexParameteri       00000001400d74a8     audio_visualizer.obj
 0003:000014b0       glad_glTexParameteriv      00000001400d74b0     audio_visualizer.obj
 0003:000014b8       glad_glTexImage1D          00000001400d74b8     audio_visualizer.obj
 0003:000014c0       glad_glTexImage2D          00000001400d74c0     audio_visualizer.obj
 0003:000014c8       glad_glDrawBuffer          00000001400d74c8     audio_visualizer.obj
 0003:000014d0       glad_glClear               00000001400d74d0     audio_visualizer.obj
 0003:000014d8       glad_glClearColor          00000001400d74d8     audio_visualizer.obj
 0003:000014e0       glad_glClearStencil        00000001400d74e0     audio_visualizer.obj
 0003:000014e8       glad_glClearDepth          00000001400d74e8     audio_visualizer.obj
 0003:000014f0       glad_glStencilMask         00000001400d74f0     audio_visualizer.obj
 0003:000014f8       glad_glColorMask           00000001400d74f8     audio_visualizer.obj
 0003:00001500       glad_glDepthMask           00000001400d7500     audio_visualizer.obj
 0003:00001508       glad_glDisable             00000001400d7508     audio_visualizer.obj
 0003:00001510       glad_glEnable              00000001400d7510     audio_visualizer.obj
 0003:00001518       glad_glFinish              00000001400d7518     audio_visualizer.obj
 0003:00001520       glad_glFlush               00000001400d7520     audio_visualizer.obj
 0003:00001528       glad_glBlendFunc           00000001400d7528     audio_visualizer.obj
 0003:00001530       glad_glLogicOp             00000001400d7530     audio_visualizer.obj
 0003:00001538       glad_glStencilFunc         00000001400d7538     audio_visualizer.obj
 0003:00001540       glad_glStencilOp           00000001400d7540     audio_visualizer.obj
 0003:00001548       glad_glDepthFunc           00000001400d7548     audio_visualizer.obj
 0003:00001550       glad_glPixelStoref         00000001400d7550     audio_visualizer.obj
 0003:00001558       glad_glPixelStorei         00000001400d7558     audio_visualizer.obj
 0003:00001560       glad_glReadBuffer          00000001400d7560     audio_visualizer.obj
 0003:00001568       glad_glReadPixels          00000001400d7568     audio_visualizer.obj
 0003:00001570       glad_glGetBooleanv         00000001400d7570     audio_visualizer.obj
 0003:00001578       glad_glGetDoublev          00000001400d7578     audio_visualizer.obj
 0003:00001580       glad_glGetError            00000001400d7580     audio_visualizer.obj
 0003:00001588       glad_glGetFloatv           00000001400d7588     audio_visualizer.obj
 0003:00001590       glad_glGetIntegerv         00000001400d7590     audio_visualizer.obj
 0003:00001598       glad_glGetString           00000001400d7598     audio_visualizer.obj
 0003:000015a0       glad_glGetTexImage         00000001400d75a0     audio_visualizer.obj
 0003:000015a8       glad_glGetTexParameterfv   00000001400d75a8     audio_visualizer.obj
 0003:000015b0       glad_glGetTexParameteriv   00000001400d75b0     audio_visualizer.obj
 0003:000015b8       glad_glGetTexLevelParameterfv 00000001400d75b8     audio_visualizer.obj
 0003:000015c0       glad_glGetTexLevelParameteriv 00000001400d75c0     audio_visualizer.obj
 0003:000015c8       glad_glIsEnabled           00000001400d75c8     audio_visualizer.obj
 0003:000015d0       glad_glDepthRange          00000001400d75d0     audio_visualizer.obj
 0003:000015d8       glad_glViewport            00000001400d75d8     audio_visualizer.obj
 0003:000015e0       glad_glDrawArrays          00000001400d75e0     audio_visualizer.obj
 0003:000015e8       glad_glDrawElements        00000001400d75e8     audio_visualizer.obj
 0003:000015f0       glad_glPolygonOffset       00000001400d75f0     audio_visualizer.obj
 0003:000015f8       glad_glCopyTexImage1D      00000001400d75f8     audio_visualizer.obj
 0003:00001600       glad_glCopyTexImage2D      00000001400d7600     audio_visualizer.obj
 0003:00001608       glad_glCopyTexSubImage1D   00000001400d7608     audio_visualizer.obj
 0003:00001610       glad_glCopyTexSubImage2D   00000001400d7610     audio_visualizer.obj
 0003:00001618       glad_glTexSubImage1D       00000001400d7618     audio_visualizer.obj
 0003:00001620       glad_glTexSubImage2D       00000001400d7620     audio_visualizer.obj
 0003:00001628       glad_glBindTexture         00000001400d7628     audio_visualizer.obj
 0003:00001630       glad_glDeleteTextures      00000001400d7630     audio_visualizer.obj
 0003:00001638       glad_glGenTextures         00000001400d7638     audio_visualizer.obj
 0003:00001640       glad_glIsTexture           00000001400d7640     audio_visualizer.obj
 0003:00001648       GLAD_GL_VERSION_1_2        00000001400d7648     audio_visualizer.obj
 0003:0000164c       GLAD_GL_VERSION_1_3        00000001400d764c     audio_visualizer.obj
 0003:00001650       glad_glDrawRangeElements   00000001400d7650     audio_visualizer.obj
 0003:00001658       glad_glTexImage3D          00000001400d7658     audio_visualizer.obj
 0003:00001660       glad_glTexSubImage3D       00000001400d7660     audio_visualizer.obj
 0003:00001668       glad_glCopyTexSubImage3D   00000001400d7668     audio_visualizer.obj
 0003:00001670       glad_glActiveTexture       00000001400d7670     audio_visualizer.obj
 0003:00001678       glad_glSampleCoverage      00000001400d7678     audio_visualizer.obj
 0003:00001680       glad_glCompressedTexImage3D 00000001400d7680     audio_visualizer.obj
 0003:00001688       glad_glCompressedTexImage2D 00000001400d7688     audio_visualizer.obj
 0003:00001690       glad_glCompressedTexImage1D 00000001400d7690     audio_visualizer.obj
 0003:00001698       glad_glCompressedTexSubImage3D 00000001400d7698     audio_visualizer.obj
 0003:000016a0       glad_glCompressedTexSubImage2D 00000001400d76a0     audio_visualizer.obj
 0003:000016a8       glad_glCompressedTexSubImage1D 00000001400d76a8     audio_visualizer.obj
 0003:000016b0       glad_glGetCompressedTexImage 00000001400d76b0     audio_visualizer.obj
 0003:000016b8       GLAD_GL_VERSION_1_4        00000001400d76b8     audio_visualizer.obj
 0003:000016bc       GLAD_GL_VERSION_1_5        00000001400d76bc     audio_visualizer.obj
 0003:000016c0       glad_glBlendFuncSeparate   00000001400d76c0     audio_visualizer.obj
 0003:000016c8       glad_glMultiDrawArrays     00000001400d76c8     audio_visualizer.obj
 0003:000016d0       glad_glMultiDrawElements   00000001400d76d0     audio_visualizer.obj
 0003:000016d8       glad_glPointParameterf     00000001400d76d8     audio_visualizer.obj
 0003:000016e0       glad_glPointParameterfv    00000001400d76e0     audio_visualizer.obj
 0003:000016e8       glad_glPointParameteri     00000001400d76e8     audio_visualizer.obj
 0003:000016f0       glad_glPointParameteriv    00000001400d76f0     audio_visualizer.obj
 0003:000016f8       glad_glBlendColor          00000001400d76f8     audio_visualizer.obj
 0003:00001700       glad_glBlendEquation       00000001400d7700     audio_visualizer.obj
 0003:00001708       glad_glGenQueries          00000001400d7708     audio_visualizer.obj
 0003:00001710       glad_glDeleteQueries       00000001400d7710     audio_visualizer.obj
 0003:00001718       glad_glIsQuery             00000001400d7718     audio_visualizer.obj
 0003:00001720       glad_glBeginQuery          00000001400d7720     audio_visualizer.obj
 0003:00001728       glad_glEndQuery            00000001400d7728     audio_visualizer.obj
 0003:00001730       glad_glGetQueryiv          00000001400d7730     audio_visualizer.obj
 0003:00001738       glad_glGetQueryObjectiv    00000001400d7738     audio_visualizer.obj
 0003:00001740       glad_glGetQueryObjectuiv   00000001400d7740     audio_visualizer.obj
 0003:00001748       glad_glBindBuffer          00000001400d7748     audio_visualizer.obj
 0003:00001750       glad_glDeleteBuffers       00000001400d7750     audio_visualizer.obj
 0003:00001758       glad_glGenBuffers          00000001400d7758     audio_visualizer.obj
 0003:00001760       glad_glIsBuffer            00000001400d7760     audio_visualizer.obj
 0003:00001768       glad_glBufferData          00000001400d7768     audio_visualizer.obj
 0003:00001770       glad_glBufferSubData       00000001400d7770     audio_visualizer.obj
 0003:00001778       glad_glGetBufferSubData    00000001400d7778     audio_visualizer.obj
 0003:00001780       glad_glMapBuffer           00000001400d7780     audio_visualizer.obj
 0003:00001788       glad_glUnmapBuffer         00000001400d7788     audio_visualizer.obj
 0003:00001790       glad_glGetBufferParameteriv 00000001400d7790     audio_visualizer.obj
 0003:00001798       glad_glGetBufferPointerv   00000001400d7798     audio_visualizer.obj
 0003:000017a0       GLAD_GL_VERSION_2_0        00000001400d77a0     audio_visualizer.obj
 0003:000017a4       GLAD_GL_VERSION_2_1        00000001400d77a4     audio_visualizer.obj
 0003:000017a8       glad_glBlendEquationSeparate 00000001400d77a8     audio_visualizer.obj
 0003:000017b0       glad_glDrawBuffers         00000001400d77b0     audio_visualizer.obj
 0003:000017b8       glad_glStencilOpSeparate   00000001400d77b8     audio_visualizer.obj
 0003:000017c0       glad_glStencilFuncSeparate 00000001400d77c0     audio_visualizer.obj
 0003:000017c8       glad_glStencilMaskSeparate 00000001400d77c8     audio_visualizer.obj
 0003:000017d0       glad_glAttachShader        00000001400d77d0     audio_visualizer.obj
 0003:000017d8       glad_glBindAttribLocation  00000001400d77d8     audio_visualizer.obj
 0003:000017e0       glad_glCompileShader       00000001400d77e0     audio_visualizer.obj
 0003:000017e8       glad_glCreateProgram       00000001400d77e8     audio_visualizer.obj
 0003:000017f0       glad_glCreateShader        00000001400d77f0     audio_visualizer.obj
 0003:000017f8       glad_glDeleteProgram       00000001400d77f8     audio_visualizer.obj
 0003:00001800       glad_glDeleteShader        00000001400d7800     audio_visualizer.obj
 0003:00001808       glad_glDetachShader        00000001400d7808     audio_visualizer.obj
 0003:00001810       glad_glDisableVertexAttribArray 00000001400d7810     audio_visualizer.obj
 0003:00001818       glad_glEnableVertexAttribArray 00000001400d7818     audio_visualizer.obj
 0003:00001820       glad_glGetActiveAttrib     00000001400d7820     audio_visualizer.obj
 0003:00001828       glad_glGetActiveUniform    00000001400d7828     audio_visualizer.obj
 0003:00001830       glad_glGetAttachedShaders  00000001400d7830     audio_visualizer.obj
 0003:00001838       glad_glGetAttribLocation   00000001400d7838     audio_visualizer.obj
 0003:00001840       glad_glGetProgramiv        00000001400d7840     audio_visualizer.obj
 0003:00001848       glad_glGetProgramInfoLog   00000001400d7848     audio_visualizer.obj
 0003:00001850       glad_glGetShaderiv         00000001400d7850     audio_visualizer.obj
 0003:00001858       glad_glGetShaderInfoLog    00000001400d7858     audio_visualizer.obj
 0003:00001860       glad_glGetShaderSource     00000001400d7860     audio_visualizer.obj
 0003:00001868       glad_glGetUniformLocation  00000001400d7868     audio_visualizer.obj
 0003:00001870       glad_glGetUniformfv        00000001400d7870     audio_visualizer.obj
 0003:00001878       glad_glGetUniformiv        00000001400d7878     audio_visualizer.obj
 0003:00001880       glad_glGetVertexAttribdv   00000001400d7880     audio_visualizer.obj
 0003:00001888       glad_glGetVertexAttribfv   00000001400d7888     audio_visualizer.obj
 0003:00001890       glad_glGetVertexAttribiv   00000001400d7890     audio_visualizer.obj
 0003:00001898       glad_glGetVertexAttribPointerv 00000001400d7898     audio_visualizer.obj
 0003:000018a0       glad_glIsProgram           00000001400d78a0     audio_visualizer.obj
 0003:000018a8       glad_glIsShader            00000001400d78a8     audio_visualizer.obj
 0003:000018b0       glad_glLinkProgram         00000001400d78b0     audio_visualizer.obj
 0003:000018b8       glad_glShaderSource        00000001400d78b8     audio_visualizer.obj
 0003:000018c0       glad_glUseProgram          00000001400d78c0     audio_visualizer.obj
 0003:000018c8       glad_glUniform1f           00000001400d78c8     audio_visualizer.obj
 0003:000018d0       glad_glUniform2f           00000001400d78d0     audio_visualizer.obj
 0003:000018d8       glad_glUniform3f           00000001400d78d8     audio_visualizer.obj
 0003:000018e0       glad_glUniform4f           00000001400d78e0     audio_visualizer.obj
 0003:000018e8       glad_glUniform1i           00000001400d78e8     audio_visualizer.obj
 0003:000018f0       glad_glUniform2i           00000001400d78f0     audio_visualizer.obj
 0003:000018f8       glad_glUniform3i           00000001400d78f8     audio_visualizer.obj
 0003:00001900       glad_glUniform4i           00000001400d7900     audio_visualizer.obj
 0003:00001908       glad_glUniform1fv          00000001400d7908     audio_visualizer.obj
 0003:00001910       glad_glUniform2fv          00000001400d7910     audio_visualizer.obj
 0003:00001918       glad_glUniform3fv          00000001400d7918     audio_visualizer.obj
 0003:00001920       glad_glUniform4fv          00000001400d7920     audio_visualizer.obj
 0003:00001928       glad_glUniform1iv          00000001400d7928     audio_visualizer.obj
 0003:00001930       glad_glUniform2iv          00000001400d7930     audio_visualizer.obj
 0003:00001938       glad_glUniform3iv          00000001400d7938     audio_visualizer.obj
 0003:00001940       glad_glUniform4iv          00000001400d7940     audio_visualizer.obj
 0003:00001948       glad_glUniformMatrix2fv    00000001400d7948     audio_visualizer.obj
 0003:00001950       glad_glUniformMatrix3fv    00000001400d7950     audio_visualizer.obj
 0003:00001958       glad_glUniformMatrix4fv    00000001400d7958     audio_visualizer.obj
 0003:00001960       glad_glValidateProgram     00000001400d7960     audio_visualizer.obj
 0003:00001968       glad_glVertexAttrib1d      00000001400d7968     audio_visualizer.obj
 0003:00001970       glad_glVertexAttrib1dv     00000001400d7970     audio_visualizer.obj
 0003:00001978       glad_glVertexAttrib1f      00000001400d7978     audio_visualizer.obj
 0003:00001980       glad_glVertexAttrib1fv     00000001400d7980     audio_visualizer.obj
 0003:00001988       glad_glVertexAttrib1s      00000001400d7988     audio_visualizer.obj
 0003:00001990       glad_glVertexAttrib1sv     00000001400d7990     audio_visualizer.obj
 0003:00001998       glad_glVertexAttrib2d      00000001400d7998     audio_visualizer.obj
 0003:000019a0       glad_glVertexAttrib2dv     00000001400d79a0     audio_visualizer.obj
 0003:000019a8       glad_glVertexAttrib2f      00000001400d79a8     audio_visualizer.obj
 0003:000019b0       glad_glVertexAttrib2fv     00000001400d79b0     audio_visualizer.obj
 0003:000019b8       glad_glVertexAttrib2s      00000001400d79b8     audio_visualizer.obj
 0003:000019c0       glad_glVertexAttrib2sv     00000001400d79c0     audio_visualizer.obj
 0003:000019c8       glad_glVertexAttrib3d      00000001400d79c8     audio_visualizer.obj
 0003:000019d0       glad_glVertexAttrib3dv     00000001400d79d0     audio_visualizer.obj
 0003:000019d8       glad_glVertexAttrib3f      00000001400d79d8     audio_visualizer.obj
 0003:000019e0       glad_glVertexAttrib3fv     00000001400d79e0     audio_visualizer.obj
 0003:000019e8       glad_glVertexAttrib3s      00000001400d79e8     audio_visualizer.obj
 0003:000019f0       glad_glVertexAttrib3sv     00000001400d79f0     audio_visualizer.obj
 0003:000019f8       glad_glVertexAttrib4Nbv    00000001400d79f8     audio_visualizer.obj
 0003:00001a00       glad_glVertexAttrib4Niv    00000001400d7a00     audio_visualizer.obj
 0003:00001a08       glad_glVertexAttrib4Nsv    00000001400d7a08     audio_visualizer.obj
 0003:00001a10       glad_glVertexAttrib4Nub    00000001400d7a10     audio_visualizer.obj
 0003:00001a18       glad_glVertexAttrib4Nubv   00000001400d7a18     audio_visualizer.obj
 0003:00001a20       glad_glVertexAttrib4Nuiv   00000001400d7a20     audio_visualizer.obj
 0003:00001a28       glad_glVertexAttrib4Nusv   00000001400d7a28     audio_visualizer.obj
 0003:00001a30       glad_glVertexAttrib4bv     00000001400d7a30     audio_visualizer.obj
 0003:00001a38       glad_glVertexAttrib4d      00000001400d7a38     audio_visualizer.obj
 0003:00001a40       glad_glVertexAttrib4dv     00000001400d7a40     audio_visualizer.obj
 0003:00001a48       glad_glVertexAttrib4f      00000001400d7a48     audio_visualizer.obj
 0003:00001a50       glad_glVertexAttrib4fv     00000001400d7a50     audio_visualizer.obj
 0003:00001a58       glad_glVertexAttrib4iv     00000001400d7a58     audio_visualizer.obj
 0003:00001a60       glad_glVertexAttrib4s      00000001400d7a60     audio_visualizer.obj
 0003:00001a68       glad_glVertexAttrib4sv     00000001400d7a68     audio_visualizer.obj
 0003:00001a70       glad_glVertexAttrib4ubv    00000001400d7a70     audio_visualizer.obj
 0003:00001a78       glad_glVertexAttrib4uiv    00000001400d7a78     audio_visualizer.obj
 0003:00001a80       glad_glVertexAttrib4usv    00000001400d7a80     audio_visualizer.obj
 0003:00001a88       glad_glVertexAttribPointer 00000001400d7a88     audio_visualizer.obj
 0003:00001a90       glad_glUniformMatrix2x3fv  00000001400d7a90     audio_visualizer.obj
 0003:00001a98       glad_glUniformMatrix3x2fv  00000001400d7a98     audio_visualizer.obj
 0003:00001aa0       glad_glUniformMatrix2x4fv  00000001400d7aa0     audio_visualizer.obj
 0003:00001aa8       glad_glUniformMatrix4x2fv  00000001400d7aa8     audio_visualizer.obj
 0003:00001ab0       glad_glUniformMatrix3x4fv  00000001400d7ab0     audio_visualizer.obj
 0003:00001ab8       glad_glUniformMatrix4x3fv  00000001400d7ab8     audio_visualizer.obj
 0003:00001ac0       GLAD_GL_VERSION_3_0        00000001400d7ac0     audio_visualizer.obj
 0003:00001ac4       GLAD_GL_VERSION_3_1        00000001400d7ac4     audio_visualizer.obj
 0003:00001ac8       glad_glColorMaski          00000001400d7ac8     audio_visualizer.obj
 0003:00001ad0       glad_glGetBooleani_v       00000001400d7ad0     audio_visualizer.obj
 0003:00001ad8       glad_glGetIntegeri_v       00000001400d7ad8     audio_visualizer.obj
 0003:00001ae0       glad_glEnablei             00000001400d7ae0     audio_visualizer.obj
 0003:00001ae8       glad_glDisablei            00000001400d7ae8     audio_visualizer.obj
 0003:00001af0       glad_glIsEnabledi          00000001400d7af0     audio_visualizer.obj
 0003:00001af8       glad_glBeginTransformFeedback 00000001400d7af8     audio_visualizer.obj
 0003:00001b00       glad_glEndTransformFeedback 00000001400d7b00     audio_visualizer.obj
 0003:00001b08       glad_glBindBufferRange     00000001400d7b08     audio_visualizer.obj
 0003:00001b10       glad_glBindBufferBase      00000001400d7b10     audio_visualizer.obj
 0003:00001b18       glad_glTransformFeedbackVaryings 00000001400d7b18     audio_visualizer.obj
 0003:00001b20       glad_glGetTransformFeedbackVarying 00000001400d7b20     audio_visualizer.obj
 0003:00001b28       glad_glClampColor          00000001400d7b28     audio_visualizer.obj
 0003:00001b30       glad_glBeginConditionalRender 00000001400d7b30     audio_visualizer.obj
 0003:00001b38       glad_glEndConditionalRender 00000001400d7b38     audio_visualizer.obj
 0003:00001b40       glad_glVertexAttribIPointer 00000001400d7b40     audio_visualizer.obj
 0003:00001b48       glad_glGetVertexAttribIiv  00000001400d7b48     audio_visualizer.obj
 0003:00001b50       glad_glGetVertexAttribIuiv 00000001400d7b50     audio_visualizer.obj
 0003:00001b58       glad_glVertexAttribI1i     00000001400d7b58     audio_visualizer.obj
 0003:00001b60       glad_glVertexAttribI2i     00000001400d7b60     audio_visualizer.obj
 0003:00001b68       glad_glVertexAttribI3i     00000001400d7b68     audio_visualizer.obj
 0003:00001b70       glad_glVertexAttribI4i     00000001400d7b70     audio_visualizer.obj
 0003:00001b78       glad_glVertexAttribI1ui    00000001400d7b78     audio_visualizer.obj
 0003:00001b80       glad_glVertexAttribI2ui    00000001400d7b80     audio_visualizer.obj
 0003:00001b88       glad_glVertexAttribI3ui    00000001400d7b88     audio_visualizer.obj
 0003:00001b90       glad_glVertexAttribI4ui    00000001400d7b90     audio_visualizer.obj
 0003:00001b98       glad_glVertexAttribI1iv    00000001400d7b98     audio_visualizer.obj
 0003:00001ba0       glad_glVertexAttribI2iv    00000001400d7ba0     audio_visualizer.obj
 0003:00001ba8       glad_glVertexAttribI3iv    00000001400d7ba8     audio_visualizer.obj
 0003:00001bb0       glad_glVertexAttribI4iv    00000001400d7bb0     audio_visualizer.obj
 0003:00001bb8       glad_glVertexAttribI1uiv   00000001400d7bb8     audio_visualizer.obj
 0003:00001bc0       glad_glVertexAttribI2uiv   00000001400d7bc0     audio_visualizer.obj
 0003:00001bc8       glad_glVertexAttribI3uiv   00000001400d7bc8     audio_visualizer.obj
 0003:00001bd0       glad_glVertexAttribI4uiv   00000001400d7bd0     audio_visualizer.obj
 0003:00001bd8       glad_glVertexAttribI4bv    00000001400d7bd8     audio_visualizer.obj
 0003:00001be0       glad_glVertexAttribI4sv    00000001400d7be0     audio_visualizer.obj
 0003:00001be8       glad_glVertexAttribI4ubv   00000001400d7be8     audio_visualizer.obj
 0003:00001bf0       glad_glVertexAttribI4usv   00000001400d7bf0     audio_visualizer.obj
 0003:00001bf8       glad_glGetUniformuiv       00000001400d7bf8     audio_visualizer.obj
 0003:00001c00       glad_glBindFragDataLocation 00000001400d7c00     audio_visualizer.obj
 0003:00001c08       glad_glGetFragDataLocation 00000001400d7c08     audio_visualizer.obj
 0003:00001c10       glad_glUniform1ui          00000001400d7c10     audio_visualizer.obj
 0003:00001c18       glad_glUniform2ui          00000001400d7c18     audio_visualizer.obj
 0003:00001c20       glad_glUniform3ui          00000001400d7c20     audio_visualizer.obj
 0003:00001c28       glad_glUniform4ui          00000001400d7c28     audio_visualizer.obj
 0003:00001c30       glad_glUniform1uiv         00000001400d7c30     audio_visualizer.obj
 0003:00001c38       glad_glUniform2uiv         00000001400d7c38     audio_visualizer.obj
 0003:00001c40       glad_glUniform3uiv         00000001400d7c40     audio_visualizer.obj
 0003:00001c48       glad_glUniform4uiv         00000001400d7c48     audio_visualizer.obj
 0003:00001c50       glad_glTexParameterIiv     00000001400d7c50     audio_visualizer.obj
 0003:00001c58       glad_glTexParameterIuiv    00000001400d7c58     audio_visualizer.obj
 0003:00001c60       glad_glGetTexParameterIiv  00000001400d7c60     audio_visualizer.obj
 0003:00001c68       glad_glGetTexParameterIuiv 00000001400d7c68     audio_visualizer.obj
 0003:00001c70       glad_glClearBufferiv       00000001400d7c70     audio_visualizer.obj
 0003:00001c78       glad_glClearBufferuiv      00000001400d7c78     audio_visualizer.obj
 0003:00001c80       glad_glClearBufferfv       00000001400d7c80     audio_visualizer.obj
 0003:00001c88       glad_glClearBufferfi       00000001400d7c88     audio_visualizer.obj
 0003:00001c90       glad_glGetStringi          00000001400d7c90     audio_visualizer.obj
 0003:00001c98       glad_glIsRenderbuffer      00000001400d7c98     audio_visualizer.obj
 0003:00001ca0       glad_glBindRenderbuffer    00000001400d7ca0     audio_visualizer.obj
 0003:00001ca8       glad_glDeleteRenderbuffers 00000001400d7ca8     audio_visualizer.obj
 0003:00001cb0       glad_glGenRenderbuffers    00000001400d7cb0     audio_visualizer.obj
 0003:00001cb8       glad_glRenderbufferStorage 00000001400d7cb8     audio_visualizer.obj
 0003:00001cc0       glad_glGetRenderbufferParameteriv 00000001400d7cc0     audio_visualizer.obj
 0003:00001cc8       glad_glIsFramebuffer       00000001400d7cc8     audio_visualizer.obj
 0003:00001cd0       glad_glBindFramebuffer     00000001400d7cd0     audio_visualizer.obj
 0003:00001cd8       glad_glDeleteFramebuffers  00000001400d7cd8     audio_visualizer.obj
 0003:00001ce0       glad_glGenFramebuffers     00000001400d7ce0     audio_visualizer.obj
 0003:00001ce8       glad_glCheckFramebufferStatus 00000001400d7ce8     audio_visualizer.obj
 0003:00001cf0       glad_glFramebufferTexture1D 00000001400d7cf0     audio_visualizer.obj
 0003:00001cf8       glad_glFramebufferTexture2D 00000001400d7cf8     audio_visualizer.obj
 0003:00001d00       glad_glFramebufferTexture3D 00000001400d7d00     audio_visualizer.obj
 0003:00001d08       glad_glFramebufferRenderbuffer 00000001400d7d08     audio_visualizer.obj
 0003:00001d10       glad_glGetFramebufferAttachmentParameteriv 00000001400d7d10     audio_visualizer.obj
 0003:00001d18       glad_glGenerateMipmap      00000001400d7d18     audio_visualizer.obj
 0003:00001d20       glad_glBlitFramebuffer     00000001400d7d20     audio_visualizer.obj
 0003:00001d28       glad_glRenderbufferStorageMultisample 00000001400d7d28     audio_visualizer.obj
 0003:00001d30       glad_glFramebufferTextureLayer 00000001400d7d30     audio_visualizer.obj
 0003:00001d38       glad_glMapBufferRange      00000001400d7d38     audio_visualizer.obj
 0003:00001d40       glad_glFlushMappedBufferRange 00000001400d7d40     audio_visualizer.obj
 0003:00001d48       glad_glBindVertexArray     00000001400d7d48     audio_visualizer.obj
 0003:00001d50       glad_glDeleteVertexArrays  00000001400d7d50     audio_visualizer.obj
 0003:00001d58       glad_glGenVertexArrays     00000001400d7d58     audio_visualizer.obj
 0003:00001d60       glad_glIsVertexArray       00000001400d7d60     audio_visualizer.obj
 0003:00001d68       glad_glDrawArraysInstanced 00000001400d7d68     audio_visualizer.obj
 0003:00001d70       glad_glDrawElementsInstanced 00000001400d7d70     audio_visualizer.obj
 0003:00001d78       glad_glTexBuffer           00000001400d7d78     audio_visualizer.obj
 0003:00001d80       glad_glPrimitiveRestartIndex 00000001400d7d80     audio_visualizer.obj
 0003:00001d88       glad_glCopyBufferSubData   00000001400d7d88     audio_visualizer.obj
 0003:00001d90       glad_glGetUniformIndices   00000001400d7d90     audio_visualizer.obj
 0003:00001d98       glad_glGetActiveUniformsiv 00000001400d7d98     audio_visualizer.obj
 0003:00001da0       glad_glGetActiveUniformName 00000001400d7da0     audio_visualizer.obj
 0003:00001da8       glad_glGetUniformBlockIndex 00000001400d7da8     audio_visualizer.obj
 0003:00001db0       glad_glGetActiveUniformBlockiv 00000001400d7db0     audio_visualizer.obj
 0003:00001db8       glad_glGetActiveUniformBlockName 00000001400d7db8     audio_visualizer.obj
 0003:00001dc0       glad_glUniformBlockBinding 00000001400d7dc0     audio_visualizer.obj
 0003:00001dc8       GLAD_GL_VERSION_3_2        00000001400d7dc8     audio_visualizer.obj
 0003:00001dcc       GLAD_GL_VERSION_3_3        00000001400d7dcc     audio_visualizer.obj
 0003:00001dd0       glad_glDrawElementsBaseVertex 00000001400d7dd0     audio_visualizer.obj
 0003:00001dd8       glad_glDrawRangeElementsBaseVertex 00000001400d7dd8     audio_visualizer.obj
 0003:00001de0       glad_glDrawElementsInstancedBaseVertex 00000001400d7de0     audio_visualizer.obj
 0003:00001de8       glad_glMultiDrawElementsBaseVertex 00000001400d7de8     audio_visualizer.obj
 0003:00001df0       glad_glProvokingVertex     00000001400d7df0     audio_visualizer.obj
 0003:00001df8       glad_glFenceSync           00000001400d7df8     audio_visualizer.obj
 0003:00001e00       glad_glIsSync              00000001400d7e00     audio_visualizer.obj
 0003:00001e08       glad_glDeleteSync          00000001400d7e08     audio_visualizer.obj
 0003:00001e10       glad_glClientWaitSync      00000001400d7e10     audio_visualizer.obj
 0003:00001e18       glad_glWaitSync            00000001400d7e18     audio_visualizer.obj
 0003:00001e20       glad_glGetInteger64v       00000001400d7e20     audio_visualizer.obj
 0003:00001e28       glad_glGetSynciv           00000001400d7e28     audio_visualizer.obj
 0003:00001e30       glad_glGetInteger64i_v     00000001400d7e30     audio_visualizer.obj
 0003:00001e38       glad_glGetBufferParameteri64v 00000001400d7e38     audio_visualizer.obj
 0003:00001e40       glad_glFramebufferTexture  00000001400d7e40     audio_visualizer.obj
